ARM GAS  C:\Users\User\AppData\Local\Temp\cc6WofHt.s 			page 1


   1              		.syntax unified
   2              		.cpu cortex-m4
   3              		.eabi_attribute 27, 1
   4              		.fpu fpv4-sp-d16
   5              		.eabi_attribute 20, 1
   6              		.eabi_attribute 21, 1
   7              		.eabi_attribute 23, 3
   8              		.eabi_attribute 24, 1
   9              		.eabi_attribute 25, 1
  10              		.eabi_attribute 26, 1
  11              		.eabi_attribute 30, 1
  12              		.eabi_attribute 34, 1
  13              		.eabi_attribute 18, 4
  14              		.thumb
  15              		.syntax unified
  16              		.file	"display.c"
  17              		.text
  18              	.Ltext0:
  19              		.cfi_sections	.debug_frame
  20              		.section	.text.InitDisplay,"ax",%progbits
  21              		.align	2
  22              		.global	InitDisplay
  23              		.thumb
  24              		.thumb_func
  25              		.type	InitDisplay, %function
  26              	InitDisplay:
  27              	.LFB648:
  28              		.file 1 "display.c"
   1:display.c     **** /******************************************************************************
   2:display.c     **** * File Name: display.c
   3:display.c     **** *
   4:display.c     **** * Version: 1.00
   5:display.c     **** *
   6:display.c     **** * Description: This file contains the functions that initialize the E-INK display
   7:display.c     **** *              and show the instructions to use this code example at startup
   8:display.c     **** *
   9:display.c     **** * Related Document: CE218135_BLE_Proximity.pdf
  10:display.c     **** *
  11:display.c     **** * Hardware Dependency: CY8CKIT-062-BLE PSoC 6 BLE Pioneer Kit
  12:display.c     **** *
  13:display.c     **** ******************************************************************************
  14:display.c     **** * Copyright (2017), Cypress Semiconductor Corporation.
  15:display.c     **** ******************************************************************************
  16:display.c     **** * This software, including source code, documentation and related materials
  17:display.c     **** * ("Software") is owned by Cypress Semiconductor Corporation (Cypress) and is
  18:display.c     **** * protected by and subject to worldwide patent protection (United States and 
  19:display.c     **** * foreign), United States copyright laws and international treaty provisions. 
  20:display.c     **** * Cypress hereby grants to licensee a personal, non-exclusive, non-transferable
  21:display.c     **** * license to copy, use, modify, create derivative works of, and compile the 
  22:display.c     **** * Cypress source code and derivative works for the sole purpose of creating 
  23:display.c     **** * custom software in support of licensee product, such licensee product to be
  24:display.c     **** * used only in conjunction with Cypress's integrated circuit as specified in the
  25:display.c     **** * applicable agreement. Any reproduction, modification, translation, compilation,
  26:display.c     **** * or representation of this Software except as specified above is prohibited 
  27:display.c     **** * without the express written permission of Cypress.
  28:display.c     **** * 
  29:display.c     **** * Disclaimer: THIS SOFTWARE IS PROVIDED AS-IS, WITH NO WARRANTY OF ANY KIND, 
ARM GAS  C:\Users\User\AppData\Local\Temp\cc6WofHt.s 			page 2


  30:display.c     **** * EXPRESS OR IMPLIED, INCLUDING, BUT NOT LIMITED TO, NONINFRINGEMENT, IMPLIED 
  31:display.c     **** * WARRANTIES OF MERCHANTABILITY AND FITNESS FOR A PARTICULAR PURPOSE.
  32:display.c     **** * Cypress reserves the right to make changes to the Software without notice. 
  33:display.c     **** * Cypress does not assume any liability arising out of the application or use
  34:display.c     **** * of Software or any product or circuit described in the Software. Cypress does
  35:display.c     **** * not authorize its products for use as critical components in any products 
  36:display.c     **** * where a malfunction or failure may reasonably be expected to result in 
  37:display.c     **** * significant injury or death ("ACTIVE Risk Product"). By including Cypress's 
  38:display.c     **** * product in a ACTIVE Risk Product, the manufacturer of such system or application
  39:display.c     **** * assumes all risk of such use and in doing so indemnifies Cypress against all
  40:display.c     **** * liability. Use of this Software may be limited by and subject to the applicable
  41:display.c     **** * Cypress software license agreement.
  42:display.c     **** *****************************************************************************/
  43:display.c     **** /*******************************************************************************
  44:display.c     **** * This file contains the functions that initialize the E-INK display and show the
  45:display.c     **** * instructions to use this code example at startup
  46:display.c     **** *
  47:display.c     **** * For the details of the E-INK display and library functions, see the code example 
  48:display.c     **** * CE218133 - PSoC 6 MCU E-INK Display with CapSense
  49:display.c     **** *******************************************************************************/
  50:display.c     **** 
  51:display.c     **** /* Header file includes */
  52:display.c     **** #include "cy_eink_library.h"
  53:display.c     **** #include "screen_contents.h"
  54:display.c     **** 
  55:display.c     **** /* Definition of ambient temperature at 25 degree C */
  56:display.c     **** #define AMBIENT_TEMPERATURE         (int8_t) (25)
  57:display.c     **** 
  58:display.c     **** /* Definition of the coordinates of a full image frame */
  59:display.c     **** #define IMAGE_COORDINATES           {0, 33, 0, 176}
  60:display.c     **** 
  61:display.c     **** /* Origin of the text coordinates */
  62:display.c     **** #define TEXT_ORIGIN                 {0x00u, 0x02u}
  63:display.c     **** 
  64:display.c     **** /* Flag that indicates if the E-INK display has been detected */
  65:display.c     **** bool static displayDetected = false;
  66:display.c     **** 
  67:display.c     **** /* Frame buffer used for display operations */
  68:display.c     **** cy_eink_frame_t frameBuffer[CY_EINK_FRAME_SIZE];
  69:display.c     **** 
  70:display.c     **** /*******************************************************************************
  71:display.c     **** * Function Name: void InitDisplay(void)
  72:display.c     **** ********************************************************************************
  73:display.c     **** * Summary:
  74:display.c     **** *  Initializes the E-INK display hardware and clears the display
  75:display.c     **** *
  76:display.c     **** * Parameters:
  77:display.c     **** *  None
  78:display.c     **** *
  79:display.c     **** * Return:
  80:display.c     **** *  void
  81:display.c     **** *
  82:display.c     **** *******************************************************************************/
  83:display.c     **** void InitDisplay(void)
  84:display.c     **** { 
  29              		.loc 1 84 0
  30              		.cfi_startproc
ARM GAS  C:\Users\User\AppData\Local\Temp\cc6WofHt.s 			page 3


  31              		@ args = 0, pretend = 0, frame = 0
  32              		@ frame_needed = 0, uses_anonymous_args = 0
  33 0000 08B5     		push	{r3, lr}
  34              		.cfi_def_cfa_offset 8
  35              		.cfi_offset 3, -8
  36              		.cfi_offset 14, -4
  85:display.c     ****     /* Initialize the E-INK display hardware with the given ambient temperature */
  86:display.c     ****     Cy_EINK_Start(AMBIENT_TEMPERATURE);
  37              		.loc 1 86 0
  38 0002 1920     		movs	r0, #25
  39 0004 FFF7FEFF 		bl	Cy_EINK_Start
  40              	.LVL0:
  87:display.c     ****     
  88:display.c     ****     /* Power on the display and check if the operation is successful */
  89:display.c     ****     if ( Cy_EINK_Power(CY_EINK_ON)== CY_EINK_OPERATION_SUCCESS)
  41              		.loc 1 89 0
  42 0008 0120     		movs	r0, #1
  43 000a FFF7FEFF 		bl	Cy_EINK_Power
  44              	.LVL1:
  45 000e 48B1     		cbz	r0, .L1
  90:display.c     ****     {
  91:display.c     ****         /* Clear the display to white background */
  92:display.c     ****         Cy_EINK_Clear(CY_EINK_WHITE_BACKGROUND, CY_EINK_POWER_MANUAL);
  46              		.loc 1 92 0
  47 0010 0021     		movs	r1, #0
  48 0012 0120     		movs	r0, #1
  49 0014 FFF7FEFF 		bl	Cy_EINK_Clear
  50              	.LVL2:
  93:display.c     ****         Cy_EINK_Power(CY_EINK_OFF);
  51              		.loc 1 93 0
  52 0018 0020     		movs	r0, #0
  53 001a FFF7FEFF 		bl	Cy_EINK_Power
  54              	.LVL3:
  94:display.c     ****         
  95:display.c     ****         /* Set the flag that indicates if the E-INK display has been detected */
  96:display.c     ****         displayDetected = true;
  55              		.loc 1 96 0
  56 001e 0122     		movs	r2, #1
  57 0020 014B     		ldr	r3, .L4
  58 0022 1A70     		strb	r2, [r3]
  59              	.L1:
  60 0024 08BD     		pop	{r3, pc}
  61              	.L5:
  62 0026 00BF     		.align	2
  63              	.L4:
  64 0028 00000000 		.word	.LANCHOR0
  65              		.cfi_endproc
  66              	.LFE648:
  67              		.size	InitDisplay, .-InitDisplay
  68              		.section	.text.DisplayInstructions,"ax",%progbits
  69              		.align	2
  70              		.global	DisplayInstructions
  71              		.thumb
  72              		.thumb_func
  73              		.type	DisplayInstructions, %function
  74              	DisplayInstructions:
  75              	.LFB649:
ARM GAS  C:\Users\User\AppData\Local\Temp\cc6WofHt.s 			page 4


  97:display.c     ****     }
  98:display.c     **** }
  99:display.c     **** 
 100:display.c     **** /*******************************************************************************
 101:display.c     **** * Function Name: void DisplayInstructions(void)
 102:display.c     **** ********************************************************************************
 103:display.c     **** * Summary:
 104:display.c     **** *  Combines text and logo/heading images in an internal frame buffer and then
 105:display.c     **** *  writes the frame buffer to the E-INK display to show the instructions to use
 106:display.c     **** *  this code example
 107:display.c     **** *
 108:display.c     **** * Parameters:
 109:display.c     **** *  None
 110:display.c     **** *
 111:display.c     **** * Return:
 112:display.c     **** *  void
 113:display.c     **** *
 114:display.c     **** *******************************************************************************/
 115:display.c     **** void DisplayInstructions(void)
 116:display.c     **** {
  76              		.loc 1 116 0
  77              		.cfi_startproc
  78              		@ args = 0, pretend = 0, frame = 8
  79              		@ frame_needed = 0, uses_anonymous_args = 0
  80 0000 10B5     		push	{r4, lr}
  81              		.cfi_def_cfa_offset 8
  82              		.cfi_offset 4, -8
  83              		.cfi_offset 14, -4
  84 0002 82B0     		sub	sp, sp, #8
  85              		.cfi_def_cfa_offset 16
 117:display.c     ****     /* Coordinates of a full-image and text origin */
 118:display.c     ****     const uint8_t   imageCoordinates[]  = IMAGE_COORDINATES;
  86              		.loc 1 118 0
  87 0004 0F4B     		ldr	r3, .L9
  88 0006 1868     		ldr	r0, [r3]	@ unaligned
  89 0008 0190     		str	r0, [sp, #4]	@ unaligned
 119:display.c     ****     const uint8_t   textOrigin[]        = TEXT_ORIGIN;
  90              		.loc 1 119 0
  91 000a 0023     		movs	r3, #0
  92 000c 8DF80030 		strb	r3, [sp]
  93 0010 0223     		movs	r3, #2
  94 0012 8DF80130 		strb	r3, [sp, #1]
 120:display.c     ****     
 121:display.c     ****     /* Do this only if the E-INK display has been detected */
 122:display.c     ****     if (displayDetected)
  95              		.loc 1 122 0
  96 0016 0C4B     		ldr	r3, .L9+4
  97 0018 1B78     		ldrb	r3, [r3]	@ zero_extendqisi2
  98 001a 8BB1     		cbz	r3, .L6
 123:display.c     ****     {
 124:display.c     ****         /* Load the image that has the logo and the heading to the frame buffer */
 125:display.c     ****         Cy_EINK_ImageToFrameBuffer(frameBuffer, (cy_eink_frame_t*)logoAndHeading,
  99              		.loc 1 125 0
 100 001c 0B4C     		ldr	r4, .L9+8
 101 001e 01AA     		add	r2, sp, #4
 102 0020 0B49     		ldr	r1, .L9+12
 103 0022 2046     		mov	r0, r4
ARM GAS  C:\Users\User\AppData\Local\Temp\cc6WofHt.s 			page 5


 104 0024 FFF7FEFF 		bl	Cy_EINK_ImageToFrameBuffer
 105              	.LVL4:
 126:display.c     ****                                 (uint8_t*) imageCoordinates);
 127:display.c     ****         /* Load the text that stores instructions to the frame buffer */
 128:display.c     ****         Cy_EINK_TextToFrameBuffer(frameBuffer, (char*)instructions,
 106              		.loc 1 128 0
 107 0028 6B46     		mov	r3, sp
 108 002a 0A4A     		ldr	r2, .L9+16
 109 002c 0A49     		ldr	r1, .L9+20
 110 002e 2046     		mov	r0, r4
 111 0030 FFF7FEFF 		bl	Cy_EINK_TextToFrameBuffer
 112              	.LVL5:
 129:display.c     ****                            CY_EINK_FONT_8X12BLACK, (uint8_t*) textOrigin);
 130:display.c     ****         
 131:display.c     ****         /* Write the frame buffer to the E-INK display. Automatic power control is
 132:display.c     ****            enabled so that the display gets powered on before the write process 
 133:display.c     ****            and turned off afterwards */
 134:display.c     ****         Cy_EINK_ShowFrame(CY_EINK_WHITE_FRAME, frameBuffer,
 113              		.loc 1 134 0
 114 0034 0123     		movs	r3, #1
 115 0036 0222     		movs	r2, #2
 116 0038 2146     		mov	r1, r4
 117 003a 0020     		movs	r0, #0
 118 003c FFF7FEFF 		bl	Cy_EINK_ShowFrame
 119              	.LVL6:
 120              	.L6:
 135:display.c     ****                    CY_EINK_FULL_2STAGE, CY_EINK_POWER_AUTO);
 136:display.c     ****     }
 137:display.c     **** }
 121              		.loc 1 137 0
 122 0040 02B0     		add	sp, sp, #8
 123              		.cfi_def_cfa_offset 8
 124              		@ sp needed
 125 0042 10BD     		pop	{r4, pc}
 126              	.L10:
 127              		.align	2
 128              	.L9:
 129 0044 00000000 		.word	.LANCHOR1
 130 0048 00000000 		.word	.LANCHOR0
 131 004c 00000000 		.word	frameBuffer
 132 0050 00000000 		.word	logoAndHeading
 133 0054 00000000 		.word	cy_eink_font8By12_blackInWhite
 134 0058 00000000 		.word	instructions
 135              		.cfi_endproc
 136              	.LFE649:
 137              		.size	DisplayInstructions, .-DisplayInstructions
 138              		.comm	frameBuffer,5808,4
 139              		.section	.rodata
 140              		.align	2
 141              		.set	.LANCHOR1,. + 0
 142              	.LC0:
 143 0000 00       		.byte	0
 144 0001 21       		.byte	33
 145 0002 00       		.byte	0
 146 0003 B0       		.byte	-80
 147              		.bss
 148              		.set	.LANCHOR0,. + 0
ARM GAS  C:\Users\User\AppData\Local\Temp\cc6WofHt.s 			page 6


 149              		.type	displayDetected, %object
 150              		.size	displayDetected, 1
 151              	displayDetected:
 152 0000 00       		.space	1
 153              		.text
 154              	.Letext0:
 155              		.file 2 "d:\\cypress creator\\psoc creator\\4.2\\psoc creator\\import\\gnu\\arm\\5.4.1\\arm-none-e
 156              		.file 3 "d:\\cypress creator\\psoc creator\\4.2\\psoc creator\\import\\gnu\\arm\\5.4.1\\arm-none-e
 157              		.file 4 "Generated_Source\\PSoC6\\pdl\\drivers/peripheral/syslib/cy_syslib.h"
 158              		.file 5 "Generated_Source\\PSoC6\\pdl\\drivers/peripheral/tcpwm/cy_tcpwm_counter.h"
 159              		.file 6 "Generated_Source\\PSoC6\\pdl\\drivers/peripheral/scb/cy_scb_ezi2c.h"
 160              		.file 7 "Generated_Source\\PSoC6\\pdl\\drivers/peripheral/scb/cy_scb_spi.h"
 161              		.file 8 "Generated_Source\\PSoC6\\pdl\\drivers/peripheral/scb/cy_scb_uart.h"
 162              		.file 9 "Generated_Source\\PSoC6\\pdl\\middleware/ble/cy_ble_stack.h"
 163              		.file 10 "Generated_Source\\PSoC6\\pdl\\middleware/ble/cy_ble_stack_host_main.h"
 164              		.file 11 "Generated_Source\\PSoC6\\pdl\\middleware/ble/cy_ble_gap.h"
 165              		.file 12 "cy_eink_fonts.h"
 166              		.file 13 "pervasive_eink_hardware_driver.h"
 167              		.file 14 "cy_eink_library.h"
 168              		.file 15 "Generated_Source\\PSoC6\\pdl\\cmsis/include/core_cm4.h"
 169              		.file 16 "Generated_Source\\PSoC6/CY_EINK_SPIM.h"
 170              		.file 17 "Generated_Source\\PSoC6/CY_EINK_Timer.h"
 171              		.file 18 "Generated_Source\\PSoC6/Uart_Printf.h"
 172              		.file 19 "Generated_Source\\PSoC6/I2C.h"
 173              		.file 20 "screen_contents.h"