ARM GAS  C:\Users\User\AppData\Local\Temp\ccsn8eRz.s 			page 1


   1              		.syntax unified
   2              		.cpu cortex-m4
   3              		.eabi_attribute 27, 1
   4              		.fpu fpv4-sp-d16
   5              		.eabi_attribute 20, 1
   6              		.eabi_attribute 21, 1
   7              		.eabi_attribute 23, 3
   8              		.eabi_attribute 24, 1
   9              		.eabi_attribute 25, 1
  10              		.eabi_attribute 26, 1
  11              		.eabi_attribute 30, 1
  12              		.eabi_attribute 34, 1
  13              		.eabi_attribute 18, 4
  14              		.thumb
  15              		.syntax unified
  16              		.file	"pervasive_eink_hardware_driver.c"
  17              		.text
  18              	.Ltext0:
  19              		.cfi_sections	.debug_frame
  20              		.section	.text.Pv_EINK_SendData,"ax",%progbits
  21              		.align	2
  22              		.global	Pv_EINK_SendData
  23              		.thumb
  24              		.thumb_func
  25              		.type	Pv_EINK_SendData, %function
  26              	Pv_EINK_SendData:
  27              	.LFB647:
  28              		.file 1 "pervasive_eink_hardware_driver.c"
   1:pervasive_eink_hardware_driver.c **** /*******************************************************************************
   2:pervasive_eink_hardware_driver.c **** * Copyright (2017), Pervasive Displays Inc.
   3:pervasive_eink_hardware_driver.c **** *******************************************************************************
   4:pervasive_eink_hardware_driver.c **** *
   5:pervasive_eink_hardware_driver.c **** *  Authors: Pervasive Displays Inc.
   6:pervasive_eink_hardware_driver.c **** *
   7:pervasive_eink_hardware_driver.c **** *  Redistribution and use in source and binary forms, with or without
   8:pervasive_eink_hardware_driver.c **** *  modification, are permitted provided that the following conditions
   9:pervasive_eink_hardware_driver.c **** *  are met:
  10:pervasive_eink_hardware_driver.c **** *
  11:pervasive_eink_hardware_driver.c **** *  1. Redistributions of source code must retain the above copyright
  12:pervasive_eink_hardware_driver.c **** *     notice, this list of conditions and the following disclaimer.
  13:pervasive_eink_hardware_driver.c **** *  2. Redistributions in binary form must reproduce the above copyright
  14:pervasive_eink_hardware_driver.c **** *     notice, this list of conditions and the following disclaimer in
  15:pervasive_eink_hardware_driver.c **** *     the documentation and/or other materials provided with the
  16:pervasive_eink_hardware_driver.c **** *     distribution.
  17:pervasive_eink_hardware_driver.c **** *
  18:pervasive_eink_hardware_driver.c **** *  THIS SOFTWARE IS PROVIDED BY THE COPYRIGHT HOLDERS AND CONTRIBUTORS
  19:pervasive_eink_hardware_driver.c **** *  "AS IS" AND ANY EXPRESS OR IMPLIED WARRANTIES, INCLUDING, BUT NOT
  20:pervasive_eink_hardware_driver.c **** *  LIMITED TO, THE IMPLIED WARRANTIES OF MERCHANTABILITY AND FITNESS FOR
  21:pervasive_eink_hardware_driver.c **** *  A PARTICULAR PURPOSE ARE DISCLAIMED. IN NO EVENT SHALL THE COPYRIGHT
  22:pervasive_eink_hardware_driver.c **** *  OWNER OR CONTRIBUTORS BE LIABLE FOR ANY DIRECT, INDIRECT, INCIDENTAL,
  23:pervasive_eink_hardware_driver.c **** *  SPECIAL, EXEMPLARY, OR CONSEQUENTIAL DAMAGES (INCLUDING, BUT NOT
  24:pervasive_eink_hardware_driver.c **** *  LIMITED TO, PROCUREMENT OF SUBSTITUTE GOODS OR SERVICES; LOSS OF USE,
  25:pervasive_eink_hardware_driver.c **** *  DATA, OR PROFITS; OR BUSINESS INTERRUPTION) HOWEVER CAUSED AND ON ANY
  26:pervasive_eink_hardware_driver.c **** *  THEORY OF LIABILITY, WHETHER IN CONTRACT, STRICT LIABILITY, OR TORT
  27:pervasive_eink_hardware_driver.c **** *  (INCLUDING NEGLIGENCE OR OTHERWISE) ARISING IN ANY WAY OUT OF THE USE
  28:pervasive_eink_hardware_driver.c **** *  OF THIS SOFTWARE, EVEN IF ADVISED OF THE POSSIBILITY OF SUCH DAMAGE.
  29:pervasive_eink_hardware_driver.c **** *******************************************************************************/
ARM GAS  C:\Users\User\AppData\Local\Temp\ccsn8eRz.s 			page 2


  30:pervasive_eink_hardware_driver.c **** /*****************************************************************************
  31:pervasive_eink_hardware_driver.c **** * For the details of E-INK display hardware and driver, see the 2.7 inch display
  32:pervasive_eink_hardware_driver.c **** * product specification and G2 COG driver interface documents available at the
  33:pervasive_eink_hardware_driver.c **** * following location:
  34:pervasive_eink_hardware_driver.c **** * http://www.pervasivedisplays.com/products/271
  35:pervasive_eink_hardware_driver.c **** *******************************************************************************/
  36:pervasive_eink_hardware_driver.c **** 
  37:pervasive_eink_hardware_driver.c **** /* Header file includes */
  38:pervasive_eink_hardware_driver.c **** #include <string.h>
  39:pervasive_eink_hardware_driver.c **** #include "pervasive_eink_hardware_driver.h"
  40:pervasive_eink_hardware_driver.c **** 
  41:pervasive_eink_hardware_driver.c **** /* Macro for the dummy byte used in the line data */
  42:pervasive_eink_hardware_driver.c **** #define PV_EINK_DUMMY_BYTE     (uint8_t)(0x00u)
  43:pervasive_eink_hardware_driver.c **** 
  44:pervasive_eink_hardware_driver.c **** /* Data used to initialize the scan bytes */
  45:pervasive_eink_hardware_driver.c **** #define PV_EINK_SCAN_BYTE_INIT (uint8_t)(0x00u)
  46:pervasive_eink_hardware_driver.c **** 
  47:pervasive_eink_hardware_driver.c **** /* Line data structure of 2.7" display. Refer to driver document Section 5.1 
  48:pervasive_eink_hardware_driver.c ****    for details */
  49:pervasive_eink_hardware_driver.c **** struct eink_lineData
  50:pervasive_eink_hardware_driver.c **** {
  51:pervasive_eink_hardware_driver.c ****     /*  Dummy byte (0x00) */
  52:pervasive_eink_hardware_driver.c ****     uint8_t dummyData;
  53:pervasive_eink_hardware_driver.c **** 
  54:pervasive_eink_hardware_driver.c ****     /*  2.7" even byte array */
  55:pervasive_eink_hardware_driver.c ****     uint8_t even[PV_EINK_HORIZONTAL_SIZE];
  56:pervasive_eink_hardware_driver.c **** 
  57:pervasive_eink_hardware_driver.c ****     /*  2.7" scan byte array */
  58:pervasive_eink_hardware_driver.c ****     uint8_t scan[PV_EINK_SCAN_LINE_SIZE];
  59:pervasive_eink_hardware_driver.c **** 
  60:pervasive_eink_hardware_driver.c ****     /*  2.7" odd byte array */
  61:pervasive_eink_hardware_driver.c ****     uint8_t odd[PV_EINK_HORIZONTAL_SIZE];
  62:pervasive_eink_hardware_driver.c **** };
  63:pervasive_eink_hardware_driver.c **** 
  64:pervasive_eink_hardware_driver.c **** /* Packet structure of a line data */
  65:pervasive_eink_hardware_driver.c **** typedef union
  66:pervasive_eink_hardware_driver.c **** {
  67:pervasive_eink_hardware_driver.c ****     /* Line data structure of 2.7" EPD */
  68:pervasive_eink_hardware_driver.c ****     struct eink_lineData    lineDataBySize;
  69:pervasive_eink_hardware_driver.c **** 
  70:pervasive_eink_hardware_driver.c ****     /* Line buffer equal to the data line size */
  71:pervasive_eink_hardware_driver.c ****     uint8_t                 lineBuffer[PV_EINK_DATA_LINE_SIZE];
  72:pervasive_eink_hardware_driver.c **** 
  73:pervasive_eink_hardware_driver.c ****     /* The maximum line buffer data size as length */
  74:pervasive_eink_hardware_driver.c **** }   driver_data_packet_t;
  75:pervasive_eink_hardware_driver.c **** 
  76:pervasive_eink_hardware_driver.c **** /* Variable that stores the packets for one full drive frame. This variable
  77:pervasive_eink_hardware_driver.c ****    is used for full and partial updates */
  78:pervasive_eink_hardware_driver.c **** driver_data_packet_t  bulkDriverPacket[PV_EINK_VERTICAL_SIZE];
  79:pervasive_eink_hardware_driver.c **** 
  80:pervasive_eink_hardware_driver.c **** /* Variable that stores a single line data. This variable is used to prepare 
  81:pervasive_eink_hardware_driver.c ****    dummy frames */
  82:pervasive_eink_hardware_driver.c **** driver_data_packet_t  static driverPacket;
  83:pervasive_eink_hardware_driver.c **** 
  84:pervasive_eink_hardware_driver.c **** /* Scan table for the four stages of display update*/
  85:pervasive_eink_hardware_driver.c **** uint8_t const               scanTable[PV_EINK_SCAN_TABLE_SIZE] =
  86:pervasive_eink_hardware_driver.c ****                             PV_EINK_SCAN_TABLE_DATA;
ARM GAS  C:\Users\User\AppData\Local\Temp\ccsn8eRz.s 			page 3


  87:pervasive_eink_hardware_driver.c **** 
  88:pervasive_eink_hardware_driver.c **** /* The SPI register addresses for Channel Select */
  89:pervasive_eink_hardware_driver.c **** uint8_t const               channelSelect[PV_EINK_CHANNEL_SEL_SIZE] =
  90:pervasive_eink_hardware_driver.c ****                             PV_EINK_CHANNEL_SEL_DATA;
  91:pervasive_eink_hardware_driver.c **** 
  92:pervasive_eink_hardware_driver.c **** /* Variables that store the driver timing information */
  93:pervasive_eink_hardware_driver.c **** uint16_t static             fullUpdateTime;
  94:pervasive_eink_hardware_driver.c **** uint16_t static             partialUpdateTime;
  95:pervasive_eink_hardware_driver.c **** 
  96:pervasive_eink_hardware_driver.c **** /* Pointers for the data structures used by the driver */
  97:pervasive_eink_hardware_driver.c **** uint8_t static*             dataLineEven;
  98:pervasive_eink_hardware_driver.c **** uint8_t static*             dataLineOdd;
  99:pervasive_eink_hardware_driver.c **** uint8_t static*             dataLineScan;
 100:pervasive_eink_hardware_driver.c **** 
 101:pervasive_eink_hardware_driver.c **** /*******************************************************************************
 102:pervasive_eink_hardware_driver.c **** * Function Name: void Pv_EINK_SendData(uint8_t regAddr, uint8_t* data, 
 103:pervasive_eink_hardware_driver.c **** *                                   uint16_t dataLength)
 104:pervasive_eink_hardware_driver.c **** ********************************************************************************
 105:pervasive_eink_hardware_driver.c **** *
 106:pervasive_eink_hardware_driver.c **** * Summary: Sends an array of data to the E-INK driver.
 107:pervasive_eink_hardware_driver.c **** *
 108:pervasive_eink_hardware_driver.c **** * Parameters:
 109:pervasive_eink_hardware_driver.c **** *  uint8_t regAddr    : Display driver register address
 110:pervasive_eink_hardware_driver.c **** *  uint8_t* data      : Pointer to the data array that will be sent to the driver
 111:pervasive_eink_hardware_driver.c **** *  uint16_t dataLength: Length of the data array
 112:pervasive_eink_hardware_driver.c **** *
 113:pervasive_eink_hardware_driver.c **** * Return:
 114:pervasive_eink_hardware_driver.c **** *  None
 115:pervasive_eink_hardware_driver.c **** *
 116:pervasive_eink_hardware_driver.c **** * Side Effects:
 117:pervasive_eink_hardware_driver.c **** *  None
 118:pervasive_eink_hardware_driver.c **** *******************************************************************************/
 119:pervasive_eink_hardware_driver.c **** void Pv_EINK_SendData(uint8_t regAddr, uint8_t* data, uint16_t dataLength)
 120:pervasive_eink_hardware_driver.c **** {
  29              		.loc 1 120 0
  30              		.cfi_startproc
  31              		@ args = 0, pretend = 0, frame = 0
  32              		@ frame_needed = 0, uses_anonymous_args = 0
  33              	.LVL0:
  34 0000 2DE9F041 		push	{r4, r5, r6, r7, r8, lr}
  35              		.cfi_def_cfa_offset 24
  36              		.cfi_offset 4, -24
  37              		.cfi_offset 5, -20
  38              		.cfi_offset 6, -16
  39              		.cfi_offset 7, -12
  40              		.cfi_offset 8, -8
  41              		.cfi_offset 14, -4
  42 0004 8046     		mov	r8, r0
  43 0006 0E46     		mov	r6, r1
  44 0008 1546     		mov	r5, r2
  45              	.LVL1:
  46              	.LBB58:
  47              	.LBB59:
  48              		.file 2 "Generated_Source\\PSoC6\\pdl\\drivers/peripheral/gpio/cy_gpio.h"
   1:Generated_Source\PSoC6\pdl\drivers/peripheral/gpio/cy_gpio.h **** /***************************************************************************//**
   2:Generated_Source\PSoC6\pdl\drivers/peripheral/gpio/cy_gpio.h **** * \file cy_gpio.h
   3:Generated_Source\PSoC6\pdl\drivers/peripheral/gpio/cy_gpio.h **** * \version 1.10.1
ARM GAS  C:\Users\User\AppData\Local\Temp\ccsn8eRz.s 			page 4


   4:Generated_Source\PSoC6\pdl\drivers/peripheral/gpio/cy_gpio.h **** *
   5:Generated_Source\PSoC6\pdl\drivers/peripheral/gpio/cy_gpio.h **** * \brief
   6:Generated_Source\PSoC6\pdl\drivers/peripheral/gpio/cy_gpio.h **** * Provides an API declaration of the GPIO driver
   7:Generated_Source\PSoC6\pdl\drivers/peripheral/gpio/cy_gpio.h **** *
   8:Generated_Source\PSoC6\pdl\drivers/peripheral/gpio/cy_gpio.h **** ********************************************************************************
   9:Generated_Source\PSoC6\pdl\drivers/peripheral/gpio/cy_gpio.h **** * \copyright
  10:Generated_Source\PSoC6\pdl\drivers/peripheral/gpio/cy_gpio.h **** * Copyright 2016-2018, Cypress Semiconductor Corporation. All rights reserved.
  11:Generated_Source\PSoC6\pdl\drivers/peripheral/gpio/cy_gpio.h **** * You may use this file only in accordance with the license, terms, conditions,
  12:Generated_Source\PSoC6\pdl\drivers/peripheral/gpio/cy_gpio.h **** * disclaimers, and limitations in the end user license agreement accompanying
  13:Generated_Source\PSoC6\pdl\drivers/peripheral/gpio/cy_gpio.h **** * the software package with which this file was provided.
  14:Generated_Source\PSoC6\pdl\drivers/peripheral/gpio/cy_gpio.h **** *******************************************************************************/
  15:Generated_Source\PSoC6\pdl\drivers/peripheral/gpio/cy_gpio.h **** 
  16:Generated_Source\PSoC6\pdl\drivers/peripheral/gpio/cy_gpio.h **** /**
  17:Generated_Source\PSoC6\pdl\drivers/peripheral/gpio/cy_gpio.h **** * \defgroup group_gpio General Purpose Input Output (GPIO)
  18:Generated_Source\PSoC6\pdl\drivers/peripheral/gpio/cy_gpio.h **** * \{
  19:Generated_Source\PSoC6\pdl\drivers/peripheral/gpio/cy_gpio.h **** * The GPIO driver provides an API to configure and access device Input/Output pins.
  20:Generated_Source\PSoC6\pdl\drivers/peripheral/gpio/cy_gpio.h **** * IO pins include all general purpose types such as GPIO, SIO, HSIO, AUXIO, and
  21:Generated_Source\PSoC6\pdl\drivers/peripheral/gpio/cy_gpio.h **** * their variants.
  22:Generated_Source\PSoC6\pdl\drivers/peripheral/gpio/cy_gpio.h **** *
  23:Generated_Source\PSoC6\pdl\drivers/peripheral/gpio/cy_gpio.h **** * Initialization can be performed either at the port level or by configuring the
  24:Generated_Source\PSoC6\pdl\drivers/peripheral/gpio/cy_gpio.h **** * individual pins. For efficient use of code space, port
  25:Generated_Source\PSoC6\pdl\drivers/peripheral/gpio/cy_gpio.h **** * configuration should be used in the field. Refer to the product device header files 
  26:Generated_Source\PSoC6\pdl\drivers/peripheral/gpio/cy_gpio.h **** * for the list of supported ports and pins.
  27:Generated_Source\PSoC6\pdl\drivers/peripheral/gpio/cy_gpio.h **** * 
  28:Generated_Source\PSoC6\pdl\drivers/peripheral/gpio/cy_gpio.h **** * - Single pin configuration is performed by using \ref Cy_GPIO_Pin_FastInit 
  29:Generated_Source\PSoC6\pdl\drivers/peripheral/gpio/cy_gpio.h **** *   (provide specific values) or \ref Cy_GPIO_Pin_Init (provide a filled
  30:Generated_Source\PSoC6\pdl\drivers/peripheral/gpio/cy_gpio.h **** *   cy_stc_gpio_pin_config_t structure).
  31:Generated_Source\PSoC6\pdl\drivers/peripheral/gpio/cy_gpio.h **** * - An entire port can be configured using \ref Cy_GPIO_Port_Init. Provide a filled 
  32:Generated_Source\PSoC6\pdl\drivers/peripheral/gpio/cy_gpio.h **** *   cy_stc_gpio_prt_config_t structure. The values in the structure are 
  33:Generated_Source\PSoC6\pdl\drivers/peripheral/gpio/cy_gpio.h **** *   bitfields representing the desired value for each pin in the port.
  34:Generated_Source\PSoC6\pdl\drivers/peripheral/gpio/cy_gpio.h **** * - Pin configuration and management is based on the port address and pin number.
  35:Generated_Source\PSoC6\pdl\drivers/peripheral/gpio/cy_gpio.h **** *   \ref Cy_GPIO_PortToAddr function can optionally be used to calculate the port
  36:Generated_Source\PSoC6\pdl\drivers/peripheral/gpio/cy_gpio.h **** *   address from the port number at run-time.
  37:Generated_Source\PSoC6\pdl\drivers/peripheral/gpio/cy_gpio.h **** *
  38:Generated_Source\PSoC6\pdl\drivers/peripheral/gpio/cy_gpio.h **** * Once the pin/port initialization is complete, each pin can be accessed by 
  39:Generated_Source\PSoC6\pdl\drivers/peripheral/gpio/cy_gpio.h **** * specifying the port (GPIO_PRT_Type) and the pin (0-7) in the provided API 
  40:Generated_Source\PSoC6\pdl\drivers/peripheral/gpio/cy_gpio.h **** * functions.
  41:Generated_Source\PSoC6\pdl\drivers/peripheral/gpio/cy_gpio.h **** *
  42:Generated_Source\PSoC6\pdl\drivers/peripheral/gpio/cy_gpio.h **** * \section group_gpio_configuration Configuration Considerations
  43:Generated_Source\PSoC6\pdl\drivers/peripheral/gpio/cy_gpio.h **** *
  44:Generated_Source\PSoC6\pdl\drivers/peripheral/gpio/cy_gpio.h **** * 1. Pin multiplexing is controlled through the High-Speed IO Matrix (HSIOM) selection.
  45:Generated_Source\PSoC6\pdl\drivers/peripheral/gpio/cy_gpio.h **** *    This allows the pin to connect to signal sources/sinks throughout the device,
  46:Generated_Source\PSoC6\pdl\drivers/peripheral/gpio/cy_gpio.h **** *    as defined by the pin HSIOM selection options (en_hsiom_sel_t).
  47:Generated_Source\PSoC6\pdl\drivers/peripheral/gpio/cy_gpio.h **** * 2. All pins are initialized to High-Z drive mode with HSIOM connected to CPU (SW
  48:Generated_Source\PSoC6\pdl\drivers/peripheral/gpio/cy_gpio.h **** *    control digital pin only) at Power-On-Reset(POR).
  49:Generated_Source\PSoC6\pdl\drivers/peripheral/gpio/cy_gpio.h **** * 3. Some API functions perform read-modify-write operations on shared port
  50:Generated_Source\PSoC6\pdl\drivers/peripheral/gpio/cy_gpio.h **** *    registers. These functions are not thread safe and care must be taken when
  51:Generated_Source\PSoC6\pdl\drivers/peripheral/gpio/cy_gpio.h **** *    called by the application.
  52:Generated_Source\PSoC6\pdl\drivers/peripheral/gpio/cy_gpio.h **** *
  53:Generated_Source\PSoC6\pdl\drivers/peripheral/gpio/cy_gpio.h **** * Multiple pins on a port can be updated using direct port register writes with an
  54:Generated_Source\PSoC6\pdl\drivers/peripheral/gpio/cy_gpio.h **** * appropriate port mask. An example is shown below, highlighting the different ways of 
  55:Generated_Source\PSoC6\pdl\drivers/peripheral/gpio/cy_gpio.h **** * configuring Port 1 pins using,
  56:Generated_Source\PSoC6\pdl\drivers/peripheral/gpio/cy_gpio.h **** * 
  57:Generated_Source\PSoC6\pdl\drivers/peripheral/gpio/cy_gpio.h **** * - Port output data register
  58:Generated_Source\PSoC6\pdl\drivers/peripheral/gpio/cy_gpio.h **** * - Port output data set register
  59:Generated_Source\PSoC6\pdl\drivers/peripheral/gpio/cy_gpio.h **** * - Port output data clear register
  60:Generated_Source\PSoC6\pdl\drivers/peripheral/gpio/cy_gpio.h **** *
ARM GAS  C:\Users\User\AppData\Local\Temp\ccsn8eRz.s 			page 5


  61:Generated_Source\PSoC6\pdl\drivers/peripheral/gpio/cy_gpio.h **** * \snippet gpio/gpio_v1_10_sut_01.cydsn/main_cm4.c Cy_GPIO_Snippet
  62:Generated_Source\PSoC6\pdl\drivers/peripheral/gpio/cy_gpio.h **** *
  63:Generated_Source\PSoC6\pdl\drivers/peripheral/gpio/cy_gpio.h **** * \section group_gpio_more_information More Information
  64:Generated_Source\PSoC6\pdl\drivers/peripheral/gpio/cy_gpio.h **** *
  65:Generated_Source\PSoC6\pdl\drivers/peripheral/gpio/cy_gpio.h **** * Refer to the technical reference manual (TRM) and the device datasheet.
  66:Generated_Source\PSoC6\pdl\drivers/peripheral/gpio/cy_gpio.h **** *
  67:Generated_Source\PSoC6\pdl\drivers/peripheral/gpio/cy_gpio.h **** * \section group_gpio_MISRA MISRA-C Compliance]
  68:Generated_Source\PSoC6\pdl\drivers/peripheral/gpio/cy_gpio.h **** * <table class="doxtable">
  69:Generated_Source\PSoC6\pdl\drivers/peripheral/gpio/cy_gpio.h **** *   <tr>
  70:Generated_Source\PSoC6\pdl\drivers/peripheral/gpio/cy_gpio.h **** *     <th>MISRA Rule</th>
  71:Generated_Source\PSoC6\pdl\drivers/peripheral/gpio/cy_gpio.h **** *     <th>Rule Class (Required/Advisory)</th>
  72:Generated_Source\PSoC6\pdl\drivers/peripheral/gpio/cy_gpio.h **** *     <th>Rule Description</th>
  73:Generated_Source\PSoC6\pdl\drivers/peripheral/gpio/cy_gpio.h **** *     <th>Description of Deviation(s)</th>
  74:Generated_Source\PSoC6\pdl\drivers/peripheral/gpio/cy_gpio.h **** *   </tr>
  75:Generated_Source\PSoC6\pdl\drivers/peripheral/gpio/cy_gpio.h **** *   <tr>
  76:Generated_Source\PSoC6\pdl\drivers/peripheral/gpio/cy_gpio.h **** *     <td>16.7</td>
  77:Generated_Source\PSoC6\pdl\drivers/peripheral/gpio/cy_gpio.h **** *     <td>A</td>
  78:Generated_Source\PSoC6\pdl\drivers/peripheral/gpio/cy_gpio.h **** *     <td>A pointer parameter in a function prototype should be declared as pointer 
  79:Generated_Source\PSoC6\pdl\drivers/peripheral/gpio/cy_gpio.h **** *         to const if the pointer is not used to modify the addressed object.</td>
  80:Generated_Source\PSoC6\pdl\drivers/peripheral/gpio/cy_gpio.h **** *     <td>The objects pointed to by the base addresses of the GPIO port are not always modified.
  81:Generated_Source\PSoC6\pdl\drivers/peripheral/gpio/cy_gpio.h **** *         While a const qualifier can be used in select scenarios, it brings little benefit
  82:Generated_Source\PSoC6\pdl\drivers/peripheral/gpio/cy_gpio.h **** *         in adding this to the affected functions. </td>
  83:Generated_Source\PSoC6\pdl\drivers/peripheral/gpio/cy_gpio.h **** *   </tr>
  84:Generated_Source\PSoC6\pdl\drivers/peripheral/gpio/cy_gpio.h **** * </table>
  85:Generated_Source\PSoC6\pdl\drivers/peripheral/gpio/cy_gpio.h **** *
  86:Generated_Source\PSoC6\pdl\drivers/peripheral/gpio/cy_gpio.h **** * \section group_gpio_changelog Changelog
  87:Generated_Source\PSoC6\pdl\drivers/peripheral/gpio/cy_gpio.h **** * <table class="doxtable">
  88:Generated_Source\PSoC6\pdl\drivers/peripheral/gpio/cy_gpio.h **** *   <tr><th>Version</th><th>Changes</th><th>Reason for Change</th></tr>
  89:Generated_Source\PSoC6\pdl\drivers/peripheral/gpio/cy_gpio.h **** *   <tr>
  90:Generated_Source\PSoC6\pdl\drivers/peripheral/gpio/cy_gpio.h **** *     <td>1.10.1</td>
  91:Generated_Source\PSoC6\pdl\drivers/peripheral/gpio/cy_gpio.h **** *     <td>Updated description for the functions: \ref Cy_GPIO_GetInterruptStatus, 
  92:Generated_Source\PSoC6\pdl\drivers/peripheral/gpio/cy_gpio.h **** *         \ref Cy_GPIO_GetInterruptMask, \ref Cy_GPIO_GetInterruptStatusMasked.
  93:Generated_Source\PSoC6\pdl\drivers/peripheral/gpio/cy_gpio.h **** *         Minor documentation edits.
  94:Generated_Source\PSoC6\pdl\drivers/peripheral/gpio/cy_gpio.h **** *     </td>
  95:Generated_Source\PSoC6\pdl\drivers/peripheral/gpio/cy_gpio.h **** *     <td>Documentation update and clarification</td>
  96:Generated_Source\PSoC6\pdl\drivers/peripheral/gpio/cy_gpio.h **** *   </tr>
  97:Generated_Source\PSoC6\pdl\drivers/peripheral/gpio/cy_gpio.h **** *   <tr>
  98:Generated_Source\PSoC6\pdl\drivers/peripheral/gpio/cy_gpio.h **** *     <td>1.10</td>
  99:Generated_Source\PSoC6\pdl\drivers/peripheral/gpio/cy_gpio.h **** *     <td>Added input parameter validation to the API functions</td>
 100:Generated_Source\PSoC6\pdl\drivers/peripheral/gpio/cy_gpio.h **** *     <td></td>
 101:Generated_Source\PSoC6\pdl\drivers/peripheral/gpio/cy_gpio.h **** *   </tr>
 102:Generated_Source\PSoC6\pdl\drivers/peripheral/gpio/cy_gpio.h **** *   <tr>
 103:Generated_Source\PSoC6\pdl\drivers/peripheral/gpio/cy_gpio.h **** *     <td>1.0</td>
 104:Generated_Source\PSoC6\pdl\drivers/peripheral/gpio/cy_gpio.h **** *     <td>Initial version</td>
 105:Generated_Source\PSoC6\pdl\drivers/peripheral/gpio/cy_gpio.h **** *     <td></td>
 106:Generated_Source\PSoC6\pdl\drivers/peripheral/gpio/cy_gpio.h **** *   </tr>
 107:Generated_Source\PSoC6\pdl\drivers/peripheral/gpio/cy_gpio.h **** * </table>
 108:Generated_Source\PSoC6\pdl\drivers/peripheral/gpio/cy_gpio.h **** *
 109:Generated_Source\PSoC6\pdl\drivers/peripheral/gpio/cy_gpio.h **** * \defgroup group_gpio_macros Macros
 110:Generated_Source\PSoC6\pdl\drivers/peripheral/gpio/cy_gpio.h **** * \defgroup group_gpio_functions Functions
 111:Generated_Source\PSoC6\pdl\drivers/peripheral/gpio/cy_gpio.h **** * \{
 112:Generated_Source\PSoC6\pdl\drivers/peripheral/gpio/cy_gpio.h **** *   \defgroup group_gpio_functions_init       Initialization Functions
 113:Generated_Source\PSoC6\pdl\drivers/peripheral/gpio/cy_gpio.h **** *   \defgroup group_gpio_functions_gpio       GPIO Functions
 114:Generated_Source\PSoC6\pdl\drivers/peripheral/gpio/cy_gpio.h **** *   \defgroup group_gpio_functions_sio        SIO Functions
 115:Generated_Source\PSoC6\pdl\drivers/peripheral/gpio/cy_gpio.h **** *   \defgroup group_gpio_functions_interrupt  Port Interrupt Functions
 116:Generated_Source\PSoC6\pdl\drivers/peripheral/gpio/cy_gpio.h **** * \}
 117:Generated_Source\PSoC6\pdl\drivers/peripheral/gpio/cy_gpio.h **** * \defgroup group_gpio_data_structures Data Structures
ARM GAS  C:\Users\User\AppData\Local\Temp\ccsn8eRz.s 			page 6


 118:Generated_Source\PSoC6\pdl\drivers/peripheral/gpio/cy_gpio.h **** * \defgroup group_gpio_enums Enumerated Types
 119:Generated_Source\PSoC6\pdl\drivers/peripheral/gpio/cy_gpio.h **** */
 120:Generated_Source\PSoC6\pdl\drivers/peripheral/gpio/cy_gpio.h **** 
 121:Generated_Source\PSoC6\pdl\drivers/peripheral/gpio/cy_gpio.h **** #if !defined(CY_GPIO_H)
 122:Generated_Source\PSoC6\pdl\drivers/peripheral/gpio/cy_gpio.h **** #define CY_GPIO_H
 123:Generated_Source\PSoC6\pdl\drivers/peripheral/gpio/cy_gpio.h **** 
 124:Generated_Source\PSoC6\pdl\drivers/peripheral/gpio/cy_gpio.h **** #include <stddef.h>
 125:Generated_Source\PSoC6\pdl\drivers/peripheral/gpio/cy_gpio.h **** #include "syslib/cy_syslib.h"
 126:Generated_Source\PSoC6\pdl\drivers/peripheral/gpio/cy_gpio.h **** #include "cy_device_headers.h"
 127:Generated_Source\PSoC6\pdl\drivers/peripheral/gpio/cy_gpio.h **** 
 128:Generated_Source\PSoC6\pdl\drivers/peripheral/gpio/cy_gpio.h **** #if defined(__cplusplus)
 129:Generated_Source\PSoC6\pdl\drivers/peripheral/gpio/cy_gpio.h **** extern "C" {
 130:Generated_Source\PSoC6\pdl\drivers/peripheral/gpio/cy_gpio.h **** #endif
 131:Generated_Source\PSoC6\pdl\drivers/peripheral/gpio/cy_gpio.h **** 
 132:Generated_Source\PSoC6\pdl\drivers/peripheral/gpio/cy_gpio.h **** /** \addtogroup group_gpio_macros
 133:Generated_Source\PSoC6\pdl\drivers/peripheral/gpio/cy_gpio.h **** * \{
 134:Generated_Source\PSoC6\pdl\drivers/peripheral/gpio/cy_gpio.h **** */
 135:Generated_Source\PSoC6\pdl\drivers/peripheral/gpio/cy_gpio.h **** 
 136:Generated_Source\PSoC6\pdl\drivers/peripheral/gpio/cy_gpio.h **** /** Driver major version */
 137:Generated_Source\PSoC6\pdl\drivers/peripheral/gpio/cy_gpio.h **** #define CY_GPIO_DRV_VERSION_MAJOR       1
 138:Generated_Source\PSoC6\pdl\drivers/peripheral/gpio/cy_gpio.h **** 
 139:Generated_Source\PSoC6\pdl\drivers/peripheral/gpio/cy_gpio.h **** /** Driver minor version */
 140:Generated_Source\PSoC6\pdl\drivers/peripheral/gpio/cy_gpio.h **** #define CY_GPIO_DRV_VERSION_MINOR       10
 141:Generated_Source\PSoC6\pdl\drivers/peripheral/gpio/cy_gpio.h **** 
 142:Generated_Source\PSoC6\pdl\drivers/peripheral/gpio/cy_gpio.h **** /** GPIO driver ID */
 143:Generated_Source\PSoC6\pdl\drivers/peripheral/gpio/cy_gpio.h **** #define CY_GPIO_ID CY_PDL_DRV_ID(0x16u)
 144:Generated_Source\PSoC6\pdl\drivers/peripheral/gpio/cy_gpio.h **** 
 145:Generated_Source\PSoC6\pdl\drivers/peripheral/gpio/cy_gpio.h **** /** \} group_gpio_macros */
 146:Generated_Source\PSoC6\pdl\drivers/peripheral/gpio/cy_gpio.h **** 
 147:Generated_Source\PSoC6\pdl\drivers/peripheral/gpio/cy_gpio.h **** 
 148:Generated_Source\PSoC6\pdl\drivers/peripheral/gpio/cy_gpio.h **** /***************************************
 149:Generated_Source\PSoC6\pdl\drivers/peripheral/gpio/cy_gpio.h **** *       Enumerations
 150:Generated_Source\PSoC6\pdl\drivers/peripheral/gpio/cy_gpio.h **** ***************************************/
 151:Generated_Source\PSoC6\pdl\drivers/peripheral/gpio/cy_gpio.h **** /**
 152:Generated_Source\PSoC6\pdl\drivers/peripheral/gpio/cy_gpio.h **** * \addtogroup group_gpio_enums
 153:Generated_Source\PSoC6\pdl\drivers/peripheral/gpio/cy_gpio.h **** * \{
 154:Generated_Source\PSoC6\pdl\drivers/peripheral/gpio/cy_gpio.h **** */
 155:Generated_Source\PSoC6\pdl\drivers/peripheral/gpio/cy_gpio.h **** 
 156:Generated_Source\PSoC6\pdl\drivers/peripheral/gpio/cy_gpio.h **** /**
 157:Generated_Source\PSoC6\pdl\drivers/peripheral/gpio/cy_gpio.h **** * GPIO Driver error codes
 158:Generated_Source\PSoC6\pdl\drivers/peripheral/gpio/cy_gpio.h **** */
 159:Generated_Source\PSoC6\pdl\drivers/peripheral/gpio/cy_gpio.h **** typedef enum 
 160:Generated_Source\PSoC6\pdl\drivers/peripheral/gpio/cy_gpio.h **** {
 161:Generated_Source\PSoC6\pdl\drivers/peripheral/gpio/cy_gpio.h ****     CY_GPIO_SUCCESS   = 0x00u,                                    /**< Returned successful */
 162:Generated_Source\PSoC6\pdl\drivers/peripheral/gpio/cy_gpio.h ****     CY_GPIO_BAD_PARAM = CY_GPIO_ID | CY_PDL_STATUS_ERROR | 0x01u, /**< Bad parameter was passed */
 163:Generated_Source\PSoC6\pdl\drivers/peripheral/gpio/cy_gpio.h **** } cy_en_gpio_status_t;
 164:Generated_Source\PSoC6\pdl\drivers/peripheral/gpio/cy_gpio.h **** 
 165:Generated_Source\PSoC6\pdl\drivers/peripheral/gpio/cy_gpio.h **** /** \} group_gpio_enums */
 166:Generated_Source\PSoC6\pdl\drivers/peripheral/gpio/cy_gpio.h **** 
 167:Generated_Source\PSoC6\pdl\drivers/peripheral/gpio/cy_gpio.h **** 
 168:Generated_Source\PSoC6\pdl\drivers/peripheral/gpio/cy_gpio.h **** /***************************************
 169:Generated_Source\PSoC6\pdl\drivers/peripheral/gpio/cy_gpio.h **** *       Configuration Structures
 170:Generated_Source\PSoC6\pdl\drivers/peripheral/gpio/cy_gpio.h **** ***************************************/
 171:Generated_Source\PSoC6\pdl\drivers/peripheral/gpio/cy_gpio.h **** 
 172:Generated_Source\PSoC6\pdl\drivers/peripheral/gpio/cy_gpio.h **** /**
 173:Generated_Source\PSoC6\pdl\drivers/peripheral/gpio/cy_gpio.h **** * \addtogroup group_gpio_data_structures
 174:Generated_Source\PSoC6\pdl\drivers/peripheral/gpio/cy_gpio.h **** * \{
ARM GAS  C:\Users\User\AppData\Local\Temp\ccsn8eRz.s 			page 7


 175:Generated_Source\PSoC6\pdl\drivers/peripheral/gpio/cy_gpio.h **** */
 176:Generated_Source\PSoC6\pdl\drivers/peripheral/gpio/cy_gpio.h **** 
 177:Generated_Source\PSoC6\pdl\drivers/peripheral/gpio/cy_gpio.h **** /** This structure is used to initialize a port of GPIO pins */
 178:Generated_Source\PSoC6\pdl\drivers/peripheral/gpio/cy_gpio.h **** typedef struct {
 179:Generated_Source\PSoC6\pdl\drivers/peripheral/gpio/cy_gpio.h ****     uint32_t out;           /**< Initial output data for the IO pins in the port */
 180:Generated_Source\PSoC6\pdl\drivers/peripheral/gpio/cy_gpio.h ****     uint32_t intrMask;      /**< Interrupt enable mask for the port interrupt */
 181:Generated_Source\PSoC6\pdl\drivers/peripheral/gpio/cy_gpio.h ****     uint32_t intrCfg;       /**< Port pin interrupt edge detection configuration */
 182:Generated_Source\PSoC6\pdl\drivers/peripheral/gpio/cy_gpio.h ****     uint32_t cfg;           /**< Port pin drive modes and input buffer enable configuration */
 183:Generated_Source\PSoC6\pdl\drivers/peripheral/gpio/cy_gpio.h ****     uint32_t cfgIn;         /**< Port pin input buffer configuration */
 184:Generated_Source\PSoC6\pdl\drivers/peripheral/gpio/cy_gpio.h ****     uint32_t cfgOut;        /**< Port pin output buffer configuration */
 185:Generated_Source\PSoC6\pdl\drivers/peripheral/gpio/cy_gpio.h ****     uint32_t cfgSIO;        /**< Port SIO pins configuration */
 186:Generated_Source\PSoC6\pdl\drivers/peripheral/gpio/cy_gpio.h ****     uint32_t sel0Active;    /**< HSIOM selection for port pins 0,1,2,3 */
 187:Generated_Source\PSoC6\pdl\drivers/peripheral/gpio/cy_gpio.h ****     uint32_t sel1Active;    /**< HSIOM selection for port pins 4,5,6,7 */
 188:Generated_Source\PSoC6\pdl\drivers/peripheral/gpio/cy_gpio.h **** } cy_stc_gpio_prt_config_t;
 189:Generated_Source\PSoC6\pdl\drivers/peripheral/gpio/cy_gpio.h **** 
 190:Generated_Source\PSoC6\pdl\drivers/peripheral/gpio/cy_gpio.h **** /** This structure is used to initialize a single GPIO pin */
 191:Generated_Source\PSoC6\pdl\drivers/peripheral/gpio/cy_gpio.h **** typedef struct {
 192:Generated_Source\PSoC6\pdl\drivers/peripheral/gpio/cy_gpio.h ****     uint32_t outVal;         /**< Pin output state */
 193:Generated_Source\PSoC6\pdl\drivers/peripheral/gpio/cy_gpio.h ****     uint32_t driveMode;      /**< Drive mode */
 194:Generated_Source\PSoC6\pdl\drivers/peripheral/gpio/cy_gpio.h ****     en_hsiom_sel_t hsiom;   /**< HSIOM selection */
 195:Generated_Source\PSoC6\pdl\drivers/peripheral/gpio/cy_gpio.h ****     uint32_t intEdge;        /**< Interrupt Edge type */
 196:Generated_Source\PSoC6\pdl\drivers/peripheral/gpio/cy_gpio.h ****     uint32_t intMask;        /**< Interrupt enable mask */
 197:Generated_Source\PSoC6\pdl\drivers/peripheral/gpio/cy_gpio.h ****     uint32_t vtrip;          /**< Input buffer voltage trip type */
 198:Generated_Source\PSoC6\pdl\drivers/peripheral/gpio/cy_gpio.h ****     uint32_t slewRate;       /**< Output buffer slew rate */
 199:Generated_Source\PSoC6\pdl\drivers/peripheral/gpio/cy_gpio.h ****     uint32_t driveSel;       /**< Drive strength */
 200:Generated_Source\PSoC6\pdl\drivers/peripheral/gpio/cy_gpio.h ****     uint32_t vregEn;         /**< SIO pair output buffer mode */
 201:Generated_Source\PSoC6\pdl\drivers/peripheral/gpio/cy_gpio.h ****     uint32_t ibufMode;       /**< SIO pair input buffer mode */
 202:Generated_Source\PSoC6\pdl\drivers/peripheral/gpio/cy_gpio.h ****     uint32_t vtripSel;       /**< SIO pair input buffer trip point */
 203:Generated_Source\PSoC6\pdl\drivers/peripheral/gpio/cy_gpio.h ****     uint32_t vrefSel;        /**< SIO pair reference voltage for input buffer trip point */
 204:Generated_Source\PSoC6\pdl\drivers/peripheral/gpio/cy_gpio.h ****     uint32_t vohSel;         /**< SIO pair regulated voltage output level */
 205:Generated_Source\PSoC6\pdl\drivers/peripheral/gpio/cy_gpio.h **** } cy_stc_gpio_pin_config_t;
 206:Generated_Source\PSoC6\pdl\drivers/peripheral/gpio/cy_gpio.h **** 
 207:Generated_Source\PSoC6\pdl\drivers/peripheral/gpio/cy_gpio.h **** /** \} group_gpio_data_structures */
 208:Generated_Source\PSoC6\pdl\drivers/peripheral/gpio/cy_gpio.h **** 
 209:Generated_Source\PSoC6\pdl\drivers/peripheral/gpio/cy_gpio.h **** /***************************************
 210:Generated_Source\PSoC6\pdl\drivers/peripheral/gpio/cy_gpio.h **** *        Constants
 211:Generated_Source\PSoC6\pdl\drivers/peripheral/gpio/cy_gpio.h **** ***************************************/
 212:Generated_Source\PSoC6\pdl\drivers/peripheral/gpio/cy_gpio.h **** 
 213:Generated_Source\PSoC6\pdl\drivers/peripheral/gpio/cy_gpio.h **** /** \cond INTERNAL */
 214:Generated_Source\PSoC6\pdl\drivers/peripheral/gpio/cy_gpio.h **** 
 215:Generated_Source\PSoC6\pdl\drivers/peripheral/gpio/cy_gpio.h **** /* General Constants */
 216:Generated_Source\PSoC6\pdl\drivers/peripheral/gpio/cy_gpio.h **** #define CY_GPIO_PRT_HALF                       (4UL)      /**< Half-way point of a GPIO port */
 217:Generated_Source\PSoC6\pdl\drivers/peripheral/gpio/cy_gpio.h **** #define CY_GPIO_PRT_DEINIT                     (0UL)      /**< De-init value for port registers */
 218:Generated_Source\PSoC6\pdl\drivers/peripheral/gpio/cy_gpio.h **** 
 219:Generated_Source\PSoC6\pdl\drivers/peripheral/gpio/cy_gpio.h **** /* GPIO Masks */
 220:Generated_Source\PSoC6\pdl\drivers/peripheral/gpio/cy_gpio.h **** #define CY_GPIO_HSIOM_MASK                     (0x1FUL)   /**< HSIOM selection mask */
 221:Generated_Source\PSoC6\pdl\drivers/peripheral/gpio/cy_gpio.h **** #define CY_GPIO_OUT_MASK                       (0x01UL)   /**< Single pin mask for OUT register */
 222:Generated_Source\PSoC6\pdl\drivers/peripheral/gpio/cy_gpio.h **** #define CY_GPIO_IN_MASK                        (0x01UL)   /**< Single pin mask for IN register */
 223:Generated_Source\PSoC6\pdl\drivers/peripheral/gpio/cy_gpio.h **** #define CY_GPIO_CFG_DM_MASK                    (0x0FUL)   /**< Single pin mask for drive mode in CF
 224:Generated_Source\PSoC6\pdl\drivers/peripheral/gpio/cy_gpio.h **** #define CY_GPIO_CFG_IN_VTRIP_SEL_MASK          (0x01UL)   /**< Single pin mask for VTRIP selection 
 225:Generated_Source\PSoC6\pdl\drivers/peripheral/gpio/cy_gpio.h **** #define CY_GPIO_CFG_OUT_SLOW_MASK              (0x01UL)   /**< Single pin mask for slew rate in CFG
 226:Generated_Source\PSoC6\pdl\drivers/peripheral/gpio/cy_gpio.h **** #define CY_GPIO_CFG_OUT_DRIVE_SEL_MASK         (0x03UL)   /**< Single pin mask for drive strength i
 227:Generated_Source\PSoC6\pdl\drivers/peripheral/gpio/cy_gpio.h **** #define CY_GPIO_INTR_STATUS_MASK               (0x01UL)   /**< Single pin mask for interrupt status
 228:Generated_Source\PSoC6\pdl\drivers/peripheral/gpio/cy_gpio.h **** #define CY_GPIO_INTR_EN_MASK                   (0x01UL)   /**< Single pin mask for interrupt status
 229:Generated_Source\PSoC6\pdl\drivers/peripheral/gpio/cy_gpio.h **** #define CY_GPIO_INTR_MASKED_MASK               (0x01UL)   /**< Single pin mask for masked interrupt
 230:Generated_Source\PSoC6\pdl\drivers/peripheral/gpio/cy_gpio.h **** #define CY_GPIO_INTR_SET_MASK                  (0x01UL)   /**< Single pin mask for setting the inte
 231:Generated_Source\PSoC6\pdl\drivers/peripheral/gpio/cy_gpio.h **** #define CY_GPIO_INTR_EDGE_MASK                 (0x03UL)   /**< Single pin mask for interrupt edge t
ARM GAS  C:\Users\User\AppData\Local\Temp\ccsn8eRz.s 			page 8


 232:Generated_Source\PSoC6\pdl\drivers/peripheral/gpio/cy_gpio.h **** #define CY_GPIO_INTR_FLT_EDGE_MASK             (0x07UL)   /**< Single pin mask for setting filtered
 233:Generated_Source\PSoC6\pdl\drivers/peripheral/gpio/cy_gpio.h **** 
 234:Generated_Source\PSoC6\pdl\drivers/peripheral/gpio/cy_gpio.h **** /* SIO Masks */
 235:Generated_Source\PSoC6\pdl\drivers/peripheral/gpio/cy_gpio.h **** #define CY_GPIO_VREG_EN_MASK                   (0x01UL)   /**< Single SIO pin mask for voltage regu
 236:Generated_Source\PSoC6\pdl\drivers/peripheral/gpio/cy_gpio.h **** #define CY_GPIO_IBUF_MASK                      (0x01UL)   /**< Single SIO pin mask for input buffer
 237:Generated_Source\PSoC6\pdl\drivers/peripheral/gpio/cy_gpio.h **** #define CY_GPIO_IBUF_SHIFT                     (0x01UL)   /**< Single SIO pin shift for input buffe
 238:Generated_Source\PSoC6\pdl\drivers/peripheral/gpio/cy_gpio.h **** #define CY_GPIO_VTRIP_SEL_MASK                 (0x01UL)   /**< Single SIO pin mask for the input bu
 239:Generated_Source\PSoC6\pdl\drivers/peripheral/gpio/cy_gpio.h **** #define CY_GPIO_VTRIP_SEL_SHIFT                (0x02UL)   /**< Single SIO pin shift for the input b
 240:Generated_Source\PSoC6\pdl\drivers/peripheral/gpio/cy_gpio.h **** #define CY_GPIO_VREF_SEL_MASK                  (0x03UL)   /**< Single SIO pin mask for voltage refe
 241:Generated_Source\PSoC6\pdl\drivers/peripheral/gpio/cy_gpio.h **** #define CY_GPIO_VREF_SEL_SHIFT                 (0x03UL)   /**< Single SIO pin shift for voltage ref
 242:Generated_Source\PSoC6\pdl\drivers/peripheral/gpio/cy_gpio.h **** #define CY_GPIO_VOH_SEL_MASK                   (0x07UL)   /**< Single SIO pin mask for VOH */
 243:Generated_Source\PSoC6\pdl\drivers/peripheral/gpio/cy_gpio.h **** #define CY_GPIO_VOH_SEL_SHIFT                  (0x05UL)   /**< Single SIO pin shift for VOH */
 244:Generated_Source\PSoC6\pdl\drivers/peripheral/gpio/cy_gpio.h **** 
 245:Generated_Source\PSoC6\pdl\drivers/peripheral/gpio/cy_gpio.h **** /* Special mask for SIO pin pair setting */
 246:Generated_Source\PSoC6\pdl\drivers/peripheral/gpio/cy_gpio.h **** #define CY_GPIO_SIO_ODD_PIN_MASK               (0x00FEUL) /**< SIO pin pair selection mask */
 247:Generated_Source\PSoC6\pdl\drivers/peripheral/gpio/cy_gpio.h **** #define CY_GPIO_SIO_PIN_MASK                   (0x00FFUL) /**< SIO pin pair mask */
 248:Generated_Source\PSoC6\pdl\drivers/peripheral/gpio/cy_gpio.h **** 
 249:Generated_Source\PSoC6\pdl\drivers/peripheral/gpio/cy_gpio.h **** /* Offsets */
 250:Generated_Source\PSoC6\pdl\drivers/peripheral/gpio/cy_gpio.h **** #define CY_GPIO_HSIOM_OFFSET                   (3UL)      /**< Offset for HSIOM */
 251:Generated_Source\PSoC6\pdl\drivers/peripheral/gpio/cy_gpio.h **** #define CY_GPIO_DRIVE_MODE_OFFSET              (2UL)      /**< Offset for Drive mode */
 252:Generated_Source\PSoC6\pdl\drivers/peripheral/gpio/cy_gpio.h **** #define CY_GPIO_INBUF_OFFSET                   (3UL)      /**< Offset for input buffer */
 253:Generated_Source\PSoC6\pdl\drivers/peripheral/gpio/cy_gpio.h **** #define CY_GPIO_CFG_OUT_DRIVE_OFFSET           (16UL)     /**< Offset for drive strength */
 254:Generated_Source\PSoC6\pdl\drivers/peripheral/gpio/cy_gpio.h **** #define CY_GPIO_INTR_CFG_OFFSET                (1UL)      /**< Offset for interrupt config */
 255:Generated_Source\PSoC6\pdl\drivers/peripheral/gpio/cy_gpio.h **** #define CY_GPIO_INTR_FILT_OFFSET               (18UL)     /**< Offset for filtered interrupt config
 256:Generated_Source\PSoC6\pdl\drivers/peripheral/gpio/cy_gpio.h **** #define CY_GPIO_CFG_SIO_OFFSET                 (2UL)      /**< Offset for SIO config */
 257:Generated_Source\PSoC6\pdl\drivers/peripheral/gpio/cy_gpio.h **** 
 258:Generated_Source\PSoC6\pdl\drivers/peripheral/gpio/cy_gpio.h **** /* Parameter validation constants */
 259:Generated_Source\PSoC6\pdl\drivers/peripheral/gpio/cy_gpio.h **** #define CY_GPIO_PINS_MAX                       (8UL)      /**< Number of pins in the port */
 260:Generated_Source\PSoC6\pdl\drivers/peripheral/gpio/cy_gpio.h **** #define CY_GPIO_PRT_PINS_MASK                  (0x0000000FFUL)
 261:Generated_Source\PSoC6\pdl\drivers/peripheral/gpio/cy_gpio.h **** #define CY_GPIO_PRT_INTR_CFG_EDGE_SEL_MASK     (GPIO_PRT_INTR_CFG_EDGE0_SEL_Msk | \
 262:Generated_Source\PSoC6\pdl\drivers/peripheral/gpio/cy_gpio.h ****                                                 GPIO_PRT_INTR_CFG_EDGE1_SEL_Msk | \
 263:Generated_Source\PSoC6\pdl\drivers/peripheral/gpio/cy_gpio.h ****                                                 GPIO_PRT_INTR_CFG_EDGE2_SEL_Msk | \
 264:Generated_Source\PSoC6\pdl\drivers/peripheral/gpio/cy_gpio.h ****                                                 GPIO_PRT_INTR_CFG_EDGE3_SEL_Msk | \
 265:Generated_Source\PSoC6\pdl\drivers/peripheral/gpio/cy_gpio.h ****                                                 GPIO_PRT_INTR_CFG_EDGE4_SEL_Msk | \
 266:Generated_Source\PSoC6\pdl\drivers/peripheral/gpio/cy_gpio.h ****                                                 GPIO_PRT_INTR_CFG_EDGE5_SEL_Msk | \
 267:Generated_Source\PSoC6\pdl\drivers/peripheral/gpio/cy_gpio.h ****                                                 GPIO_PRT_INTR_CFG_EDGE6_SEL_Msk | \
 268:Generated_Source\PSoC6\pdl\drivers/peripheral/gpio/cy_gpio.h ****                                                 GPIO_PRT_INTR_CFG_EDGE7_SEL_Msk)            
 269:Generated_Source\PSoC6\pdl\drivers/peripheral/gpio/cy_gpio.h **** #define CY_GPIO_PRT_INTR_CFG_RANGE_MASK        (CY_GPIO_PRT_INTR_CFG_EDGE_SEL_MASK | \
 270:Generated_Source\PSoC6\pdl\drivers/peripheral/gpio/cy_gpio.h ****                                                 GPIO_PRT_INTR_CFG_FLT_EDGE_SEL_Msk | \
 271:Generated_Source\PSoC6\pdl\drivers/peripheral/gpio/cy_gpio.h ****                                                 GPIO_PRT_INTR_CFG_FLT_SEL_Msk)
 272:Generated_Source\PSoC6\pdl\drivers/peripheral/gpio/cy_gpio.h **** #define CY_GPIO_PRT_INT_MASK_MASK              (0x0000001FFUL)
 273:Generated_Source\PSoC6\pdl\drivers/peripheral/gpio/cy_gpio.h **** #define CY_GPIO_PRT_SEL_ACTIVE_MASK            (0x1FFFFFFFUL)
 274:Generated_Source\PSoC6\pdl\drivers/peripheral/gpio/cy_gpio.h **** 
 275:Generated_Source\PSoC6\pdl\drivers/peripheral/gpio/cy_gpio.h **** /* Parameter validation macros */
 276:Generated_Source\PSoC6\pdl\drivers/peripheral/gpio/cy_gpio.h **** #define CY_GPIO_IS_PIN_VALID(pinNum)           (CY_GPIO_PINS_MAX > (pinNum))
 277:Generated_Source\PSoC6\pdl\drivers/peripheral/gpio/cy_gpio.h **** #define CY_GPIO_IS_FILTER_PIN_VALID(pinNum)    (CY_GPIO_PINS_MAX >= (pinNum))
 278:Generated_Source\PSoC6\pdl\drivers/peripheral/gpio/cy_gpio.h **** #define CY_GPIO_IS_VALUE_VALID(outVal)         (1UL >= (outVal))
 279:Generated_Source\PSoC6\pdl\drivers/peripheral/gpio/cy_gpio.h **** #define CY_GPIO_IS_DM_VALID(driveMode)         (0U == ((driveMode) & (uint32_t)~CY_GPIO_CFG_DM_MASK
 280:Generated_Source\PSoC6\pdl\drivers/peripheral/gpio/cy_gpio.h **** 
 281:Generated_Source\PSoC6\pdl\drivers/peripheral/gpio/cy_gpio.h **** #define CY_GPIO_IS_HSIOM_VALID(hsiom)          (0U == ((hsiom) & (uint32_t)~CY_GPIO_HSIOM_MASK))
 282:Generated_Source\PSoC6\pdl\drivers/peripheral/gpio/cy_gpio.h **** 
 283:Generated_Source\PSoC6\pdl\drivers/peripheral/gpio/cy_gpio.h **** #define CY_GPIO_IS_INT_EDGE_VALID(intEdge)     ((CY_GPIO_INTR_DISABLE  == (intEdge)) || \
 284:Generated_Source\PSoC6\pdl\drivers/peripheral/gpio/cy_gpio.h ****                                                 (CY_GPIO_INTR_RISING   == (intEdge)) || \
 285:Generated_Source\PSoC6\pdl\drivers/peripheral/gpio/cy_gpio.h ****                                                 (CY_GPIO_INTR_FALLING  == (intEdge)) || \
 286:Generated_Source\PSoC6\pdl\drivers/peripheral/gpio/cy_gpio.h ****                                                 (CY_GPIO_INTR_BOTH     == (intEdge)))
 287:Generated_Source\PSoC6\pdl\drivers/peripheral/gpio/cy_gpio.h **** 
 288:Generated_Source\PSoC6\pdl\drivers/peripheral/gpio/cy_gpio.h **** #define CY_GPIO_IS_DRIVE_SEL_VALID(driveSel)   ((CY_GPIO_DRIVE_FULL    == (driveSel)) || \
ARM GAS  C:\Users\User\AppData\Local\Temp\ccsn8eRz.s 			page 9


 289:Generated_Source\PSoC6\pdl\drivers/peripheral/gpio/cy_gpio.h ****                                                 (CY_GPIO_DRIVE_1_2     == (driveSel)) || \
 290:Generated_Source\PSoC6\pdl\drivers/peripheral/gpio/cy_gpio.h ****                                                 (CY_GPIO_DRIVE_1_4     == (driveSel)) || \
 291:Generated_Source\PSoC6\pdl\drivers/peripheral/gpio/cy_gpio.h ****                                                 (CY_GPIO_DRIVE_1_8     == (driveSel)))
 292:Generated_Source\PSoC6\pdl\drivers/peripheral/gpio/cy_gpio.h **** 
 293:Generated_Source\PSoC6\pdl\drivers/peripheral/gpio/cy_gpio.h **** #define CY_GPIO_IS_VREF_SEL_VALID(vrefSel)     ((CY_SIO_VREF_PINREF    == (vrefSel)) || \
 294:Generated_Source\PSoC6\pdl\drivers/peripheral/gpio/cy_gpio.h ****                                                 (CY_SIO_VREF_1_2V      == (vrefSel)) || \
 295:Generated_Source\PSoC6\pdl\drivers/peripheral/gpio/cy_gpio.h ****                                                 (CY_SIO_VREF_AMUX_A    == (vrefSel)) || \
 296:Generated_Source\PSoC6\pdl\drivers/peripheral/gpio/cy_gpio.h ****                                                 (CY_SIO_VREF_AMUX_B    == (vrefSel)))
 297:Generated_Source\PSoC6\pdl\drivers/peripheral/gpio/cy_gpio.h **** 
 298:Generated_Source\PSoC6\pdl\drivers/peripheral/gpio/cy_gpio.h **** #define CY_GPIO_IS_VOH_SEL_VALID(vrefSel)      ((CY_SIO_VOH_1_00       == (vrefSel)) || \
 299:Generated_Source\PSoC6\pdl\drivers/peripheral/gpio/cy_gpio.h ****                                                 (CY_SIO_VOH_1_25       == (vrefSel)) || \
 300:Generated_Source\PSoC6\pdl\drivers/peripheral/gpio/cy_gpio.h ****                                                 (CY_SIO_VOH_1_49       == (vrefSel)) || \
 301:Generated_Source\PSoC6\pdl\drivers/peripheral/gpio/cy_gpio.h ****                                                 (CY_SIO_VOH_1_67       == (vrefSel)) || \
 302:Generated_Source\PSoC6\pdl\drivers/peripheral/gpio/cy_gpio.h ****                                                 (CY_SIO_VOH_2_08       == (vrefSel)) || \
 303:Generated_Source\PSoC6\pdl\drivers/peripheral/gpio/cy_gpio.h ****                                                 (CY_SIO_VOH_2_50       == (vrefSel)) || \
 304:Generated_Source\PSoC6\pdl\drivers/peripheral/gpio/cy_gpio.h ****                                                 (CY_SIO_VOH_2_78       == (vrefSel)) || \
 305:Generated_Source\PSoC6\pdl\drivers/peripheral/gpio/cy_gpio.h ****                                                 (CY_SIO_VOH_4_16       == (vrefSel)))
 306:Generated_Source\PSoC6\pdl\drivers/peripheral/gpio/cy_gpio.h ****                    
 307:Generated_Source\PSoC6\pdl\drivers/peripheral/gpio/cy_gpio.h **** #define CY_GPIO_IS_PIN_BIT_VALID(pinBit)       (0U == ((pinBit) & (uint32_t)~CY_GPIO_PRT_PINS_MASK)
 308:Generated_Source\PSoC6\pdl\drivers/peripheral/gpio/cy_gpio.h **** #define CY_GPIO_IS_INTR_CFG_VALID(intrCfg)     (0U == ((intrCfg) & (uint32_t)~CY_GPIO_PRT_INTR_CFG_
 309:Generated_Source\PSoC6\pdl\drivers/peripheral/gpio/cy_gpio.h **** #define CY_GPIO_IS_INTR_MASK_VALID(intrMask)   (0U == ((intrMask) & (uint32_t)~CY_GPIO_PRT_INT_MASK
 310:Generated_Source\PSoC6\pdl\drivers/peripheral/gpio/cy_gpio.h **** #define CY_GPIO_IS_SEL_ACT_VALID(selActive)    (0U == ((selActive) & (uint32_t)~CY_GPIO_PRT_SEL_ACT
 311:Generated_Source\PSoC6\pdl\drivers/peripheral/gpio/cy_gpio.h **** 
 312:Generated_Source\PSoC6\pdl\drivers/peripheral/gpio/cy_gpio.h **** /** \endcond */
 313:Generated_Source\PSoC6\pdl\drivers/peripheral/gpio/cy_gpio.h **** 
 314:Generated_Source\PSoC6\pdl\drivers/peripheral/gpio/cy_gpio.h **** 
 315:Generated_Source\PSoC6\pdl\drivers/peripheral/gpio/cy_gpio.h **** /***************************************
 316:Generated_Source\PSoC6\pdl\drivers/peripheral/gpio/cy_gpio.h **** *        Function Constants
 317:Generated_Source\PSoC6\pdl\drivers/peripheral/gpio/cy_gpio.h **** ***************************************/
 318:Generated_Source\PSoC6\pdl\drivers/peripheral/gpio/cy_gpio.h **** 
 319:Generated_Source\PSoC6\pdl\drivers/peripheral/gpio/cy_gpio.h **** /**
 320:Generated_Source\PSoC6\pdl\drivers/peripheral/gpio/cy_gpio.h **** * \addtogroup group_gpio_macros
 321:Generated_Source\PSoC6\pdl\drivers/peripheral/gpio/cy_gpio.h **** * \{
 322:Generated_Source\PSoC6\pdl\drivers/peripheral/gpio/cy_gpio.h **** */
 323:Generated_Source\PSoC6\pdl\drivers/peripheral/gpio/cy_gpio.h **** 
 324:Generated_Source\PSoC6\pdl\drivers/peripheral/gpio/cy_gpio.h **** /**
 325:Generated_Source\PSoC6\pdl\drivers/peripheral/gpio/cy_gpio.h **** * \defgroup group_gpio_driveModes Pin drive mode
 326:Generated_Source\PSoC6\pdl\drivers/peripheral/gpio/cy_gpio.h **** * \{
 327:Generated_Source\PSoC6\pdl\drivers/peripheral/gpio/cy_gpio.h **** * Constants to be used for setting the drive mode of the pin.
 328:Generated_Source\PSoC6\pdl\drivers/peripheral/gpio/cy_gpio.h **** */
 329:Generated_Source\PSoC6\pdl\drivers/peripheral/gpio/cy_gpio.h **** #define CY_GPIO_DM_ANALOG                      (0x00UL) /**< \brief Analog High-Z. Input buffer off
 330:Generated_Source\PSoC6\pdl\drivers/peripheral/gpio/cy_gpio.h **** #define CY_GPIO_DM_PULLUP_IN_OFF               (0x02UL) /**< \brief Resistive Pull-Up. Input buffer
 331:Generated_Source\PSoC6\pdl\drivers/peripheral/gpio/cy_gpio.h **** #define CY_GPIO_DM_PULLDOWN_IN_OFF             (0x03UL) /**< \brief Resistive Pull-Down. Input buff
 332:Generated_Source\PSoC6\pdl\drivers/peripheral/gpio/cy_gpio.h **** #define CY_GPIO_DM_OD_DRIVESLOW_IN_OFF         (0x04UL) /**< \brief Open Drain, Drives Low. Input b
 333:Generated_Source\PSoC6\pdl\drivers/peripheral/gpio/cy_gpio.h **** #define CY_GPIO_DM_OD_DRIVESHIGH_IN_OFF        (0x05UL) /**< \brief Open Drain, Drives High. Input 
 334:Generated_Source\PSoC6\pdl\drivers/peripheral/gpio/cy_gpio.h **** #define CY_GPIO_DM_STRONG_IN_OFF               (0x06UL) /**< \brief Strong Drive. Input buffer off 
 335:Generated_Source\PSoC6\pdl\drivers/peripheral/gpio/cy_gpio.h **** #define CY_GPIO_DM_PULLUP_DOWN_IN_OFF          (0x07UL) /**< \brief Resistive Pull-Up/Down. Input b
 336:Generated_Source\PSoC6\pdl\drivers/peripheral/gpio/cy_gpio.h **** #define CY_GPIO_DM_HIGHZ                       (0x08UL) /**< \brief Digital High-Z. Input buffer on
 337:Generated_Source\PSoC6\pdl\drivers/peripheral/gpio/cy_gpio.h **** #define CY_GPIO_DM_PULLUP                      (0x0AUL) /**< \brief Resistive Pull-Up. Input buffer
 338:Generated_Source\PSoC6\pdl\drivers/peripheral/gpio/cy_gpio.h **** #define CY_GPIO_DM_PULLDOWN                    (0x0BUL) /**< \brief Resistive Pull-Down. Input buff
 339:Generated_Source\PSoC6\pdl\drivers/peripheral/gpio/cy_gpio.h **** #define CY_GPIO_DM_OD_DRIVESLOW                (0x0CUL) /**< \brief Open Drain, Drives Low. Input b
 340:Generated_Source\PSoC6\pdl\drivers/peripheral/gpio/cy_gpio.h **** #define CY_GPIO_DM_OD_DRIVESHIGH               (0x0DUL) /**< \brief Open Drain, Drives High. Input 
 341:Generated_Source\PSoC6\pdl\drivers/peripheral/gpio/cy_gpio.h **** #define CY_GPIO_DM_STRONG                      (0x0EUL) /**< \brief Strong Drive. Input buffer on *
 342:Generated_Source\PSoC6\pdl\drivers/peripheral/gpio/cy_gpio.h **** #define CY_GPIO_DM_PULLUP_DOWN                 (0x0FUL) /**< \brief Resistive Pull-Up/Down. Input b
 343:Generated_Source\PSoC6\pdl\drivers/peripheral/gpio/cy_gpio.h **** /** \} */
 344:Generated_Source\PSoC6\pdl\drivers/peripheral/gpio/cy_gpio.h **** 
 345:Generated_Source\PSoC6\pdl\drivers/peripheral/gpio/cy_gpio.h **** /**
ARM GAS  C:\Users\User\AppData\Local\Temp\ccsn8eRz.s 			page 10


 346:Generated_Source\PSoC6\pdl\drivers/peripheral/gpio/cy_gpio.h **** * \defgroup group_gpio_vtrip Voltage trip mode
 347:Generated_Source\PSoC6\pdl\drivers/peripheral/gpio/cy_gpio.h **** * \{
 348:Generated_Source\PSoC6\pdl\drivers/peripheral/gpio/cy_gpio.h **** * Constants to be used for setting the voltage trip type on the pin.
 349:Generated_Source\PSoC6\pdl\drivers/peripheral/gpio/cy_gpio.h **** */
 350:Generated_Source\PSoC6\pdl\drivers/peripheral/gpio/cy_gpio.h **** #define CY_GPIO_VTRIP_CMOS                     (0x00UL) /**< \brief Input buffer compatible with CM
 351:Generated_Source\PSoC6\pdl\drivers/peripheral/gpio/cy_gpio.h **** #define CY_GPIO_VTRIP_TTL                      (0x01UL) /**< \brief Input buffer compatible with TT
 352:Generated_Source\PSoC6\pdl\drivers/peripheral/gpio/cy_gpio.h **** /** \} */
 353:Generated_Source\PSoC6\pdl\drivers/peripheral/gpio/cy_gpio.h **** 
 354:Generated_Source\PSoC6\pdl\drivers/peripheral/gpio/cy_gpio.h **** /**
 355:Generated_Source\PSoC6\pdl\drivers/peripheral/gpio/cy_gpio.h **** * \defgroup group_gpio_slewRate Slew Rate Mode
 356:Generated_Source\PSoC6\pdl\drivers/peripheral/gpio/cy_gpio.h **** * \{
 357:Generated_Source\PSoC6\pdl\drivers/peripheral/gpio/cy_gpio.h **** * Constants to be used for setting the slew rate of the pin.
 358:Generated_Source\PSoC6\pdl\drivers/peripheral/gpio/cy_gpio.h **** */
 359:Generated_Source\PSoC6\pdl\drivers/peripheral/gpio/cy_gpio.h **** #define CY_GPIO_SLEW_FAST                      (0x00UL) /**< \brief Fast slew rate */
 360:Generated_Source\PSoC6\pdl\drivers/peripheral/gpio/cy_gpio.h **** #define CY_GPIO_SLEW_SLOW                      (0x01UL) /**< \brief Slow slew rate */
 361:Generated_Source\PSoC6\pdl\drivers/peripheral/gpio/cy_gpio.h **** /** \} */
 362:Generated_Source\PSoC6\pdl\drivers/peripheral/gpio/cy_gpio.h **** 
 363:Generated_Source\PSoC6\pdl\drivers/peripheral/gpio/cy_gpio.h **** /**
 364:Generated_Source\PSoC6\pdl\drivers/peripheral/gpio/cy_gpio.h **** * \defgroup group_gpio_driveStrength Pin drive strength
 365:Generated_Source\PSoC6\pdl\drivers/peripheral/gpio/cy_gpio.h **** * \{
 366:Generated_Source\PSoC6\pdl\drivers/peripheral/gpio/cy_gpio.h **** * Constants to be used for setting the drive strength of the pin.
 367:Generated_Source\PSoC6\pdl\drivers/peripheral/gpio/cy_gpio.h **** */
 368:Generated_Source\PSoC6\pdl\drivers/peripheral/gpio/cy_gpio.h **** #define CY_GPIO_DRIVE_FULL                     (0x00UL) /**< \brief Full drive strength: Max drive 
 369:Generated_Source\PSoC6\pdl\drivers/peripheral/gpio/cy_gpio.h **** #define CY_GPIO_DRIVE_1_2                      (0x01UL) /**< \brief 1/2 drive strength: 1/2 drive c
 370:Generated_Source\PSoC6\pdl\drivers/peripheral/gpio/cy_gpio.h **** #define CY_GPIO_DRIVE_1_4                      (0x02UL) /**< \brief 1/4 drive strength: 1/4 drive c
 371:Generated_Source\PSoC6\pdl\drivers/peripheral/gpio/cy_gpio.h **** #define CY_GPIO_DRIVE_1_8                      (0x03UL) /**< \brief 1/8 drive strength: 1/8 drive c
 372:Generated_Source\PSoC6\pdl\drivers/peripheral/gpio/cy_gpio.h **** /** \} */
 373:Generated_Source\PSoC6\pdl\drivers/peripheral/gpio/cy_gpio.h **** 
 374:Generated_Source\PSoC6\pdl\drivers/peripheral/gpio/cy_gpio.h **** /**
 375:Generated_Source\PSoC6\pdl\drivers/peripheral/gpio/cy_gpio.h **** * \defgroup group_gpio_interruptTrigger Interrupt trigger type
 376:Generated_Source\PSoC6\pdl\drivers/peripheral/gpio/cy_gpio.h **** * \{
 377:Generated_Source\PSoC6\pdl\drivers/peripheral/gpio/cy_gpio.h **** * Constants to be used for setting the interrupt trigger type on the pin.
 378:Generated_Source\PSoC6\pdl\drivers/peripheral/gpio/cy_gpio.h **** */
 379:Generated_Source\PSoC6\pdl\drivers/peripheral/gpio/cy_gpio.h **** #define CY_GPIO_INTR_DISABLE                   (0x00UL) /**< \brief Disable the pin interrupt gener
 380:Generated_Source\PSoC6\pdl\drivers/peripheral/gpio/cy_gpio.h **** #define CY_GPIO_INTR_RISING                    (0x01UL) /**< \brief Rising-Edge interrupt */
 381:Generated_Source\PSoC6\pdl\drivers/peripheral/gpio/cy_gpio.h **** #define CY_GPIO_INTR_FALLING                   (0x02UL) /**< \brief Falling-Edge interrupt */
 382:Generated_Source\PSoC6\pdl\drivers/peripheral/gpio/cy_gpio.h **** #define CY_GPIO_INTR_BOTH                      (0x03UL) /**< \brief Both-Edge interrupt */
 383:Generated_Source\PSoC6\pdl\drivers/peripheral/gpio/cy_gpio.h **** /** \} */
 384:Generated_Source\PSoC6\pdl\drivers/peripheral/gpio/cy_gpio.h **** 
 385:Generated_Source\PSoC6\pdl\drivers/peripheral/gpio/cy_gpio.h **** /**
 386:Generated_Source\PSoC6\pdl\drivers/peripheral/gpio/cy_gpio.h **** * \defgroup group_gpio_sioVreg SIO output buffer mode
 387:Generated_Source\PSoC6\pdl\drivers/peripheral/gpio/cy_gpio.h **** * \{
 388:Generated_Source\PSoC6\pdl\drivers/peripheral/gpio/cy_gpio.h **** * Constants to be used for setting the SIO output buffer mode on the pin.
 389:Generated_Source\PSoC6\pdl\drivers/peripheral/gpio/cy_gpio.h **** */
 390:Generated_Source\PSoC6\pdl\drivers/peripheral/gpio/cy_gpio.h **** #define CY_SIO_VREG_UNREGULATED                (0x00UL) /**< \brief Unregulated output buffer */
 391:Generated_Source\PSoC6\pdl\drivers/peripheral/gpio/cy_gpio.h **** #define CY_SIO_VREG_REGULATED                  (0x01UL) /**< \brief Regulated output buffer */
 392:Generated_Source\PSoC6\pdl\drivers/peripheral/gpio/cy_gpio.h **** /** \} */
 393:Generated_Source\PSoC6\pdl\drivers/peripheral/gpio/cy_gpio.h **** 
 394:Generated_Source\PSoC6\pdl\drivers/peripheral/gpio/cy_gpio.h **** /**
 395:Generated_Source\PSoC6\pdl\drivers/peripheral/gpio/cy_gpio.h **** * \defgroup group_gpio_sioIbuf SIO input buffer mode
 396:Generated_Source\PSoC6\pdl\drivers/peripheral/gpio/cy_gpio.h **** * \{
 397:Generated_Source\PSoC6\pdl\drivers/peripheral/gpio/cy_gpio.h **** * Constants to be used for setting the SIO input buffer mode on the pin.
 398:Generated_Source\PSoC6\pdl\drivers/peripheral/gpio/cy_gpio.h **** */
 399:Generated_Source\PSoC6\pdl\drivers/peripheral/gpio/cy_gpio.h **** #define CY_SIO_IBUF_SINGLEENDED                (0x00UL) /**< \brief Single ended input buffer */
 400:Generated_Source\PSoC6\pdl\drivers/peripheral/gpio/cy_gpio.h **** #define CY_SIO_IBUF_DIFFERENTIAL               (0x01UL) /**< \brief Differential input buffer */
 401:Generated_Source\PSoC6\pdl\drivers/peripheral/gpio/cy_gpio.h **** /** \} */
 402:Generated_Source\PSoC6\pdl\drivers/peripheral/gpio/cy_gpio.h **** 
ARM GAS  C:\Users\User\AppData\Local\Temp\ccsn8eRz.s 			page 11


 403:Generated_Source\PSoC6\pdl\drivers/peripheral/gpio/cy_gpio.h **** /**
 404:Generated_Source\PSoC6\pdl\drivers/peripheral/gpio/cy_gpio.h **** * \defgroup group_gpio_sioVtrip SIO input buffer trip-point
 405:Generated_Source\PSoC6\pdl\drivers/peripheral/gpio/cy_gpio.h **** * \{
 406:Generated_Source\PSoC6\pdl\drivers/peripheral/gpio/cy_gpio.h **** * Constants to be used for setting the SIO input buffer trip-point of the pin.
 407:Generated_Source\PSoC6\pdl\drivers/peripheral/gpio/cy_gpio.h **** */
 408:Generated_Source\PSoC6\pdl\drivers/peripheral/gpio/cy_gpio.h **** #define CY_SIO_VTRIP_CMOS                      (0x00UL) /**< \brief CMOS input buffer (single-ended
 409:Generated_Source\PSoC6\pdl\drivers/peripheral/gpio/cy_gpio.h **** #define CY_SIO_VTRIP_TTL                       (0x01UL) /**< \brief TTL input buffer (single-ended)
 410:Generated_Source\PSoC6\pdl\drivers/peripheral/gpio/cy_gpio.h **** #define CY_SIO_VTRIP_0_5VDDIO_0_5VOH           (0x00UL) /**< \brief 0.5xVddio or 0.5xVoh (different
 411:Generated_Source\PSoC6\pdl\drivers/peripheral/gpio/cy_gpio.h **** #define CY_SIO_VTRIP_0_4VDDIO_1_0VREF          (0x01UL) /**< \brief 0.4xVddio or 0.4xVoh (different
 412:Generated_Source\PSoC6\pdl\drivers/peripheral/gpio/cy_gpio.h **** /** \} */
 413:Generated_Source\PSoC6\pdl\drivers/peripheral/gpio/cy_gpio.h **** 
 414:Generated_Source\PSoC6\pdl\drivers/peripheral/gpio/cy_gpio.h **** /**
 415:Generated_Source\PSoC6\pdl\drivers/peripheral/gpio/cy_gpio.h **** * \defgroup group_gpio_sioVref SIO reference voltage for input buffer trip-point
 416:Generated_Source\PSoC6\pdl\drivers/peripheral/gpio/cy_gpio.h **** * \{
 417:Generated_Source\PSoC6\pdl\drivers/peripheral/gpio/cy_gpio.h **** * Constants to be used for setting the reference voltage of SIO input buffer trip-point.
 418:Generated_Source\PSoC6\pdl\drivers/peripheral/gpio/cy_gpio.h **** */
 419:Generated_Source\PSoC6\pdl\drivers/peripheral/gpio/cy_gpio.h **** #define CY_SIO_VREF_PINREF                     (0x00UL) /**< \brief Vref from analog pin */
 420:Generated_Source\PSoC6\pdl\drivers/peripheral/gpio/cy_gpio.h **** #define CY_SIO_VREF_1_2V                       (0x01UL) /**< \brief Vref from internal 1.2V referen
 421:Generated_Source\PSoC6\pdl\drivers/peripheral/gpio/cy_gpio.h **** #define CY_SIO_VREF_AMUX_A                     (0x02UL) /**< \brief Vref from AMUXBUS_A */
 422:Generated_Source\PSoC6\pdl\drivers/peripheral/gpio/cy_gpio.h **** #define CY_SIO_VREF_AMUX_B                     (0x03UL) /**< \brief Vref from AMUXBUS_B */
 423:Generated_Source\PSoC6\pdl\drivers/peripheral/gpio/cy_gpio.h **** /** \} */
 424:Generated_Source\PSoC6\pdl\drivers/peripheral/gpio/cy_gpio.h **** 
 425:Generated_Source\PSoC6\pdl\drivers/peripheral/gpio/cy_gpio.h **** /**
 426:Generated_Source\PSoC6\pdl\drivers/peripheral/gpio/cy_gpio.h **** * \defgroup group_gpio_sioVoh Regulated output voltage level (Voh) and input buffer trip-point of a
 427:Generated_Source\PSoC6\pdl\drivers/peripheral/gpio/cy_gpio.h **** * \{
 428:Generated_Source\PSoC6\pdl\drivers/peripheral/gpio/cy_gpio.h **** * Constants to be used for setting the Voh and input buffer trip-point of an SIO pair
 429:Generated_Source\PSoC6\pdl\drivers/peripheral/gpio/cy_gpio.h **** */
 430:Generated_Source\PSoC6\pdl\drivers/peripheral/gpio/cy_gpio.h **** #define CY_SIO_VOH_1_00                        (0x00UL) /**< \brief Voh = 1 x Reference */
 431:Generated_Source\PSoC6\pdl\drivers/peripheral/gpio/cy_gpio.h **** #define CY_SIO_VOH_1_25                        (0x01UL) /**< \brief Voh = 1.25 x Reference */
 432:Generated_Source\PSoC6\pdl\drivers/peripheral/gpio/cy_gpio.h **** #define CY_SIO_VOH_1_49                        (0x02UL) /**< \brief Voh = 1.49 x Reference */
 433:Generated_Source\PSoC6\pdl\drivers/peripheral/gpio/cy_gpio.h **** #define CY_SIO_VOH_1_67                        (0x03UL) /**< \brief Voh = 1.67 x Reference */
 434:Generated_Source\PSoC6\pdl\drivers/peripheral/gpio/cy_gpio.h **** #define CY_SIO_VOH_2_08                        (0x04UL) /**< \brief Voh = 2.08 x Reference */
 435:Generated_Source\PSoC6\pdl\drivers/peripheral/gpio/cy_gpio.h **** #define CY_SIO_VOH_2_50                        (0x05UL) /**< \brief Voh = 2.50 x Reference */
 436:Generated_Source\PSoC6\pdl\drivers/peripheral/gpio/cy_gpio.h **** #define CY_SIO_VOH_2_78                        (0x06UL) /**< \brief Voh = 2.78 x Reference */
 437:Generated_Source\PSoC6\pdl\drivers/peripheral/gpio/cy_gpio.h **** #define CY_SIO_VOH_4_16                        (0x07UL) /**< \brief Voh = 4.16 x Reference */
 438:Generated_Source\PSoC6\pdl\drivers/peripheral/gpio/cy_gpio.h **** /** \} */
 439:Generated_Source\PSoC6\pdl\drivers/peripheral/gpio/cy_gpio.h **** 
 440:Generated_Source\PSoC6\pdl\drivers/peripheral/gpio/cy_gpio.h **** /** \} group_gpio_macros */
 441:Generated_Source\PSoC6\pdl\drivers/peripheral/gpio/cy_gpio.h **** 
 442:Generated_Source\PSoC6\pdl\drivers/peripheral/gpio/cy_gpio.h **** /***************************************
 443:Generated_Source\PSoC6\pdl\drivers/peripheral/gpio/cy_gpio.h **** *        Function Prototypes
 444:Generated_Source\PSoC6\pdl\drivers/peripheral/gpio/cy_gpio.h **** ***************************************/
 445:Generated_Source\PSoC6\pdl\drivers/peripheral/gpio/cy_gpio.h **** 
 446:Generated_Source\PSoC6\pdl\drivers/peripheral/gpio/cy_gpio.h **** /**
 447:Generated_Source\PSoC6\pdl\drivers/peripheral/gpio/cy_gpio.h **** * \addtogroup group_gpio_functions
 448:Generated_Source\PSoC6\pdl\drivers/peripheral/gpio/cy_gpio.h **** * \{
 449:Generated_Source\PSoC6\pdl\drivers/peripheral/gpio/cy_gpio.h **** */
 450:Generated_Source\PSoC6\pdl\drivers/peripheral/gpio/cy_gpio.h **** 
 451:Generated_Source\PSoC6\pdl\drivers/peripheral/gpio/cy_gpio.h **** /**
 452:Generated_Source\PSoC6\pdl\drivers/peripheral/gpio/cy_gpio.h **** * \addtogroup group_gpio_functions_init
 453:Generated_Source\PSoC6\pdl\drivers/peripheral/gpio/cy_gpio.h **** * \{
 454:Generated_Source\PSoC6\pdl\drivers/peripheral/gpio/cy_gpio.h **** */
 455:Generated_Source\PSoC6\pdl\drivers/peripheral/gpio/cy_gpio.h **** 
 456:Generated_Source\PSoC6\pdl\drivers/peripheral/gpio/cy_gpio.h **** cy_en_gpio_status_t Cy_GPIO_Pin_Init(GPIO_PRT_Type* base, uint32_t pinNum, const cy_stc_gpio_pin_co
 457:Generated_Source\PSoC6\pdl\drivers/peripheral/gpio/cy_gpio.h **** cy_en_gpio_status_t Cy_GPIO_Port_Init(GPIO_PRT_Type* base, const cy_stc_gpio_prt_config_t *config);
 458:Generated_Source\PSoC6\pdl\drivers/peripheral/gpio/cy_gpio.h **** void Cy_GPIO_Pin_FastInit(GPIO_PRT_Type* base, uint32_t pinNum, uint32_t driveMode, uint32_t outVal
 459:Generated_Source\PSoC6\pdl\drivers/peripheral/gpio/cy_gpio.h **** void Cy_GPIO_Port_Deinit(GPIO_PRT_Type* base);
ARM GAS  C:\Users\User\AppData\Local\Temp\ccsn8eRz.s 			page 12


 460:Generated_Source\PSoC6\pdl\drivers/peripheral/gpio/cy_gpio.h **** __STATIC_INLINE void Cy_GPIO_SetHSIOM(GPIO_PRT_Type* base, uint32_t pinNum, en_hsiom_sel_t value);
 461:Generated_Source\PSoC6\pdl\drivers/peripheral/gpio/cy_gpio.h **** __STATIC_INLINE en_hsiom_sel_t Cy_GPIO_GetHSIOM(GPIO_PRT_Type* base, uint32_t pinNum);
 462:Generated_Source\PSoC6\pdl\drivers/peripheral/gpio/cy_gpio.h **** __STATIC_INLINE GPIO_PRT_Type* Cy_GPIO_PortToAddr(uint32_t portNum);
 463:Generated_Source\PSoC6\pdl\drivers/peripheral/gpio/cy_gpio.h **** 
 464:Generated_Source\PSoC6\pdl\drivers/peripheral/gpio/cy_gpio.h **** /** \} group_gpio_functions_init */
 465:Generated_Source\PSoC6\pdl\drivers/peripheral/gpio/cy_gpio.h **** 
 466:Generated_Source\PSoC6\pdl\drivers/peripheral/gpio/cy_gpio.h **** /**
 467:Generated_Source\PSoC6\pdl\drivers/peripheral/gpio/cy_gpio.h **** * \addtogroup group_gpio_functions_gpio
 468:Generated_Source\PSoC6\pdl\drivers/peripheral/gpio/cy_gpio.h **** * \{
 469:Generated_Source\PSoC6\pdl\drivers/peripheral/gpio/cy_gpio.h **** */
 470:Generated_Source\PSoC6\pdl\drivers/peripheral/gpio/cy_gpio.h **** 
 471:Generated_Source\PSoC6\pdl\drivers/peripheral/gpio/cy_gpio.h **** __STATIC_INLINE uint32_t Cy_GPIO_Read(GPIO_PRT_Type* base, uint32_t pinNum);
 472:Generated_Source\PSoC6\pdl\drivers/peripheral/gpio/cy_gpio.h **** __STATIC_INLINE void Cy_GPIO_Write(GPIO_PRT_Type* base, uint32_t pinNum, uint32_t value);
 473:Generated_Source\PSoC6\pdl\drivers/peripheral/gpio/cy_gpio.h **** __STATIC_INLINE uint32_t Cy_GPIO_ReadOut(GPIO_PRT_Type* base, uint32_t pinNum);
 474:Generated_Source\PSoC6\pdl\drivers/peripheral/gpio/cy_gpio.h **** __STATIC_INLINE void Cy_GPIO_Set(GPIO_PRT_Type* base, uint32_t pinNum);
 475:Generated_Source\PSoC6\pdl\drivers/peripheral/gpio/cy_gpio.h **** __STATIC_INLINE void Cy_GPIO_Clr(GPIO_PRT_Type* base, uint32_t pinNum);
 476:Generated_Source\PSoC6\pdl\drivers/peripheral/gpio/cy_gpio.h **** __STATIC_INLINE void Cy_GPIO_Inv(GPIO_PRT_Type* base, uint32_t pinNum);
 477:Generated_Source\PSoC6\pdl\drivers/peripheral/gpio/cy_gpio.h **** __STATIC_INLINE void Cy_GPIO_SetDrivemode(GPIO_PRT_Type* base, uint32_t pinNum, uint32_t value);
 478:Generated_Source\PSoC6\pdl\drivers/peripheral/gpio/cy_gpio.h **** __STATIC_INLINE uint32_t Cy_GPIO_GetDrivemode(GPIO_PRT_Type* base, uint32_t pinNum);
 479:Generated_Source\PSoC6\pdl\drivers/peripheral/gpio/cy_gpio.h **** __STATIC_INLINE void Cy_GPIO_SetVtrip(GPIO_PRT_Type* base, uint32_t pinNum, uint32_t value);
 480:Generated_Source\PSoC6\pdl\drivers/peripheral/gpio/cy_gpio.h **** __STATIC_INLINE uint32_t Cy_GPIO_GetVtrip(GPIO_PRT_Type* base, uint32_t pinNum);
 481:Generated_Source\PSoC6\pdl\drivers/peripheral/gpio/cy_gpio.h **** __STATIC_INLINE void Cy_GPIO_SetSlewRate(GPIO_PRT_Type* base, uint32_t pinNum, uint32_t value);
 482:Generated_Source\PSoC6\pdl\drivers/peripheral/gpio/cy_gpio.h **** __STATIC_INLINE uint32_t Cy_GPIO_GetSlewRate(GPIO_PRT_Type* base, uint32_t pinNum);
 483:Generated_Source\PSoC6\pdl\drivers/peripheral/gpio/cy_gpio.h **** __STATIC_INLINE void Cy_GPIO_SetDriveSel(GPIO_PRT_Type* base, uint32_t pinNum, uint32_t value);
 484:Generated_Source\PSoC6\pdl\drivers/peripheral/gpio/cy_gpio.h **** __STATIC_INLINE uint32_t Cy_GPIO_GetDriveSel(GPIO_PRT_Type* base, uint32_t pinNum);
 485:Generated_Source\PSoC6\pdl\drivers/peripheral/gpio/cy_gpio.h **** 
 486:Generated_Source\PSoC6\pdl\drivers/peripheral/gpio/cy_gpio.h **** /** \} group_gpio_functions_gpio */
 487:Generated_Source\PSoC6\pdl\drivers/peripheral/gpio/cy_gpio.h **** 
 488:Generated_Source\PSoC6\pdl\drivers/peripheral/gpio/cy_gpio.h **** /**
 489:Generated_Source\PSoC6\pdl\drivers/peripheral/gpio/cy_gpio.h **** * \addtogroup group_gpio_functions_sio
 490:Generated_Source\PSoC6\pdl\drivers/peripheral/gpio/cy_gpio.h **** * \{
 491:Generated_Source\PSoC6\pdl\drivers/peripheral/gpio/cy_gpio.h **** */
 492:Generated_Source\PSoC6\pdl\drivers/peripheral/gpio/cy_gpio.h **** 
 493:Generated_Source\PSoC6\pdl\drivers/peripheral/gpio/cy_gpio.h **** __STATIC_INLINE void Cy_GPIO_SetVregEn(GPIO_PRT_Type* base, uint32_t pinNum, uint32_t value);
 494:Generated_Source\PSoC6\pdl\drivers/peripheral/gpio/cy_gpio.h **** __STATIC_INLINE uint32_t Cy_GPIO_GetVregEn(GPIO_PRT_Type* base, uint32_t pinNum);
 495:Generated_Source\PSoC6\pdl\drivers/peripheral/gpio/cy_gpio.h **** __STATIC_INLINE void Cy_GPIO_SetIbufMode(GPIO_PRT_Type* base, uint32_t pinNum, uint32_t value);
 496:Generated_Source\PSoC6\pdl\drivers/peripheral/gpio/cy_gpio.h **** __STATIC_INLINE uint32_t Cy_GPIO_GetIbufMode(GPIO_PRT_Type* base, uint32_t pinNum);
 497:Generated_Source\PSoC6\pdl\drivers/peripheral/gpio/cy_gpio.h **** __STATIC_INLINE void Cy_GPIO_SetVtripSel(GPIO_PRT_Type* base, uint32_t pinNum, uint32_t value);
 498:Generated_Source\PSoC6\pdl\drivers/peripheral/gpio/cy_gpio.h **** __STATIC_INLINE uint32_t Cy_GPIO_GetVtripSel(GPIO_PRT_Type* base, uint32_t pinNum);
 499:Generated_Source\PSoC6\pdl\drivers/peripheral/gpio/cy_gpio.h **** __STATIC_INLINE void Cy_GPIO_SetVrefSel(GPIO_PRT_Type* base, uint32_t pinNum, uint32_t value);
 500:Generated_Source\PSoC6\pdl\drivers/peripheral/gpio/cy_gpio.h **** __STATIC_INLINE uint32_t Cy_GPIO_GetVrefSel(GPIO_PRT_Type* base, uint32_t pinNum);
 501:Generated_Source\PSoC6\pdl\drivers/peripheral/gpio/cy_gpio.h **** __STATIC_INLINE void Cy_GPIO_SetVohSel(GPIO_PRT_Type* base, uint32_t pinNum, uint32_t value);
 502:Generated_Source\PSoC6\pdl\drivers/peripheral/gpio/cy_gpio.h **** __STATIC_INLINE uint32_t Cy_GPIO_GetVohSel(GPIO_PRT_Type* base, uint32_t pinNum);
 503:Generated_Source\PSoC6\pdl\drivers/peripheral/gpio/cy_gpio.h **** 
 504:Generated_Source\PSoC6\pdl\drivers/peripheral/gpio/cy_gpio.h **** /** \} group_gpio_functions_sio */
 505:Generated_Source\PSoC6\pdl\drivers/peripheral/gpio/cy_gpio.h **** 
 506:Generated_Source\PSoC6\pdl\drivers/peripheral/gpio/cy_gpio.h **** /**
 507:Generated_Source\PSoC6\pdl\drivers/peripheral/gpio/cy_gpio.h **** * \addtogroup group_gpio_functions_interrupt
 508:Generated_Source\PSoC6\pdl\drivers/peripheral/gpio/cy_gpio.h **** * \{
 509:Generated_Source\PSoC6\pdl\drivers/peripheral/gpio/cy_gpio.h **** */
 510:Generated_Source\PSoC6\pdl\drivers/peripheral/gpio/cy_gpio.h **** 
 511:Generated_Source\PSoC6\pdl\drivers/peripheral/gpio/cy_gpio.h **** __STATIC_INLINE uint32_t Cy_GPIO_GetInterruptStatus(GPIO_PRT_Type* base, uint32_t pinNum);
 512:Generated_Source\PSoC6\pdl\drivers/peripheral/gpio/cy_gpio.h **** __STATIC_INLINE void Cy_GPIO_ClearInterrupt(GPIO_PRT_Type* base, uint32_t pinNum);
 513:Generated_Source\PSoC6\pdl\drivers/peripheral/gpio/cy_gpio.h **** __STATIC_INLINE void Cy_GPIO_SetInterruptMask(GPIO_PRT_Type* base, uint32_t pinNum, uint32_t value)
 514:Generated_Source\PSoC6\pdl\drivers/peripheral/gpio/cy_gpio.h **** __STATIC_INLINE uint32_t Cy_GPIO_GetInterruptMask(GPIO_PRT_Type* base, uint32_t pinNum);
 515:Generated_Source\PSoC6\pdl\drivers/peripheral/gpio/cy_gpio.h **** __STATIC_INLINE uint32_t Cy_GPIO_GetInterruptStatusMasked(GPIO_PRT_Type* base, uint32_t pinNum);
 516:Generated_Source\PSoC6\pdl\drivers/peripheral/gpio/cy_gpio.h **** __STATIC_INLINE void Cy_GPIO_SetSwInterrupt(GPIO_PRT_Type* base, uint32_t pinNum);
ARM GAS  C:\Users\User\AppData\Local\Temp\ccsn8eRz.s 			page 13


 517:Generated_Source\PSoC6\pdl\drivers/peripheral/gpio/cy_gpio.h **** __STATIC_INLINE void Cy_GPIO_SetInterruptEdge(GPIO_PRT_Type* base, uint32_t pinNum, uint32_t value)
 518:Generated_Source\PSoC6\pdl\drivers/peripheral/gpio/cy_gpio.h **** __STATIC_INLINE uint32_t Cy_GPIO_GetInterruptEdge(GPIO_PRT_Type* base, uint32_t pinNum);
 519:Generated_Source\PSoC6\pdl\drivers/peripheral/gpio/cy_gpio.h **** __STATIC_INLINE void Cy_GPIO_SetFilter(GPIO_PRT_Type* base, uint32_t value);
 520:Generated_Source\PSoC6\pdl\drivers/peripheral/gpio/cy_gpio.h **** __STATIC_INLINE uint32_t Cy_GPIO_GetFilter(GPIO_PRT_Type* base);
 521:Generated_Source\PSoC6\pdl\drivers/peripheral/gpio/cy_gpio.h **** 
 522:Generated_Source\PSoC6\pdl\drivers/peripheral/gpio/cy_gpio.h **** #if (IOSS_GPIO_GPIO_PORT_NR_0_31 != 0) || defined (CY_DOXYGEN)
 523:Generated_Source\PSoC6\pdl\drivers/peripheral/gpio/cy_gpio.h **** __STATIC_INLINE uint32_t Cy_GPIO_GetInterruptCause0(void);
 524:Generated_Source\PSoC6\pdl\drivers/peripheral/gpio/cy_gpio.h **** #endif /* (IOSS_GPIO_GPIO_PORT_NR_0_31 != 0) */
 525:Generated_Source\PSoC6\pdl\drivers/peripheral/gpio/cy_gpio.h **** 
 526:Generated_Source\PSoC6\pdl\drivers/peripheral/gpio/cy_gpio.h **** #if (IOSS_GPIO_GPIO_PORT_NR_32_63 != 0) || defined (CY_DOXYGEN)
 527:Generated_Source\PSoC6\pdl\drivers/peripheral/gpio/cy_gpio.h **** __STATIC_INLINE uint32_t Cy_GPIO_GetInterruptCause1(void);
 528:Generated_Source\PSoC6\pdl\drivers/peripheral/gpio/cy_gpio.h **** #endif /* (IOSS_GPIO_GPIO_PORT_NR_32_63 != 0) */
 529:Generated_Source\PSoC6\pdl\drivers/peripheral/gpio/cy_gpio.h **** 
 530:Generated_Source\PSoC6\pdl\drivers/peripheral/gpio/cy_gpio.h **** #if (IOSS_GPIO_GPIO_PORT_NR_64_95 != 0) || defined (CY_DOXYGEN)
 531:Generated_Source\PSoC6\pdl\drivers/peripheral/gpio/cy_gpio.h **** __STATIC_INLINE uint32_t Cy_GPIO_GetInterruptCause2(void);
 532:Generated_Source\PSoC6\pdl\drivers/peripheral/gpio/cy_gpio.h **** #endif /* (IOSS_GPIO_GPIO_PORT_NR_64_95 != 0) */
 533:Generated_Source\PSoC6\pdl\drivers/peripheral/gpio/cy_gpio.h **** 
 534:Generated_Source\PSoC6\pdl\drivers/peripheral/gpio/cy_gpio.h **** #if (IOSS_GPIO_GPIO_PORT_NR_96_127 != 0) || defined (CY_DOXYGEN)
 535:Generated_Source\PSoC6\pdl\drivers/peripheral/gpio/cy_gpio.h **** __STATIC_INLINE uint32_t Cy_GPIO_GetInterruptCause3(void);
 536:Generated_Source\PSoC6\pdl\drivers/peripheral/gpio/cy_gpio.h **** #endif /* (IOSS_GPIO_GPIO_PORT_NR_96_127 != 0) */
 537:Generated_Source\PSoC6\pdl\drivers/peripheral/gpio/cy_gpio.h **** 
 538:Generated_Source\PSoC6\pdl\drivers/peripheral/gpio/cy_gpio.h **** /** \} group_gpio_functions_interrupt */
 539:Generated_Source\PSoC6\pdl\drivers/peripheral/gpio/cy_gpio.h **** 
 540:Generated_Source\PSoC6\pdl\drivers/peripheral/gpio/cy_gpio.h **** 
 541:Generated_Source\PSoC6\pdl\drivers/peripheral/gpio/cy_gpio.h **** /**
 542:Generated_Source\PSoC6\pdl\drivers/peripheral/gpio/cy_gpio.h **** * \addtogroup group_gpio_functions_init
 543:Generated_Source\PSoC6\pdl\drivers/peripheral/gpio/cy_gpio.h **** * \{
 544:Generated_Source\PSoC6\pdl\drivers/peripheral/gpio/cy_gpio.h **** */
 545:Generated_Source\PSoC6\pdl\drivers/peripheral/gpio/cy_gpio.h **** 
 546:Generated_Source\PSoC6\pdl\drivers/peripheral/gpio/cy_gpio.h **** /*******************************************************************************
 547:Generated_Source\PSoC6\pdl\drivers/peripheral/gpio/cy_gpio.h **** * Function Name: Cy_GPIO_SetHSIOM
 548:Generated_Source\PSoC6\pdl\drivers/peripheral/gpio/cy_gpio.h **** ****************************************************************************//**
 549:Generated_Source\PSoC6\pdl\drivers/peripheral/gpio/cy_gpio.h **** *
 550:Generated_Source\PSoC6\pdl\drivers/peripheral/gpio/cy_gpio.h **** * \brief Configures the HSIOM connection to the pin.
 551:Generated_Source\PSoC6\pdl\drivers/peripheral/gpio/cy_gpio.h **** *
 552:Generated_Source\PSoC6\pdl\drivers/peripheral/gpio/cy_gpio.h **** * Connects the specified High-Speed Input Output Multiplexer (HSIOM) selection
 553:Generated_Source\PSoC6\pdl\drivers/peripheral/gpio/cy_gpio.h **** * to the pin.
 554:Generated_Source\PSoC6\pdl\drivers/peripheral/gpio/cy_gpio.h **** *
 555:Generated_Source\PSoC6\pdl\drivers/peripheral/gpio/cy_gpio.h **** * \param base
 556:Generated_Source\PSoC6\pdl\drivers/peripheral/gpio/cy_gpio.h **** * Pointer to the pin's port register base address
 557:Generated_Source\PSoC6\pdl\drivers/peripheral/gpio/cy_gpio.h **** *
 558:Generated_Source\PSoC6\pdl\drivers/peripheral/gpio/cy_gpio.h **** * \param pinNum
 559:Generated_Source\PSoC6\pdl\drivers/peripheral/gpio/cy_gpio.h **** * Position of the pin bit-field within the port register
 560:Generated_Source\PSoC6\pdl\drivers/peripheral/gpio/cy_gpio.h **** *
 561:Generated_Source\PSoC6\pdl\drivers/peripheral/gpio/cy_gpio.h **** * \param value
 562:Generated_Source\PSoC6\pdl\drivers/peripheral/gpio/cy_gpio.h **** * HSIOM input selection
 563:Generated_Source\PSoC6\pdl\drivers/peripheral/gpio/cy_gpio.h **** *
 564:Generated_Source\PSoC6\pdl\drivers/peripheral/gpio/cy_gpio.h **** * \return
 565:Generated_Source\PSoC6\pdl\drivers/peripheral/gpio/cy_gpio.h **** * void
 566:Generated_Source\PSoC6\pdl\drivers/peripheral/gpio/cy_gpio.h **** *
 567:Generated_Source\PSoC6\pdl\drivers/peripheral/gpio/cy_gpio.h **** * \note 
 568:Generated_Source\PSoC6\pdl\drivers/peripheral/gpio/cy_gpio.h **** * This function modifies a port register in a read-modify-write operation. It is
 569:Generated_Source\PSoC6\pdl\drivers/peripheral/gpio/cy_gpio.h **** * not thread safe as the resource is shared among multiple pins on a port.
 570:Generated_Source\PSoC6\pdl\drivers/peripheral/gpio/cy_gpio.h **** *
 571:Generated_Source\PSoC6\pdl\drivers/peripheral/gpio/cy_gpio.h **** * \funcusage
 572:Generated_Source\PSoC6\pdl\drivers/peripheral/gpio/cy_gpio.h **** * \snippet gpio/gpio_v1_10_sut_01.cydsn/main_cm4.c snippet_Cy_GPIO_SetHSIOM
 573:Generated_Source\PSoC6\pdl\drivers/peripheral/gpio/cy_gpio.h **** *
ARM GAS  C:\Users\User\AppData\Local\Temp\ccsn8eRz.s 			page 14


 574:Generated_Source\PSoC6\pdl\drivers/peripheral/gpio/cy_gpio.h **** *******************************************************************************/
 575:Generated_Source\PSoC6\pdl\drivers/peripheral/gpio/cy_gpio.h **** __STATIC_INLINE void Cy_GPIO_SetHSIOM(GPIO_PRT_Type* base, uint32_t pinNum, en_hsiom_sel_t value)
 576:Generated_Source\PSoC6\pdl\drivers/peripheral/gpio/cy_gpio.h **** {
 577:Generated_Source\PSoC6\pdl\drivers/peripheral/gpio/cy_gpio.h ****     uint32_t portNum;
 578:Generated_Source\PSoC6\pdl\drivers/peripheral/gpio/cy_gpio.h ****     uint32_t tempReg;
 579:Generated_Source\PSoC6\pdl\drivers/peripheral/gpio/cy_gpio.h ****     HSIOM_PRT_Type* portAddrHSIOM;
 580:Generated_Source\PSoC6\pdl\drivers/peripheral/gpio/cy_gpio.h **** 
 581:Generated_Source\PSoC6\pdl\drivers/peripheral/gpio/cy_gpio.h ****     CY_ASSERT_L2(CY_GPIO_IS_PIN_VALID(pinNum));
 582:Generated_Source\PSoC6\pdl\drivers/peripheral/gpio/cy_gpio.h ****     CY_ASSERT_L2(CY_GPIO_IS_HSIOM_VALID(value));
 583:Generated_Source\PSoC6\pdl\drivers/peripheral/gpio/cy_gpio.h **** 
 584:Generated_Source\PSoC6\pdl\drivers/peripheral/gpio/cy_gpio.h ****     portNum = ((uint32_t)(base) - GPIO_BASE) / GPIO_PRT_SECTION_SIZE;
 585:Generated_Source\PSoC6\pdl\drivers/peripheral/gpio/cy_gpio.h ****     portAddrHSIOM = (HSIOM_PRT_Type*)(HSIOM_BASE + (HSIOM_PRT_SECTION_SIZE * portNum));
 586:Generated_Source\PSoC6\pdl\drivers/peripheral/gpio/cy_gpio.h **** 
 587:Generated_Source\PSoC6\pdl\drivers/peripheral/gpio/cy_gpio.h ****     if(pinNum < CY_GPIO_PRT_HALF)
 588:Generated_Source\PSoC6\pdl\drivers/peripheral/gpio/cy_gpio.h ****     {
 589:Generated_Source\PSoC6\pdl\drivers/peripheral/gpio/cy_gpio.h ****         tempReg = portAddrHSIOM->PORT_SEL0 & ~(CY_GPIO_HSIOM_MASK << (pinNum << CY_GPIO_HSIOM_OFFSE
 590:Generated_Source\PSoC6\pdl\drivers/peripheral/gpio/cy_gpio.h ****         portAddrHSIOM->PORT_SEL0 = tempReg | ((value & CY_GPIO_HSIOM_MASK) << (pinNum << CY_GPIO_HS
 591:Generated_Source\PSoC6\pdl\drivers/peripheral/gpio/cy_gpio.h ****     }
 592:Generated_Source\PSoC6\pdl\drivers/peripheral/gpio/cy_gpio.h ****     else
 593:Generated_Source\PSoC6\pdl\drivers/peripheral/gpio/cy_gpio.h ****     {
 594:Generated_Source\PSoC6\pdl\drivers/peripheral/gpio/cy_gpio.h ****         pinNum -= CY_GPIO_PRT_HALF;
 595:Generated_Source\PSoC6\pdl\drivers/peripheral/gpio/cy_gpio.h ****         tempReg = portAddrHSIOM->PORT_SEL1 & ~(CY_GPIO_HSIOM_MASK << (pinNum << CY_GPIO_HSIOM_OFFSE
 596:Generated_Source\PSoC6\pdl\drivers/peripheral/gpio/cy_gpio.h ****         portAddrHSIOM->PORT_SEL1 = tempReg | ((value & CY_GPIO_HSIOM_MASK) << (pinNum << CY_GPIO_HS
 597:Generated_Source\PSoC6\pdl\drivers/peripheral/gpio/cy_gpio.h ****     }
 598:Generated_Source\PSoC6\pdl\drivers/peripheral/gpio/cy_gpio.h **** }
 599:Generated_Source\PSoC6\pdl\drivers/peripheral/gpio/cy_gpio.h **** 
 600:Generated_Source\PSoC6\pdl\drivers/peripheral/gpio/cy_gpio.h **** 
 601:Generated_Source\PSoC6\pdl\drivers/peripheral/gpio/cy_gpio.h **** /*******************************************************************************
 602:Generated_Source\PSoC6\pdl\drivers/peripheral/gpio/cy_gpio.h **** * Function Name: Cy_GPIO_GetHSIOM
 603:Generated_Source\PSoC6\pdl\drivers/peripheral/gpio/cy_gpio.h **** ****************************************************************************//**
 604:Generated_Source\PSoC6\pdl\drivers/peripheral/gpio/cy_gpio.h **** *
 605:Generated_Source\PSoC6\pdl\drivers/peripheral/gpio/cy_gpio.h **** * \brief Returns the current HSIOM multiplexer connection to the pin.
 606:Generated_Source\PSoC6\pdl\drivers/peripheral/gpio/cy_gpio.h **** *
 607:Generated_Source\PSoC6\pdl\drivers/peripheral/gpio/cy_gpio.h **** * \param base
 608:Generated_Source\PSoC6\pdl\drivers/peripheral/gpio/cy_gpio.h **** * Pointer to the pin's port register base address
 609:Generated_Source\PSoC6\pdl\drivers/peripheral/gpio/cy_gpio.h **** *
 610:Generated_Source\PSoC6\pdl\drivers/peripheral/gpio/cy_gpio.h **** * \param pinNum
 611:Generated_Source\PSoC6\pdl\drivers/peripheral/gpio/cy_gpio.h **** * Position of the pin bit-field within the port register
 612:Generated_Source\PSoC6\pdl\drivers/peripheral/gpio/cy_gpio.h **** *
 613:Generated_Source\PSoC6\pdl\drivers/peripheral/gpio/cy_gpio.h **** * \return
 614:Generated_Source\PSoC6\pdl\drivers/peripheral/gpio/cy_gpio.h **** * HSIOM input selection
 615:Generated_Source\PSoC6\pdl\drivers/peripheral/gpio/cy_gpio.h **** *
 616:Generated_Source\PSoC6\pdl\drivers/peripheral/gpio/cy_gpio.h **** * \funcusage
 617:Generated_Source\PSoC6\pdl\drivers/peripheral/gpio/cy_gpio.h **** * \snippet gpio/gpio_v1_10_sut_01.cydsn/main_cm4.c snippet_Cy_GPIO_SetHSIOM
 618:Generated_Source\PSoC6\pdl\drivers/peripheral/gpio/cy_gpio.h **** *
 619:Generated_Source\PSoC6\pdl\drivers/peripheral/gpio/cy_gpio.h **** *******************************************************************************/
 620:Generated_Source\PSoC6\pdl\drivers/peripheral/gpio/cy_gpio.h **** __STATIC_INLINE en_hsiom_sel_t Cy_GPIO_GetHSIOM(GPIO_PRT_Type* base, uint32_t pinNum)
 621:Generated_Source\PSoC6\pdl\drivers/peripheral/gpio/cy_gpio.h **** {
 622:Generated_Source\PSoC6\pdl\drivers/peripheral/gpio/cy_gpio.h ****     uint32_t returnValue;
 623:Generated_Source\PSoC6\pdl\drivers/peripheral/gpio/cy_gpio.h ****     uint32_t portNum;
 624:Generated_Source\PSoC6\pdl\drivers/peripheral/gpio/cy_gpio.h ****     HSIOM_PRT_Type* portAddrHSIOM;
 625:Generated_Source\PSoC6\pdl\drivers/peripheral/gpio/cy_gpio.h ****     
 626:Generated_Source\PSoC6\pdl\drivers/peripheral/gpio/cy_gpio.h ****     CY_ASSERT_L2(CY_GPIO_IS_PIN_VALID(pinNum));
 627:Generated_Source\PSoC6\pdl\drivers/peripheral/gpio/cy_gpio.h **** 
 628:Generated_Source\PSoC6\pdl\drivers/peripheral/gpio/cy_gpio.h ****     portNum = ((uint32_t)(base) - GPIO_BASE) / GPIO_PRT_SECTION_SIZE;
 629:Generated_Source\PSoC6\pdl\drivers/peripheral/gpio/cy_gpio.h ****     portAddrHSIOM = (HSIOM_PRT_Type*)(HSIOM_BASE + (HSIOM_PRT_SECTION_SIZE * portNum));
 630:Generated_Source\PSoC6\pdl\drivers/peripheral/gpio/cy_gpio.h **** 
ARM GAS  C:\Users\User\AppData\Local\Temp\ccsn8eRz.s 			page 15


 631:Generated_Source\PSoC6\pdl\drivers/peripheral/gpio/cy_gpio.h ****     if(pinNum < CY_GPIO_PRT_HALF)
 632:Generated_Source\PSoC6\pdl\drivers/peripheral/gpio/cy_gpio.h ****     {
 633:Generated_Source\PSoC6\pdl\drivers/peripheral/gpio/cy_gpio.h ****         returnValue = (portAddrHSIOM->PORT_SEL0 >> (pinNum << CY_GPIO_HSIOM_OFFSET)) & CY_GPIO_HSIO
 634:Generated_Source\PSoC6\pdl\drivers/peripheral/gpio/cy_gpio.h ****     }
 635:Generated_Source\PSoC6\pdl\drivers/peripheral/gpio/cy_gpio.h ****     else
 636:Generated_Source\PSoC6\pdl\drivers/peripheral/gpio/cy_gpio.h ****     {
 637:Generated_Source\PSoC6\pdl\drivers/peripheral/gpio/cy_gpio.h ****         pinNum -= CY_GPIO_PRT_HALF;
 638:Generated_Source\PSoC6\pdl\drivers/peripheral/gpio/cy_gpio.h ****         returnValue = (portAddrHSIOM->PORT_SEL1 >> (pinNum << CY_GPIO_HSIOM_OFFSET)) & CY_GPIO_HSIO
 639:Generated_Source\PSoC6\pdl\drivers/peripheral/gpio/cy_gpio.h ****     }
 640:Generated_Source\PSoC6\pdl\drivers/peripheral/gpio/cy_gpio.h **** 
 641:Generated_Source\PSoC6\pdl\drivers/peripheral/gpio/cy_gpio.h ****     return (en_hsiom_sel_t)returnValue;
 642:Generated_Source\PSoC6\pdl\drivers/peripheral/gpio/cy_gpio.h **** }
 643:Generated_Source\PSoC6\pdl\drivers/peripheral/gpio/cy_gpio.h **** 
 644:Generated_Source\PSoC6\pdl\drivers/peripheral/gpio/cy_gpio.h **** 
 645:Generated_Source\PSoC6\pdl\drivers/peripheral/gpio/cy_gpio.h **** /*******************************************************************************
 646:Generated_Source\PSoC6\pdl\drivers/peripheral/gpio/cy_gpio.h **** * Function Name: Cy_GPIO_PortToAddr
 647:Generated_Source\PSoC6\pdl\drivers/peripheral/gpio/cy_gpio.h **** ****************************************************************************//**
 648:Generated_Source\PSoC6\pdl\drivers/peripheral/gpio/cy_gpio.h **** *
 649:Generated_Source\PSoC6\pdl\drivers/peripheral/gpio/cy_gpio.h **** * \brief Retrieves the port address based on the given port number.
 650:Generated_Source\PSoC6\pdl\drivers/peripheral/gpio/cy_gpio.h **** *
 651:Generated_Source\PSoC6\pdl\drivers/peripheral/gpio/cy_gpio.h **** * This is a helper function to calculate the port base address when given a port
 652:Generated_Source\PSoC6\pdl\drivers/peripheral/gpio/cy_gpio.h **** * number. It is to be used when pin access needs to be calculated at runtime.
 653:Generated_Source\PSoC6\pdl\drivers/peripheral/gpio/cy_gpio.h **** *
 654:Generated_Source\PSoC6\pdl\drivers/peripheral/gpio/cy_gpio.h **** * \param portNum
 655:Generated_Source\PSoC6\pdl\drivers/peripheral/gpio/cy_gpio.h **** * Port number
 656:Generated_Source\PSoC6\pdl\drivers/peripheral/gpio/cy_gpio.h **** *
 657:Generated_Source\PSoC6\pdl\drivers/peripheral/gpio/cy_gpio.h **** * \return
 658:Generated_Source\PSoC6\pdl\drivers/peripheral/gpio/cy_gpio.h **** * Base address of the port register structure
 659:Generated_Source\PSoC6\pdl\drivers/peripheral/gpio/cy_gpio.h **** *
 660:Generated_Source\PSoC6\pdl\drivers/peripheral/gpio/cy_gpio.h **** * \funcusage
 661:Generated_Source\PSoC6\pdl\drivers/peripheral/gpio/cy_gpio.h **** * \snippet gpio/gpio_v1_10_sut_01.cydsn/main_cm4.c snippet_Cy_GPIO_PortToAddr
 662:Generated_Source\PSoC6\pdl\drivers/peripheral/gpio/cy_gpio.h **** *
 663:Generated_Source\PSoC6\pdl\drivers/peripheral/gpio/cy_gpio.h **** *******************************************************************************/
 664:Generated_Source\PSoC6\pdl\drivers/peripheral/gpio/cy_gpio.h **** __STATIC_INLINE GPIO_PRT_Type* Cy_GPIO_PortToAddr(uint32_t portNum)
 665:Generated_Source\PSoC6\pdl\drivers/peripheral/gpio/cy_gpio.h **** {
 666:Generated_Source\PSoC6\pdl\drivers/peripheral/gpio/cy_gpio.h ****     GPIO_PRT_Type* base;
 667:Generated_Source\PSoC6\pdl\drivers/peripheral/gpio/cy_gpio.h ****     
 668:Generated_Source\PSoC6\pdl\drivers/peripheral/gpio/cy_gpio.h ****     if(portNum < (uint32_t)IOSS_GPIO_GPIO_PORT_NR)
 669:Generated_Source\PSoC6\pdl\drivers/peripheral/gpio/cy_gpio.h ****     {
 670:Generated_Source\PSoC6\pdl\drivers/peripheral/gpio/cy_gpio.h ****          base = (GPIO_PRT_Type *)(GPIO_BASE + (GPIO_PRT_SECTION_SIZE * portNum));
 671:Generated_Source\PSoC6\pdl\drivers/peripheral/gpio/cy_gpio.h ****     }
 672:Generated_Source\PSoC6\pdl\drivers/peripheral/gpio/cy_gpio.h ****     else
 673:Generated_Source\PSoC6\pdl\drivers/peripheral/gpio/cy_gpio.h ****     {
 674:Generated_Source\PSoC6\pdl\drivers/peripheral/gpio/cy_gpio.h ****         /* Error: Return default base address */
 675:Generated_Source\PSoC6\pdl\drivers/peripheral/gpio/cy_gpio.h ****         base = (GPIO_PRT_Type *)(GPIO_BASE);
 676:Generated_Source\PSoC6\pdl\drivers/peripheral/gpio/cy_gpio.h ****     }
 677:Generated_Source\PSoC6\pdl\drivers/peripheral/gpio/cy_gpio.h **** 
 678:Generated_Source\PSoC6\pdl\drivers/peripheral/gpio/cy_gpio.h ****     return (base);
 679:Generated_Source\PSoC6\pdl\drivers/peripheral/gpio/cy_gpio.h **** }
 680:Generated_Source\PSoC6\pdl\drivers/peripheral/gpio/cy_gpio.h **** 
 681:Generated_Source\PSoC6\pdl\drivers/peripheral/gpio/cy_gpio.h **** /** \} group_gpio_functions_init */
 682:Generated_Source\PSoC6\pdl\drivers/peripheral/gpio/cy_gpio.h **** 
 683:Generated_Source\PSoC6\pdl\drivers/peripheral/gpio/cy_gpio.h **** /**
 684:Generated_Source\PSoC6\pdl\drivers/peripheral/gpio/cy_gpio.h **** * \addtogroup group_gpio_functions_gpio
 685:Generated_Source\PSoC6\pdl\drivers/peripheral/gpio/cy_gpio.h **** * \{
 686:Generated_Source\PSoC6\pdl\drivers/peripheral/gpio/cy_gpio.h **** */
 687:Generated_Source\PSoC6\pdl\drivers/peripheral/gpio/cy_gpio.h **** 
ARM GAS  C:\Users\User\AppData\Local\Temp\ccsn8eRz.s 			page 16


 688:Generated_Source\PSoC6\pdl\drivers/peripheral/gpio/cy_gpio.h **** /*******************************************************************************
 689:Generated_Source\PSoC6\pdl\drivers/peripheral/gpio/cy_gpio.h **** * Function Name: Cy_GPIO_Read
 690:Generated_Source\PSoC6\pdl\drivers/peripheral/gpio/cy_gpio.h **** ****************************************************************************//**
 691:Generated_Source\PSoC6\pdl\drivers/peripheral/gpio/cy_gpio.h **** *
 692:Generated_Source\PSoC6\pdl\drivers/peripheral/gpio/cy_gpio.h **** * \brief Reads the current logic level on the input buffer of the pin.
 693:Generated_Source\PSoC6\pdl\drivers/peripheral/gpio/cy_gpio.h **** *
 694:Generated_Source\PSoC6\pdl\drivers/peripheral/gpio/cy_gpio.h **** * \param base
 695:Generated_Source\PSoC6\pdl\drivers/peripheral/gpio/cy_gpio.h **** * Pointer to the pin's port register base address
 696:Generated_Source\PSoC6\pdl\drivers/peripheral/gpio/cy_gpio.h **** *
 697:Generated_Source\PSoC6\pdl\drivers/peripheral/gpio/cy_gpio.h **** * \param pinNum
 698:Generated_Source\PSoC6\pdl\drivers/peripheral/gpio/cy_gpio.h **** * Position of the pin bit-field within the port register.
 699:Generated_Source\PSoC6\pdl\drivers/peripheral/gpio/cy_gpio.h **** * Bit position 8 is the routed pin through the port glitch filter.
 700:Generated_Source\PSoC6\pdl\drivers/peripheral/gpio/cy_gpio.h **** *
 701:Generated_Source\PSoC6\pdl\drivers/peripheral/gpio/cy_gpio.h **** * \return
 702:Generated_Source\PSoC6\pdl\drivers/peripheral/gpio/cy_gpio.h **** * Logic level present on the pin
 703:Generated_Source\PSoC6\pdl\drivers/peripheral/gpio/cy_gpio.h **** *
 704:Generated_Source\PSoC6\pdl\drivers/peripheral/gpio/cy_gpio.h **** * \funcusage
 705:Generated_Source\PSoC6\pdl\drivers/peripheral/gpio/cy_gpio.h **** * \snippet gpio/gpio_v1_10_sut_01.cydsn/main_cm4.c snippet_Cy_GPIO_Read
 706:Generated_Source\PSoC6\pdl\drivers/peripheral/gpio/cy_gpio.h **** *
 707:Generated_Source\PSoC6\pdl\drivers/peripheral/gpio/cy_gpio.h **** *******************************************************************************/
 708:Generated_Source\PSoC6\pdl\drivers/peripheral/gpio/cy_gpio.h **** __STATIC_INLINE uint32_t Cy_GPIO_Read(GPIO_PRT_Type* base, uint32_t pinNum)
 709:Generated_Source\PSoC6\pdl\drivers/peripheral/gpio/cy_gpio.h **** {
 710:Generated_Source\PSoC6\pdl\drivers/peripheral/gpio/cy_gpio.h ****     CY_ASSERT_L2(CY_GPIO_IS_FILTER_PIN_VALID(pinNum));
 711:Generated_Source\PSoC6\pdl\drivers/peripheral/gpio/cy_gpio.h ****     
 712:Generated_Source\PSoC6\pdl\drivers/peripheral/gpio/cy_gpio.h ****     return (base->IN >> (pinNum)) & CY_GPIO_IN_MASK;
 713:Generated_Source\PSoC6\pdl\drivers/peripheral/gpio/cy_gpio.h **** }
 714:Generated_Source\PSoC6\pdl\drivers/peripheral/gpio/cy_gpio.h **** 
 715:Generated_Source\PSoC6\pdl\drivers/peripheral/gpio/cy_gpio.h **** 
 716:Generated_Source\PSoC6\pdl\drivers/peripheral/gpio/cy_gpio.h **** /*******************************************************************************
 717:Generated_Source\PSoC6\pdl\drivers/peripheral/gpio/cy_gpio.h **** * Function Name: Cy_GPIO_Write
 718:Generated_Source\PSoC6\pdl\drivers/peripheral/gpio/cy_gpio.h **** ****************************************************************************//**
 719:Generated_Source\PSoC6\pdl\drivers/peripheral/gpio/cy_gpio.h **** *
 720:Generated_Source\PSoC6\pdl\drivers/peripheral/gpio/cy_gpio.h **** * \brief Write a logic 0 or logic 1 state to the output driver.
 721:Generated_Source\PSoC6\pdl\drivers/peripheral/gpio/cy_gpio.h **** *
 722:Generated_Source\PSoC6\pdl\drivers/peripheral/gpio/cy_gpio.h **** * This function should be used only for software driven pins. It does not have
 723:Generated_Source\PSoC6\pdl\drivers/peripheral/gpio/cy_gpio.h **** * any effect on peripheral driven pins.
 724:Generated_Source\PSoC6\pdl\drivers/peripheral/gpio/cy_gpio.h **** *
 725:Generated_Source\PSoC6\pdl\drivers/peripheral/gpio/cy_gpio.h **** * \param base
 726:Generated_Source\PSoC6\pdl\drivers/peripheral/gpio/cy_gpio.h **** * Pointer to the pin's port register base address
 727:Generated_Source\PSoC6\pdl\drivers/peripheral/gpio/cy_gpio.h **** *
 728:Generated_Source\PSoC6\pdl\drivers/peripheral/gpio/cy_gpio.h **** * \param pinNum
 729:Generated_Source\PSoC6\pdl\drivers/peripheral/gpio/cy_gpio.h **** * Position of the pin bit-field within the port register
 730:Generated_Source\PSoC6\pdl\drivers/peripheral/gpio/cy_gpio.h **** *
 731:Generated_Source\PSoC6\pdl\drivers/peripheral/gpio/cy_gpio.h **** * \param value
 732:Generated_Source\PSoC6\pdl\drivers/peripheral/gpio/cy_gpio.h **** * Logic level to drive out on the pin
 733:Generated_Source\PSoC6\pdl\drivers/peripheral/gpio/cy_gpio.h **** *
 734:Generated_Source\PSoC6\pdl\drivers/peripheral/gpio/cy_gpio.h **** * \return
 735:Generated_Source\PSoC6\pdl\drivers/peripheral/gpio/cy_gpio.h **** * void
 736:Generated_Source\PSoC6\pdl\drivers/peripheral/gpio/cy_gpio.h **** *
 737:Generated_Source\PSoC6\pdl\drivers/peripheral/gpio/cy_gpio.h **** * \funcusage
 738:Generated_Source\PSoC6\pdl\drivers/peripheral/gpio/cy_gpio.h **** * \snippet gpio/gpio_v1_10_sut_01.cydsn/main_cm4.c snippet_Cy_GPIO_Write
 739:Generated_Source\PSoC6\pdl\drivers/peripheral/gpio/cy_gpio.h **** *
 740:Generated_Source\PSoC6\pdl\drivers/peripheral/gpio/cy_gpio.h **** *******************************************************************************/
 741:Generated_Source\PSoC6\pdl\drivers/peripheral/gpio/cy_gpio.h **** __STATIC_INLINE void Cy_GPIO_Write(GPIO_PRT_Type* base, uint32_t pinNum, uint32_t value)
 742:Generated_Source\PSoC6\pdl\drivers/peripheral/gpio/cy_gpio.h **** {
 743:Generated_Source\PSoC6\pdl\drivers/peripheral/gpio/cy_gpio.h ****     CY_ASSERT_L2(CY_GPIO_IS_PIN_VALID(pinNum));
 744:Generated_Source\PSoC6\pdl\drivers/peripheral/gpio/cy_gpio.h ****     CY_ASSERT_L2(CY_GPIO_IS_VALUE_VALID(value));
ARM GAS  C:\Users\User\AppData\Local\Temp\ccsn8eRz.s 			page 17


 745:Generated_Source\PSoC6\pdl\drivers/peripheral/gpio/cy_gpio.h **** 
 746:Generated_Source\PSoC6\pdl\drivers/peripheral/gpio/cy_gpio.h ****     /* Thread-safe: Directly access the pin registers instead of base->OUT */
 747:Generated_Source\PSoC6\pdl\drivers/peripheral/gpio/cy_gpio.h ****     if(0UL == value)
 748:Generated_Source\PSoC6\pdl\drivers/peripheral/gpio/cy_gpio.h ****     {
 749:Generated_Source\PSoC6\pdl\drivers/peripheral/gpio/cy_gpio.h ****         base->OUT_CLR = CY_GPIO_OUT_MASK << pinNum;
  49              		.loc 2 749 0
  50 000a 0F4C     		ldr	r4, .L5
  51 000c 0827     		movs	r7, #8
  52 000e 6760     		str	r7, [r4, #4]
  53              	.LVL2:
  54              	.LBE59:
  55              	.LBE58:
 121:pervasive_eink_hardware_driver.c ****     /* Pull the chip select line LOW to begin communication */
 122:pervasive_eink_hardware_driver.c ****     CY_EINK_CsLow;
 123:pervasive_eink_hardware_driver.c ****     /* Send the header of register address index */
 124:pervasive_eink_hardware_driver.c ****     Cy_EINK_WriteSPI(PV_EINK_REG_INDEX_HEADER);
  56              		.loc 1 124 0
  57 0010 7020     		movs	r0, #112
  58              	.LVL3:
  59 0012 FFF7FEFF 		bl	Cy_EINK_WriteSPI
  60              	.LVL4:
 125:pervasive_eink_hardware_driver.c ****     /* Send the register address */
 126:pervasive_eink_hardware_driver.c ****     Cy_EINK_WriteSPI(regAddr);
  61              		.loc 1 126 0
  62 0016 4046     		mov	r0, r8
  63 0018 FFF7FEFF 		bl	Cy_EINK_WriteSPI
  64              	.LVL5:
  65              	.LBB60:
  66              	.LBB61:
 750:Generated_Source\PSoC6\pdl\drivers/peripheral/gpio/cy_gpio.h ****     }
 751:Generated_Source\PSoC6\pdl\drivers/peripheral/gpio/cy_gpio.h ****     else
 752:Generated_Source\PSoC6\pdl\drivers/peripheral/gpio/cy_gpio.h ****     {
 753:Generated_Source\PSoC6\pdl\drivers/peripheral/gpio/cy_gpio.h ****         base->OUT_SET = CY_GPIO_OUT_MASK << pinNum;
  67              		.loc 2 753 0
  68 001c A760     		str	r7, [r4, #8]
  69              	.LVL6:
  70              	.LBE61:
  71              	.LBE60:
  72              	.LBB62:
  73              	.LBB63:
 749:Generated_Source\PSoC6\pdl\drivers/peripheral/gpio/cy_gpio.h ****     }
  74              		.loc 2 749 0
  75 001e 6760     		str	r7, [r4, #4]
  76              	.LVL7:
  77              	.LBE63:
  78              	.LBE62:
 127:pervasive_eink_hardware_driver.c ****     /* Push the chip select line HIGH to end communication */
 128:pervasive_eink_hardware_driver.c ****     CY_EINK_CsHigh;
 129:pervasive_eink_hardware_driver.c ****     
 130:pervasive_eink_hardware_driver.c ****     /* Wait for 10uS before the next transmission */
 131:pervasive_eink_hardware_driver.c ****     CY_EINK_Wait10uS;
 132:pervasive_eink_hardware_driver.c ****     
 133:pervasive_eink_hardware_driver.c ****     /* Pull the chip select line LOW to begin communication */
 134:pervasive_eink_hardware_driver.c ****     CY_EINK_CsLow;
 135:pervasive_eink_hardware_driver.c ****     /* Send the header of data write index */
 136:pervasive_eink_hardware_driver.c ****     Cy_EINK_WriteSPI(PV_EINK_REG_DATA_WRITE);
  79              		.loc 1 136 0
ARM GAS  C:\Users\User\AppData\Local\Temp\ccsn8eRz.s 			page 18


  80 0020 7220     		movs	r0, #114
  81 0022 FFF7FEFF 		bl	Cy_EINK_WriteSPI
  82              	.LVL8:
 137:pervasive_eink_hardware_driver.c ****     /* Send the array of data */
 138:pervasive_eink_hardware_driver.c ****     while (dataLength--)
  83              		.loc 1 138 0
  84 0026 05E0     		b	.L2
  85              	.LVL9:
  86              	.L3:
 139:pervasive_eink_hardware_driver.c ****     {
 140:pervasive_eink_hardware_driver.c ****         Cy_EINK_WriteSPI(*data++);
  87              		.loc 1 140 0
  88 0028 771C     		adds	r7, r6, #1
  89              	.LVL10:
  90 002a 3078     		ldrb	r0, [r6]	@ zero_extendqisi2
  91 002c FFF7FEFF 		bl	Cy_EINK_WriteSPI
  92              	.LVL11:
 138:pervasive_eink_hardware_driver.c ****     {
  93              		.loc 1 138 0
  94 0030 2546     		mov	r5, r4
  95              		.loc 1 140 0
  96 0032 3E46     		mov	r6, r7
  97              	.LVL12:
  98              	.L2:
 138:pervasive_eink_hardware_driver.c ****     {
  99              		.loc 1 138 0
 100 0034 6B1E     		subs	r3, r5, #1
 101 0036 9CB2     		uxth	r4, r3
 102              	.LVL13:
 103 0038 002D     		cmp	r5, #0
 104 003a F5D1     		bne	.L3
 105              	.LVL14:
 106              	.LBB64:
 107              	.LBB65:
 108              		.loc 2 753 0
 109 003c 0822     		movs	r2, #8
 110 003e 024B     		ldr	r3, .L5
 111 0040 9A60     		str	r2, [r3, #8]
 112              	.LVL15:
 113 0042 BDE8F081 		pop	{r4, r5, r6, r7, r8, pc}
 114              	.LVL16:
 115              	.L6:
 116 0046 00BF     		.align	2
 117              	.L5:
 118 0048 00063240 		.word	1077020160
 119              	.LBE65:
 120              	.LBE64:
 121              		.cfi_endproc
 122              	.LFE647:
 123              		.size	Pv_EINK_SendData, .-Pv_EINK_SendData
 124              		.section	.text.Pv_EINK_SendByte,"ax",%progbits
 125              		.align	2
 126              		.global	Pv_EINK_SendByte
 127              		.thumb
 128              		.thumb_func
 129              		.type	Pv_EINK_SendByte, %function
 130              	Pv_EINK_SendByte:
ARM GAS  C:\Users\User\AppData\Local\Temp\ccsn8eRz.s 			page 19


 131              	.LFB648:
 141:pervasive_eink_hardware_driver.c ****     }
 142:pervasive_eink_hardware_driver.c ****     /* Push the chip select line HIGH to end communication */
 143:pervasive_eink_hardware_driver.c ****     CY_EINK_CsHigh;
 144:pervasive_eink_hardware_driver.c **** }
 145:pervasive_eink_hardware_driver.c **** 
 146:pervasive_eink_hardware_driver.c **** /*******************************************************************************
 147:pervasive_eink_hardware_driver.c **** * Function Name: void Pv_EINK_SendByte(uint8_t regAddr, uint8_t data)
 148:pervasive_eink_hardware_driver.c **** ********************************************************************************
 149:pervasive_eink_hardware_driver.c **** *
 150:pervasive_eink_hardware_driver.c **** * Summary: Sends a byte of data to the E-INK driver.
 151:pervasive_eink_hardware_driver.c **** *
 152:pervasive_eink_hardware_driver.c **** * Parameters:
 153:pervasive_eink_hardware_driver.c **** *  uint8_t regAddr: Display driver register address
 154:pervasive_eink_hardware_driver.c **** *  uint8_t data   : Data byte that will be sent to the driver
 155:pervasive_eink_hardware_driver.c **** *
 156:pervasive_eink_hardware_driver.c **** * Return:
 157:pervasive_eink_hardware_driver.c **** *  None
 158:pervasive_eink_hardware_driver.c **** *
 159:pervasive_eink_hardware_driver.c **** * Side Effects:
 160:pervasive_eink_hardware_driver.c **** *  None
 161:pervasive_eink_hardware_driver.c **** *******************************************************************************/
 162:pervasive_eink_hardware_driver.c **** void Pv_EINK_SendByte(uint8_t regAddr, uint8_t data)
 163:pervasive_eink_hardware_driver.c **** {
 132              		.loc 1 163 0
 133              		.cfi_startproc
 134              		@ args = 0, pretend = 0, frame = 8
 135              		@ frame_needed = 0, uses_anonymous_args = 0
 136              	.LVL17:
 137 0000 00B5     		push	{lr}
 138              		.cfi_def_cfa_offset 4
 139              		.cfi_offset 14, -4
 140 0002 83B0     		sub	sp, sp, #12
 141              		.cfi_def_cfa_offset 16
 142 0004 02AB     		add	r3, sp, #8
 143 0006 03F8011D 		strb	r1, [r3, #-1]!
 164:pervasive_eink_hardware_driver.c ****     /* Send a single byte of data */
 165:pervasive_eink_hardware_driver.c ****     Pv_EINK_SendData(regAddr, &data, CY_EINK_SINGLE_BYTE);
 144              		.loc 1 165 0
 145 000a 0122     		movs	r2, #1
 146 000c 1946     		mov	r1, r3
 147              	.LVL18:
 148 000e FFF7FEFF 		bl	Pv_EINK_SendData
 149              	.LVL19:
 166:pervasive_eink_hardware_driver.c **** }
 150              		.loc 1 166 0
 151 0012 03B0     		add	sp, sp, #12
 152              		.cfi_def_cfa_offset 4
 153              		@ sp needed
 154 0014 5DF804FB 		ldr	pc, [sp], #4
 155              		.cfi_endproc
 156              	.LFE648:
 157              		.size	Pv_EINK_SendByte, .-Pv_EINK_SendByte
 158              		.section	.text.Pv_EINK_ReadByte,"ax",%progbits
 159              		.align	2
 160              		.global	Pv_EINK_ReadByte
 161              		.thumb
ARM GAS  C:\Users\User\AppData\Local\Temp\ccsn8eRz.s 			page 20


 162              		.thumb_func
 163              		.type	Pv_EINK_ReadByte, %function
 164              	Pv_EINK_ReadByte:
 165              	.LFB649:
 167:pervasive_eink_hardware_driver.c **** 
 168:pervasive_eink_hardware_driver.c **** /*******************************************************************************
 169:pervasive_eink_hardware_driver.c **** * Function Name: uint8_t Pv_EINK_ReadByte(uint8_t regAddr, uint8_t data)
 170:pervasive_eink_hardware_driver.c **** ********************************************************************************
 171:pervasive_eink_hardware_driver.c **** *
 172:pervasive_eink_hardware_driver.c **** * Summary: Sends a read command to the E-INK driver and receives a byte of data
 173:pervasive_eink_hardware_driver.c **** *  from the driver.
 174:pervasive_eink_hardware_driver.c **** *
 175:pervasive_eink_hardware_driver.c **** * Parameters:
 176:pervasive_eink_hardware_driver.c **** *  uint8_t regAddr: Display driver register address
 177:pervasive_eink_hardware_driver.c **** *  uint8_t data   : Data command that will be sent to the driver
 178:pervasive_eink_hardware_driver.c **** *
 179:pervasive_eink_hardware_driver.c **** * Return:
 180:pervasive_eink_hardware_driver.c **** *  uint8_t :  Data received from the display driver
 181:pervasive_eink_hardware_driver.c **** *
 182:pervasive_eink_hardware_driver.c **** * Side Effects:
 183:pervasive_eink_hardware_driver.c **** *  None
 184:pervasive_eink_hardware_driver.c **** *******************************************************************************/
 185:pervasive_eink_hardware_driver.c **** uint8_t Pv_EINK_ReadByte(uint8_t regAddr, uint8_t data)
 186:pervasive_eink_hardware_driver.c **** {
 166              		.loc 1 186 0
 167              		.cfi_startproc
 168              		@ args = 0, pretend = 0, frame = 0
 169              		@ frame_needed = 0, uses_anonymous_args = 0
 170              	.LVL20:
 171 0000 F8B5     		push	{r3, r4, r5, r6, r7, lr}
 172              		.cfi_def_cfa_offset 24
 173              		.cfi_offset 3, -24
 174              		.cfi_offset 4, -20
 175              		.cfi_offset 5, -16
 176              		.cfi_offset 6, -12
 177              		.cfi_offset 7, -8
 178              		.cfi_offset 14, -4
 179 0002 0746     		mov	r7, r0
 180 0004 0E46     		mov	r6, r1
 181              	.LVL21:
 182              	.LBB66:
 183              	.LBB67:
 749:Generated_Source\PSoC6\pdl\drivers/peripheral/gpio/cy_gpio.h ****     }
 184              		.loc 2 749 0
 185 0006 094C     		ldr	r4, .L11
 186 0008 0825     		movs	r5, #8
 187 000a 6560     		str	r5, [r4, #4]
 188              	.LVL22:
 189              	.LBE67:
 190              	.LBE66:
 187:pervasive_eink_hardware_driver.c ****     /* Variable that stores received data */
 188:pervasive_eink_hardware_driver.c ****     uint8_t dataRead;
 189:pervasive_eink_hardware_driver.c ****     
 190:pervasive_eink_hardware_driver.c ****     /* Pull the chip select line LOW to begin communication */
 191:pervasive_eink_hardware_driver.c ****     CY_EINK_CsLow;
 192:pervasive_eink_hardware_driver.c ****     /* Send the header of register address index */
 193:pervasive_eink_hardware_driver.c ****     Cy_EINK_WriteSPI(PV_EINK_REG_INDEX_HEADER);
ARM GAS  C:\Users\User\AppData\Local\Temp\ccsn8eRz.s 			page 21


 191              		.loc 1 193 0
 192 000c 7020     		movs	r0, #112
 193              	.LVL23:
 194 000e FFF7FEFF 		bl	Cy_EINK_WriteSPI
 195              	.LVL24:
 194:pervasive_eink_hardware_driver.c ****     /* Send the register address */
 195:pervasive_eink_hardware_driver.c ****     Cy_EINK_WriteSPI(regAddr);
 196              		.loc 1 195 0
 197 0012 3846     		mov	r0, r7
 198 0014 FFF7FEFF 		bl	Cy_EINK_WriteSPI
 199              	.LVL25:
 200              	.LBB68:
 201              	.LBB69:
 202              		.loc 2 753 0
 203 0018 A560     		str	r5, [r4, #8]
 204              	.LVL26:
 205              	.LBE69:
 206              	.LBE68:
 207              	.LBB70:
 208              	.LBB71:
 749:Generated_Source\PSoC6\pdl\drivers/peripheral/gpio/cy_gpio.h ****     }
 209              		.loc 2 749 0
 210 001a 6560     		str	r5, [r4, #4]
 211              	.LVL27:
 212              	.LBE71:
 213              	.LBE70:
 196:pervasive_eink_hardware_driver.c ****     /* Push the chip select line HIGH to end communication */
 197:pervasive_eink_hardware_driver.c ****     CY_EINK_CsHigh;
 198:pervasive_eink_hardware_driver.c ****     
 199:pervasive_eink_hardware_driver.c ****     /* Wait for 10uS before the next transmission */
 200:pervasive_eink_hardware_driver.c ****     CY_EINK_Wait10uS;
 201:pervasive_eink_hardware_driver.c ****     
 202:pervasive_eink_hardware_driver.c ****     /* Pull the chip select line LOW to begin communication */
 203:pervasive_eink_hardware_driver.c ****     CY_EINK_CsLow;
 204:pervasive_eink_hardware_driver.c ****     /* Send the header of data read index */
 205:pervasive_eink_hardware_driver.c ****     Cy_EINK_WriteSPI(PV_EINK_REG_DATA_READ);
 214              		.loc 1 205 0
 215 001c 7320     		movs	r0, #115
 216 001e FFF7FEFF 		bl	Cy_EINK_WriteSPI
 217              	.LVL28:
 206:pervasive_eink_hardware_driver.c ****     /* Send the command to receive a byte of data */
 207:pervasive_eink_hardware_driver.c ****     dataRead = Cy_EINK_ReadSPI(data);
 218              		.loc 1 207 0
 219 0022 3046     		mov	r0, r6
 220 0024 FFF7FEFF 		bl	Cy_EINK_ReadSPI
 221              	.LVL29:
 222              	.LBB72:
 223              	.LBB73:
 224              		.loc 2 753 0
 225 0028 A560     		str	r5, [r4, #8]
 226              	.LVL30:
 227              	.LBE73:
 228              	.LBE72:
 208:pervasive_eink_hardware_driver.c ****     /* Push the chip select line HIGH to end communication*/
 209:pervasive_eink_hardware_driver.c ****     CY_EINK_CsHigh;
 210:pervasive_eink_hardware_driver.c ****     
 211:pervasive_eink_hardware_driver.c ****     /* Return the received data */
ARM GAS  C:\Users\User\AppData\Local\Temp\ccsn8eRz.s 			page 22


 212:pervasive_eink_hardware_driver.c ****     return(dataRead);
 213:pervasive_eink_hardware_driver.c **** }
 229              		.loc 1 213 0
 230 002a F8BD     		pop	{r3, r4, r5, r6, r7, pc}
 231              	.L12:
 232              		.align	2
 233              	.L11:
 234 002c 00063240 		.word	1077020160
 235              		.cfi_endproc
 236              	.LFE649:
 237              		.size	Pv_EINK_ReadByte, .-Pv_EINK_ReadByte
 238              		.section	.text.Pv_EINK_Init,"ax",%progbits
 239              		.align	2
 240              		.global	Pv_EINK_Init
 241              		.thumb
 242              		.thumb_func
 243              		.type	Pv_EINK_Init, %function
 244              	Pv_EINK_Init:
 245              	.LFB650:
 214:pervasive_eink_hardware_driver.c **** 
 215:pervasive_eink_hardware_driver.c **** /*******************************************************************************
 216:pervasive_eink_hardware_driver.c **** * Function Name: void  Pv_EINK_Init()
 217:pervasive_eink_hardware_driver.c **** ********************************************************************************
 218:pervasive_eink_hardware_driver.c **** *
 219:pervasive_eink_hardware_driver.c **** * Summary: Initialize the E-INK display hardware and associated PSoC components.
 220:pervasive_eink_hardware_driver.c **** *
 221:pervasive_eink_hardware_driver.c **** * Parameters:
 222:pervasive_eink_hardware_driver.c **** *  None
 223:pervasive_eink_hardware_driver.c **** *
 224:pervasive_eink_hardware_driver.c **** * Return:
 225:pervasive_eink_hardware_driver.c **** *  None
 226:pervasive_eink_hardware_driver.c **** *
 227:pervasive_eink_hardware_driver.c **** * Side Effects:
 228:pervasive_eink_hardware_driver.c **** *  None
 229:pervasive_eink_hardware_driver.c **** *******************************************************************************/
 230:pervasive_eink_hardware_driver.c **** void Pv_EINK_Init(void)
 231:pervasive_eink_hardware_driver.c **** {
 246              		.loc 1 231 0
 247              		.cfi_startproc
 248              		@ args = 0, pretend = 0, frame = 0
 249              		@ frame_needed = 0, uses_anonymous_args = 0
 250 0000 38B5     		push	{r3, r4, r5, lr}
 251              		.cfi_def_cfa_offset 16
 252              		.cfi_offset 3, -16
 253              		.cfi_offset 4, -12
 254              		.cfi_offset 5, -8
 255              		.cfi_offset 14, -4
 256              	.LVL31:
 257              	.LBB74:
 258              	.LBB75:
 749:Generated_Source\PSoC6\pdl\drivers/peripheral/gpio/cy_gpio.h ****     }
 259              		.loc 2 749 0
 260 0002 0425     		movs	r5, #4
 261 0004 084B     		ldr	r3, .L15
 262 0006 5D60     		str	r5, [r3, #4]
 263              	.LVL32:
 264              	.LBE75:
ARM GAS  C:\Users\User\AppData\Local\Temp\ccsn8eRz.s 			page 23


 265              	.LBE74:
 266              	.LBB76:
 267              	.LBB77:
 268 0008 084C     		ldr	r4, .L15+4
 269 000a 4023     		movs	r3, #64
 270 000c 6360     		str	r3, [r4, #4]
 271              	.LVL33:
 272              	.LBE77:
 273              	.LBE76:
 274              	.LBB78:
 275              	.LBB79:
 276 000e 1023     		movs	r3, #16
 277 0010 6360     		str	r3, [r4, #4]
 278              	.LVL34:
 279              	.LBE79:
 280              	.LBE78:
 232:pervasive_eink_hardware_driver.c ****     /* Enable the level translator located between PSoC and the E-INK display */
 233:pervasive_eink_hardware_driver.c ****     CY_EINK_EnableIO;
 234:pervasive_eink_hardware_driver.c ****     /* Pull the Border pin to LOW */
 235:pervasive_eink_hardware_driver.c ****     CY_EINK_BorderLow;
 236:pervasive_eink_hardware_driver.c ****     /* Disable the load switch connected to E-INK display's Vcc */
 237:pervasive_eink_hardware_driver.c ****     CY_EINK_TurnOffVcc;
 238:pervasive_eink_hardware_driver.c ****     
 239:pervasive_eink_hardware_driver.c ****     /* Initialize the PSoC SPI */
 240:pervasive_eink_hardware_driver.c ****     Cy_EINK_InitSPI();
 281              		.loc 1 240 0
 282 0012 FFF7FEFF 		bl	Cy_EINK_InitSPI
 283              	.LVL35:
 284              	.LBB80:
 285              	.LBB81:
 749:Generated_Source\PSoC6\pdl\drivers/peripheral/gpio/cy_gpio.h ****     }
 286              		.loc 2 749 0
 287 0016 0822     		movs	r2, #8
 288 0018 054B     		ldr	r3, .L15+8
 289 001a 5A60     		str	r2, [r3, #4]
 290              	.LVL36:
 291              	.LBE81:
 292              	.LBE80:
 293              	.LBB82:
 294              	.LBB83:
 295 001c 6560     		str	r5, [r4, #4]
 296              	.LVL37:
 297              	.LBE83:
 298              	.LBE82:
 299              	.LBB84:
 300              	.LBB85:
 301 001e 2023     		movs	r3, #32
 302 0020 6360     		str	r3, [r4, #4]
 303              	.LVL38:
 304              	.LBE85:
 305              	.LBE84:
 241:pervasive_eink_hardware_driver.c ****     /* Pull the chip select, reset and discharge pins to LOW */
 242:pervasive_eink_hardware_driver.c ****     CY_EINK_CsLow;
 243:pervasive_eink_hardware_driver.c ****     CY_EINK_RstLow;
 244:pervasive_eink_hardware_driver.c ****     CY_EINK_DischargeLow;
 245:pervasive_eink_hardware_driver.c ****     
 246:pervasive_eink_hardware_driver.c ****     /* Initialize the E-INK display Timer */
ARM GAS  C:\Users\User\AppData\Local\Temp\ccsn8eRz.s 			page 24


 247:pervasive_eink_hardware_driver.c ****     Cy_EINK_TimerInit();
 306              		.loc 1 247 0
 307 0022 FFF7FEFF 		bl	Cy_EINK_TimerInit
 308              	.LVL39:
 309 0026 38BD     		pop	{r3, r4, r5, pc}
 310              	.L16:
 311              		.align	2
 312              	.L15:
 313 0028 00003240 		.word	1077018624
 314 002c 80023240 		.word	1077019264
 315 0030 00063240 		.word	1077020160
 316              		.cfi_endproc
 317              	.LFE650:
 318              		.size	Pv_EINK_Init, .-Pv_EINK_Init
 319              		.section	.text.Pv_EINK_InitDriver,"ax",%progbits
 320              		.align	2
 321              		.global	Pv_EINK_InitDriver
 322              		.thumb
 323              		.thumb_func
 324              		.type	Pv_EINK_InitDriver, %function
 325              	Pv_EINK_InitDriver:
 326              	.LFB651:
 248:pervasive_eink_hardware_driver.c **** }
 249:pervasive_eink_hardware_driver.c **** 
 250:pervasive_eink_hardware_driver.c **** /*******************************************************************************
 251:pervasive_eink_hardware_driver.c **** * Function Name: Cy_EINK_Status PV_EINK_InitDriver(void)
 252:pervasive_eink_hardware_driver.c **** ********************************************************************************
 253:pervasive_eink_hardware_driver.c **** *
 254:pervasive_eink_hardware_driver.c **** * Summary: Initialize E-INK Driver. For detailed flow and description, please 
 255:pervasive_eink_hardware_driver.c **** * refer to the driver G2 document Section 4.
 256:pervasive_eink_hardware_driver.c **** *
 257:pervasive_eink_hardware_driver.c **** * Parameters:
 258:pervasive_eink_hardware_driver.c **** *  None
 259:pervasive_eink_hardware_driver.c **** *
 260:pervasive_eink_hardware_driver.c **** * Return:
 261:pervasive_eink_hardware_driver.c **** *  pv_eink_status_t: Status of the initialization
 262:pervasive_eink_hardware_driver.c **** *
 263:pervasive_eink_hardware_driver.c **** * Side Effects:
 264:pervasive_eink_hardware_driver.c **** *  None
 265:pervasive_eink_hardware_driver.c **** *******************************************************************************/
 266:pervasive_eink_hardware_driver.c **** pv_eink_status_t Pv_EINK_InitDriver(void)
 267:pervasive_eink_hardware_driver.c **** {
 327              		.loc 1 267 0
 328              		.cfi_startproc
 329              		@ args = 0, pretend = 0, frame = 0
 330              		@ frame_needed = 0, uses_anonymous_args = 0
 331 0000 10B5     		push	{r4, lr}
 332              		.cfi_def_cfa_offset 8
 333              		.cfi_offset 4, -8
 334              		.cfi_offset 14, -4
 335              	.LVL40:
 268:pervasive_eink_hardware_driver.c ****     /* Variable used to count the number of loops */
 269:pervasive_eink_hardware_driver.c ****     uint16_t    loopCounter = 0;
 270:pervasive_eink_hardware_driver.c ****     
 271:pervasive_eink_hardware_driver.c ****     /* Clear the line buffer with all zeros */
 272:pervasive_eink_hardware_driver.c ****     memset(&driverPacket.lineBuffer, 0, sizeof(driverPacket.lineBuffer)) ;
 336              		.loc 1 272 0
ARM GAS  C:\Users\User\AppData\Local\Temp\ccsn8eRz.s 			page 25


 337 0002 434C     		ldr	r4, .L30
 338 0004 6F22     		movs	r2, #111
 339 0006 0021     		movs	r1, #0
 340 0008 2046     		mov	r0, r4
 341 000a FFF7FEFF 		bl	memset
 342              	.LVL41:
 273:pervasive_eink_hardware_driver.c ****     
 274:pervasive_eink_hardware_driver.c ****     /* Initialize the even data, odd data and scan data pointers */
 275:pervasive_eink_hardware_driver.c ****     dataLineEven = &driverPacket.lineDataBySize.even[0];
 343              		.loc 1 275 0
 344 000e 631C     		adds	r3, r4, #1
 345 0010 2367     		str	r3, [r4, #112]
 276:pervasive_eink_hardware_driver.c ****     dataLineOdd  = &driverPacket.lineDataBySize.odd[0];
 346              		.loc 1 276 0
 347 0012 04F14E03 		add	r3, r4, #78
 348 0016 6367     		str	r3, [r4, #116]
 277:pervasive_eink_hardware_driver.c ****     dataLineScan = &driverPacket.lineDataBySize.scan[0];
 349              		.loc 1 277 0
 350 0018 04F12203 		add	r3, r4, #34
 351 001c A367     		str	r3, [r4, #120]
 278:pervasive_eink_hardware_driver.c ****     
 279:pervasive_eink_hardware_driver.c ****     /* Initialize and start the E-INK Timer   */
 280:pervasive_eink_hardware_driver.c ****     Cy_EINK_TimerInit();
 352              		.loc 1 280 0
 353 001e FFF7FEFF 		bl	Cy_EINK_TimerInit
 354              	.LVL42:
 281:pervasive_eink_hardware_driver.c ****         
 282:pervasive_eink_hardware_driver.c ****     /* Check if E-INK driver is busy */
 283:pervasive_eink_hardware_driver.c ****     while (Cy_EINK_IsBusy())
 355              		.loc 1 283 0
 356 0022 03E0     		b	.L18
 357              	.L20:
 284:pervasive_eink_hardware_driver.c ****     {
 285:pervasive_eink_hardware_driver.c ****         /* If the E-INK driver is busy for more than maximum allowed time,
 286:pervasive_eink_hardware_driver.c ****            return an error message */
 287:pervasive_eink_hardware_driver.c ****         if (Cy_EINK_GetTimeTick() == PV_EINK_MAX_PV_EINK_BUSY_TIME)
 358              		.loc 1 287 0
 359 0024 FFF7FEFF 		bl	Cy_EINK_GetTimeTick
 360              	.LVL43:
 361 0028 0428     		cmp	r0, #4
 362 002a 68D0     		beq	.L24
 363              	.L18:
 283:pervasive_eink_hardware_driver.c ****     {
 364              		.loc 1 283 0
 365 002c FFF7FEFF 		bl	Cy_EINK_IsBusy
 366              	.LVL44:
 367 0030 0028     		cmp	r0, #0
 368 0032 F7D1     		bne	.L20
 288:pervasive_eink_hardware_driver.c ****         {
 289:pervasive_eink_hardware_driver.c ****             return(PV_EINK_ERROR_BUSY);
 290:pervasive_eink_hardware_driver.c ****         }
 291:pervasive_eink_hardware_driver.c ****     }
 292:pervasive_eink_hardware_driver.c ****     
 293:pervasive_eink_hardware_driver.c ****     /* Stop the E-INK Timer */
 294:pervasive_eink_hardware_driver.c ****     Cy_EINK_TimerStop();
 369              		.loc 1 294 0
 370 0034 FFF7FEFF 		bl	Cy_EINK_TimerStop
ARM GAS  C:\Users\User\AppData\Local\Temp\ccsn8eRz.s 			page 26


 371              	.LVL45:
 295:pervasive_eink_hardware_driver.c ****     
 296:pervasive_eink_hardware_driver.c ****     /* Check the driver ID */
 297:pervasive_eink_hardware_driver.c ****     if ((Pv_EINK_ReadByte(PV_EINK_DRIVER_ID_COMMAND_INDEX, 
 372              		.loc 1 297 0
 373 0038 0021     		movs	r1, #0
 374 003a 7220     		movs	r0, #114
 375 003c FFF7FEFF 		bl	Pv_EINK_ReadByte
 376              	.LVL46:
 377 0040 00F00F00 		and	r0, r0, #15
 378 0044 0228     		cmp	r0, #2
 379 0046 5CD1     		bne	.L25
 298:pervasive_eink_hardware_driver.c ****                           PV_EINK_DRIVER_ID_COMMAND_DATA)
 299:pervasive_eink_hardware_driver.c ****                           & PV_EINK_DRIVER_ID_MASK)
 300:pervasive_eink_hardware_driver.c ****                           != PV_EINK_DRIVER_ID_CHECK)
 301:pervasive_eink_hardware_driver.c ****     {
 302:pervasive_eink_hardware_driver.c ****         /* Return an error message if incorrect driver ID is received */
 303:pervasive_eink_hardware_driver.c ****         return(PV_EINK_ERROR_ID);
 304:pervasive_eink_hardware_driver.c ****     }
 305:pervasive_eink_hardware_driver.c ****     /* Disable OE */
 306:pervasive_eink_hardware_driver.c ****     Pv_EINK_SendByte(PV_EINK_DISABLE_OE_COMMAND_INDEX, 
 380              		.loc 1 306 0
 381 0048 4021     		movs	r1, #64
 382 004a FFF7FEFF 		bl	Pv_EINK_SendByte
 383              	.LVL47:
 307:pervasive_eink_hardware_driver.c ****                      PV_EINK_DISABLE_OE_COMMAND_DATA);
 308:pervasive_eink_hardware_driver.c ****     
 309:pervasive_eink_hardware_driver.c ****     /* Check Breakage */
 310:pervasive_eink_hardware_driver.c ****     if ((Pv_EINK_ReadByte(PV_EINK_TEST_BREAKAGE_COMMAND_INDEX,
 384              		.loc 1 310 0
 385 004e 0021     		movs	r1, #0
 386 0050 0F20     		movs	r0, #15
 387 0052 FFF7FEFF 		bl	Pv_EINK_ReadByte
 388              	.LVL48:
 389 0056 10F0800F 		tst	r0, #128
 390 005a 54D0     		beq	.L26
 311:pervasive_eink_hardware_driver.c ****                           PV_EINK_TEST_BREAKAGE_COMMAND_DATA) & 
 312:pervasive_eink_hardware_driver.c ****                           PV_EINK_TEST_BREAKAGE_MASK)
 313:pervasive_eink_hardware_driver.c ****                           != PV_EINK_TEST_BREAKAGE_CHECK)
 314:pervasive_eink_hardware_driver.c ****     {
 315:pervasive_eink_hardware_driver.c ****         /* Send the error message for breakage */
 316:pervasive_eink_hardware_driver.c ****         return(PV_EINK_ERROR_BREAKAGE);
 317:pervasive_eink_hardware_driver.c ****     }
 318:pervasive_eink_hardware_driver.c ****     /* Power Saving Mode */
 319:pervasive_eink_hardware_driver.c ****     Pv_EINK_SendByte(PV_EINK_PWR_SAVING_COMMAND_INDEX, 
 391              		.loc 1 319 0
 392 005c 0221     		movs	r1, #2
 393 005e 0B20     		movs	r0, #11
 394 0060 FFF7FEFF 		bl	Pv_EINK_SendByte
 395              	.LVL49:
 320:pervasive_eink_hardware_driver.c ****                   PV_EINK_PWR1_SAVING_COMMAND_DATA);
 321:pervasive_eink_hardware_driver.c ****     
 322:pervasive_eink_hardware_driver.c ****     /* Channel Select */
 323:pervasive_eink_hardware_driver.c ****     Pv_EINK_SendData(PV_EINK_CHANNEL_SEL_COMMAND_INDEX, 
 396              		.loc 1 323 0
 397 0064 0822     		movs	r2, #8
 398 0066 2B49     		ldr	r1, .L30+4
ARM GAS  C:\Users\User\AppData\Local\Temp\ccsn8eRz.s 			page 27


 399 0068 0120     		movs	r0, #1
 400 006a FFF7FEFF 		bl	Pv_EINK_SendData
 401              	.LVL50:
 324:pervasive_eink_hardware_driver.c ****                     (uint8_t*) &channelSelect,
 325:pervasive_eink_hardware_driver.c ****                      PV_EINK_CHANNEL_SEL_SIZE);
 326:pervasive_eink_hardware_driver.c ****     
 327:pervasive_eink_hardware_driver.c ****     /* High Power Mode Oscillator Setting */
 328:pervasive_eink_hardware_driver.c ****     Pv_EINK_SendByte(PV_EINK_OSC_SETTING_COMMAND_INDEX, 
 402              		.loc 1 328 0
 403 006e D121     		movs	r1, #209
 404 0070 0720     		movs	r0, #7
 405 0072 FFF7FEFF 		bl	Pv_EINK_SendByte
 406              	.LVL51:
 329:pervasive_eink_hardware_driver.c ****                      PV_EINK_OSC_SETTING_COMMAND_DATA);
 330:pervasive_eink_hardware_driver.c ****     /* Power Setting */
 331:pervasive_eink_hardware_driver.c ****     Pv_EINK_SendByte(PV_EINK_PWR1_SETTING_COMMAND_INDEX,
 407              		.loc 1 331 0
 408 0076 0221     		movs	r1, #2
 409 0078 0820     		movs	r0, #8
 410 007a FFF7FEFF 		bl	Pv_EINK_SendByte
 411              	.LVL52:
 332:pervasive_eink_hardware_driver.c ****                      PV_EINK_PWR1_SETTING_COMMAND_DATA);
 333:pervasive_eink_hardware_driver.c ****     /* Set Vcom level */
 334:pervasive_eink_hardware_driver.c ****     Pv_EINK_SendByte(PV_EINK_VCOM1_LEVEL_COMMAND_INDEX, 
 412              		.loc 1 334 0
 413 007e C221     		movs	r1, #194
 414 0080 0920     		movs	r0, #9
 415 0082 FFF7FEFF 		bl	Pv_EINK_SendByte
 416              	.LVL53:
 335:pervasive_eink_hardware_driver.c ****                      PV_EINK_VCOM1_LEVEL_COMMAND_DATA);
 336:pervasive_eink_hardware_driver.c ****     /* Power Setting */
 337:pervasive_eink_hardware_driver.c ****     Pv_EINK_SendByte(PV_EINK_PWR2_SETTING_COMMAND_INDEX,
 417              		.loc 1 337 0
 418 0086 0321     		movs	r1, #3
 419 0088 0420     		movs	r0, #4
 420 008a FFF7FEFF 		bl	Pv_EINK_SendByte
 421              	.LVL54:
 338:pervasive_eink_hardware_driver.c ****                      PV_EINK_PWR2_SETTING_COMMAND_DATA);
 339:pervasive_eink_hardware_driver.c ****                   
 340:pervasive_eink_hardware_driver.c ****     /* Driver latch on */
 341:pervasive_eink_hardware_driver.c ****     Pv_EINK_SendByte(PV_EINK_LATCH_OFF_COMMAND_INDEX,
 422              		.loc 1 341 0
 423 008e 0121     		movs	r1, #1
 424 0090 0320     		movs	r0, #3
 425 0092 FFF7FEFF 		bl	Pv_EINK_SendByte
 426              	.LVL55:
 342:pervasive_eink_hardware_driver.c ****                      PV_EINK_LATCH_ON_COMMAND_DATA);
 343:pervasive_eink_hardware_driver.c ****     /* Driver latch off */
 344:pervasive_eink_hardware_driver.c ****     Pv_EINK_SendByte(PV_EINK_LATCH_OFF_COMMAND_INDEX, 
 427              		.loc 1 344 0
 428 0096 0021     		movs	r1, #0
 429 0098 0320     		movs	r0, #3
 430 009a FFF7FEFF 		bl	Pv_EINK_SendByte
 431              	.LVL56:
 345:pervasive_eink_hardware_driver.c ****                      PV_EINK_LATCH_OFF_COMMAND_DATA);
 346:pervasive_eink_hardware_driver.c ****     CY_EINK_Delay(PV_EINK_PIN_DELAY);
 432              		.loc 1 346 0
ARM GAS  C:\Users\User\AppData\Local\Temp\ccsn8eRz.s 			page 28


 433 009e 0A20     		movs	r0, #10
 434 00a0 FFF7FEFF 		bl	Cy_SysLib_Delay
 435              	.LVL57:
 269:pervasive_eink_hardware_driver.c ****     
 436              		.loc 1 269 0
 437 00a4 0024     		movs	r4, #0
 438 00a6 00E0     		b	.L23
 439              	.LVL58:
 440              	.L27:
 347:pervasive_eink_hardware_driver.c ****     
 348:pervasive_eink_hardware_driver.c ****     /* Start the charge pump */
 349:pervasive_eink_hardware_driver.c ****     do
 350:pervasive_eink_hardware_driver.c ****     {
 351:pervasive_eink_hardware_driver.c ****         /* Start charge pump positive voltage (VGH & VDH on) */
 352:pervasive_eink_hardware_driver.c ****         Pv_EINK_SendByte(PV_EINK_VGH_VDH_ON_COMMAND_INDEX,
 353:pervasive_eink_hardware_driver.c ****                       PV_EINK_VGH_VDH_ON_COMMAND_DATA);
 354:pervasive_eink_hardware_driver.c ****         CY_EINK_Delay(PV_EINK_POSITIVE_V_DELAY);
 355:pervasive_eink_hardware_driver.c ****         
 356:pervasive_eink_hardware_driver.c ****         /* Start charge pump negative voltage (VGL & VDL on) */
 357:pervasive_eink_hardware_driver.c ****         Pv_EINK_SendByte(PV_EINK_VGH_VDH_ON_COMMAND_INDEX,
 358:pervasive_eink_hardware_driver.c ****                       PV_EINK_VGL_VDL_ON_COMMAND_DATA);
 359:pervasive_eink_hardware_driver.c ****         CY_EINK_Delay(PV_EINK_PWR_CTRL_DELAY);
 360:pervasive_eink_hardware_driver.c ****         
 361:pervasive_eink_hardware_driver.c ****         /* Set charge pump (Vcom_Driver on) */
 362:pervasive_eink_hardware_driver.c ****         Pv_EINK_SendByte(PV_EINK_VCOM_DRIVE_ON_COMMAND_INDEX,
 363:pervasive_eink_hardware_driver.c ****                       PV_EINK_VCOM_DRIVE_ON_COMMAND_DATA);
 364:pervasive_eink_hardware_driver.c ****         CY_EINK_Delay(PV_EINK_PWR_CTRL_DELAY);
 365:pervasive_eink_hardware_driver.c ****         
 366:pervasive_eink_hardware_driver.c ****         /* Check DC level */
 367:pervasive_eink_hardware_driver.c ****         if ((Pv_EINK_ReadByte(PV_EINK_DC_LEVEL_READ_COMMAND_INDEX,
 368:pervasive_eink_hardware_driver.c ****                            PV_EINK_DC_LEVEL_READ_COMMAND_DATA) & 
 369:pervasive_eink_hardware_driver.c ****                            PV_EINK_DC_LEVEL_MASK)
 370:pervasive_eink_hardware_driver.c ****                            != PV_EINK_DC_LEVEL_CHECK)
 371:pervasive_eink_hardware_driver.c ****         {
 372:pervasive_eink_hardware_driver.c ****             /* Disable OLE */
 373:pervasive_eink_hardware_driver.c ****             Pv_EINK_SendByte(PV_EINK_DISABLE_OE_COMMAND_INDEX,
 374:pervasive_eink_hardware_driver.c ****                           PV_EINK_DISABLE_OE_COMMAND_DATA);
 375:pervasive_eink_hardware_driver.c ****             break;
 376:pervasive_eink_hardware_driver.c ****         }
 377:pervasive_eink_hardware_driver.c ****     }
 378:pervasive_eink_hardware_driver.c ****     /* Perform this operation for required charge pump write cycles */
 379:pervasive_eink_hardware_driver.c ****     while ((loopCounter++) != PV_EINK_CHARGE_PUMP_MAX_WRITE);
 441              		.loc 1 379 0
 442 00a8 1C46     		mov	r4, r3
 443              	.LVL59:
 444              	.L23:
 352:pervasive_eink_hardware_driver.c ****                       PV_EINK_VGH_VDH_ON_COMMAND_DATA);
 445              		.loc 1 352 0
 446 00aa 0121     		movs	r1, #1
 447 00ac 0520     		movs	r0, #5
 448 00ae FFF7FEFF 		bl	Pv_EINK_SendByte
 449              	.LVL60:
 354:pervasive_eink_hardware_driver.c ****         
 450              		.loc 1 354 0
 451 00b2 6420     		movs	r0, #100
 452 00b4 FFF7FEFF 		bl	Cy_SysLib_Delay
 453              	.LVL61:
ARM GAS  C:\Users\User\AppData\Local\Temp\ccsn8eRz.s 			page 29


 357:pervasive_eink_hardware_driver.c ****                       PV_EINK_VGL_VDL_ON_COMMAND_DATA);
 454              		.loc 1 357 0
 455 00b8 0321     		movs	r1, #3
 456 00ba 0520     		movs	r0, #5
 457 00bc FFF7FEFF 		bl	Pv_EINK_SendByte
 458              	.LVL62:
 359:pervasive_eink_hardware_driver.c ****         
 459              		.loc 1 359 0
 460 00c0 3220     		movs	r0, #50
 461 00c2 FFF7FEFF 		bl	Cy_SysLib_Delay
 462              	.LVL63:
 362:pervasive_eink_hardware_driver.c ****                       PV_EINK_VCOM_DRIVE_ON_COMMAND_DATA);
 463              		.loc 1 362 0
 464 00c6 0F21     		movs	r1, #15
 465 00c8 0520     		movs	r0, #5
 466 00ca FFF7FEFF 		bl	Pv_EINK_SendByte
 467              	.LVL64:
 364:pervasive_eink_hardware_driver.c ****         
 468              		.loc 1 364 0
 469 00ce 3220     		movs	r0, #50
 470 00d0 FFF7FEFF 		bl	Cy_SysLib_Delay
 471              	.LVL65:
 367:pervasive_eink_hardware_driver.c ****                            PV_EINK_DC_LEVEL_READ_COMMAND_DATA) & 
 472              		.loc 1 367 0
 473 00d4 0021     		movs	r1, #0
 474 00d6 0F20     		movs	r0, #15
 475 00d8 FFF7FEFF 		bl	Pv_EINK_ReadByte
 476              	.LVL66:
 477 00dc 10F0400F 		tst	r0, #64
 478 00e0 05D0     		beq	.L21
 373:pervasive_eink_hardware_driver.c ****                           PV_EINK_DISABLE_OE_COMMAND_DATA);
 479              		.loc 1 373 0
 480 00e2 4021     		movs	r1, #64
 481 00e4 0220     		movs	r0, #2
 482 00e6 FFF7FEFF 		bl	Pv_EINK_SendByte
 483              	.LVL67:
 375:pervasive_eink_hardware_driver.c ****         }
 484              		.loc 1 375 0
 485 00ea 2346     		mov	r3, r4
 486 00ec 03E0     		b	.L22
 487              	.L21:
 488              		.loc 1 379 0
 489 00ee 631C     		adds	r3, r4, #1
 490 00f0 9BB2     		uxth	r3, r3
 491              	.LVL68:
 492 00f2 042C     		cmp	r4, #4
 493 00f4 D8D1     		bne	.L27
 494              	.LVL69:
 495              	.L22:
 380:pervasive_eink_hardware_driver.c ****     
 381:pervasive_eink_hardware_driver.c ****     /* If the operation not completed within the required write cycles, send an 
 382:pervasive_eink_hardware_driver.c ****        error message */
 383:pervasive_eink_hardware_driver.c ****     if (loopCounter >= PV_EINK_CHARGE_PUMP_MAX_WRITE)
 496              		.loc 1 383 0
 497 00f6 032B     		cmp	r3, #3
 498 00f8 07D9     		bls	.L28
 384:pervasive_eink_hardware_driver.c ****     {
ARM GAS  C:\Users\User\AppData\Local\Temp\ccsn8eRz.s 			page 30


 385:pervasive_eink_hardware_driver.c ****         CY_EINK_Wait10uS;
 386:pervasive_eink_hardware_driver.c ****         return(PV_EINK_ERROR_CHARGEPUMP);
 499              		.loc 1 386 0
 500 00fa 0520     		movs	r0, #5
 501 00fc 10BD     		pop	{r4, pc}
 502              	.LVL70:
 503              	.L24:
 289:pervasive_eink_hardware_driver.c ****         }
 504              		.loc 1 289 0
 505 00fe 0120     		movs	r0, #1
 506 0100 10BD     		pop	{r4, pc}
 507              	.L25:
 303:pervasive_eink_hardware_driver.c ****     }
 508              		.loc 1 303 0
 509 0102 0220     		movs	r0, #2
 510 0104 10BD     		pop	{r4, pc}
 511              	.L26:
 316:pervasive_eink_hardware_driver.c ****     }
 512              		.loc 1 316 0
 513 0106 0320     		movs	r0, #3
 514 0108 10BD     		pop	{r4, pc}
 515              	.LVL71:
 516              	.L28:
 387:pervasive_eink_hardware_driver.c ****     }
 388:pervasive_eink_hardware_driver.c ****     /* If all operations completed successfully, send the corresponding status 
 389:pervasive_eink_hardware_driver.c ****        message */
 390:pervasive_eink_hardware_driver.c ****     return(PV_EINK_RES_OK);
 517              		.loc 1 390 0
 518 010a 0020     		movs	r0, #0
 391:pervasive_eink_hardware_driver.c **** }
 519              		.loc 1 391 0
 520 010c 10BD     		pop	{r4, pc}
 521              	.L31:
 522 010e 00BF     		.align	2
 523              	.L30:
 524 0110 00000000 		.word	.LANCHOR0
 525 0114 00000000 		.word	.LANCHOR1
 526              		.cfi_endproc
 527              	.LFE651:
 528              		.size	Pv_EINK_InitDriver, .-Pv_EINK_InitDriver
 529              		.section	.text.Pv_EINK_SetTempFactor,"ax",%progbits
 530              		.align	2
 531              		.global	Pv_EINK_SetTempFactor
 532              		.thumb
 533              		.thumb_func
 534              		.type	Pv_EINK_SetTempFactor, %function
 535              	Pv_EINK_SetTempFactor:
 536              	.LFB652:
 392:pervasive_eink_hardware_driver.c **** 
 393:pervasive_eink_hardware_driver.c **** /*******************************************************************************
 394:pervasive_eink_hardware_driver.c **** * Function Name: void Pv_EINK_SetTempFactor(int8_t temperature)
 395:pervasive_eink_hardware_driver.c **** ********************************************************************************
 396:pervasive_eink_hardware_driver.c **** *
 397:pervasive_eink_hardware_driver.c **** * Summary: Set the E-INK update times per the ambient temperature. For detailed
 398:pervasive_eink_hardware_driver.c **** * flow and description, please refer to the driver G2 document Section 5.4.
 399:pervasive_eink_hardware_driver.c **** *
 400:pervasive_eink_hardware_driver.c **** * Parameters:
ARM GAS  C:\Users\User\AppData\Local\Temp\ccsn8eRz.s 			page 31


 401:pervasive_eink_hardware_driver.c **** * int8_t temperature: Ambient temperature in degree Celsius
 402:pervasive_eink_hardware_driver.c **** *
 403:pervasive_eink_hardware_driver.c **** * Return:
 404:pervasive_eink_hardware_driver.c **** *  None
 405:pervasive_eink_hardware_driver.c **** *
 406:pervasive_eink_hardware_driver.c **** * Side Effects:
 407:pervasive_eink_hardware_driver.c **** *  None
 408:pervasive_eink_hardware_driver.c **** *******************************************************************************/
 409:pervasive_eink_hardware_driver.c **** void Pv_EINK_SetTempFactor(int8_t temperature)
 410:pervasive_eink_hardware_driver.c **** {
 537              		.loc 1 410 0
 538              		.cfi_startproc
 539              		@ args = 0, pretend = 0, frame = 0
 540              		@ frame_needed = 0, uses_anonymous_args = 0
 541              		@ link register save eliminated.
 542              	.LVL72:
 411:pervasive_eink_hardware_driver.c ****     /* Variable used to store the update time */
 412:pervasive_eink_hardware_driver.c ****     uint16_t    updateTime;
 413:pervasive_eink_hardware_driver.c ****     /* Set the update time per the temperature table */
 414:pervasive_eink_hardware_driver.c ****     if (PV_EINK_TEMP_DEG_M10 >= temperature)
 543              		.loc 1 414 0
 544 0000 10F1090F 		cmn	r0, #9
 545 0004 0EDB     		blt	.L34
 415:pervasive_eink_hardware_driver.c ****     {
 416:pervasive_eink_hardware_driver.c ****         updateTime = PV_EINK_TEMP_SEL0;
 417:pervasive_eink_hardware_driver.c ****     }
 418:pervasive_eink_hardware_driver.c ****     else if (PV_EINK_TEMP_DEG_M5 >= temperature)
 546              		.loc 1 418 0
 547 0006 10F1040F 		cmn	r0, #4
 548 000a 0EDB     		blt	.L35
 419:pervasive_eink_hardware_driver.c ****     {
 420:pervasive_eink_hardware_driver.c ****         updateTime = PV_EINK_TEMP_SEL1;
 421:pervasive_eink_hardware_driver.c ****     }
 422:pervasive_eink_hardware_driver.c ****     else if (PV_EINK_TEMP_DEG_5 >= temperature)
 549              		.loc 1 422 0
 550 000c 0528     		cmp	r0, #5
 551 000e 0FDD     		ble	.L36
 423:pervasive_eink_hardware_driver.c ****     {
 424:pervasive_eink_hardware_driver.c ****         updateTime = PV_EINK_TEMP_SEL2;
 425:pervasive_eink_hardware_driver.c ****     }
 426:pervasive_eink_hardware_driver.c ****     else if (PV_EINK_TEMP_DEG_10 >= temperature)
 552              		.loc 1 426 0
 553 0010 0A28     		cmp	r0, #10
 554 0012 10DD     		ble	.L37
 427:pervasive_eink_hardware_driver.c ****     {
 428:pervasive_eink_hardware_driver.c ****         updateTime = PV_EINK_TEMP_SEL3;
 429:pervasive_eink_hardware_driver.c ****     }
 430:pervasive_eink_hardware_driver.c ****     else if (PV_EINK_TEMP_DEG_15 >= temperature)
 555              		.loc 1 430 0
 556 0014 0F28     		cmp	r0, #15
 557 0016 11DD     		ble	.L38
 431:pervasive_eink_hardware_driver.c ****     {
 432:pervasive_eink_hardware_driver.c ****         updateTime = PV_EINK_TEMP_SEL4;
 433:pervasive_eink_hardware_driver.c ****     }
 434:pervasive_eink_hardware_driver.c ****     else if (PV_EINK_TEMP_DEG_20 >= temperature)
 558              		.loc 1 434 0
 559 0018 1428     		cmp	r0, #20
ARM GAS  C:\Users\User\AppData\Local\Temp\ccsn8eRz.s 			page 32


 560 001a 11DD     		ble	.L39
 435:pervasive_eink_hardware_driver.c ****     {
 436:pervasive_eink_hardware_driver.c ****         updateTime = PV_EINK_TEMP_SEL5;
 437:pervasive_eink_hardware_driver.c ****     }
 438:pervasive_eink_hardware_driver.c ****     else if (PV_EINK_TEMP_DEG_40 >= temperature)
 561              		.loc 1 438 0
 562 001c 2828     		cmp	r0, #40
 563 001e 11DC     		bgt	.L40
 439:pervasive_eink_hardware_driver.c ****     {
 440:pervasive_eink_hardware_driver.c ****         updateTime = PV_EINK_TEMP_SEL6;
 564              		.loc 1 440 0
 565 0020 5A22     		movs	r2, #90
 566 0022 10E0     		b	.L33
 567              	.L34:
 416:pervasive_eink_hardware_driver.c ****     }
 568              		.loc 1 416 0
 569 0024 4FF49662 		mov	r2, #1200
 570 0028 0DE0     		b	.L33
 571              	.L35:
 420:pervasive_eink_hardware_driver.c ****     }
 572              		.loc 1 420 0
 573 002a 4FF46172 		mov	r2, #900
 574 002e 0AE0     		b	.L33
 575              	.L36:
 424:pervasive_eink_hardware_driver.c ****     }
 576              		.loc 1 424 0
 577 0030 4FF41672 		mov	r2, #600
 578 0034 07E0     		b	.L33
 579              	.L37:
 428:pervasive_eink_hardware_driver.c ****     }
 580              		.loc 1 428 0
 581 0036 4FF4A572 		mov	r2, #330
 582 003a 04E0     		b	.L33
 583              	.L38:
 432:pervasive_eink_hardware_driver.c ****     }
 584              		.loc 1 432 0
 585 003c DC22     		movs	r2, #220
 586 003e 02E0     		b	.L33
 587              	.L39:
 436:pervasive_eink_hardware_driver.c ****     }
 588              		.loc 1 436 0
 589 0040 B422     		movs	r2, #180
 590 0042 00E0     		b	.L33
 591              	.L40:
 441:pervasive_eink_hardware_driver.c ****     }
 442:pervasive_eink_hardware_driver.c ****     else
 443:pervasive_eink_hardware_driver.c ****     {
 444:pervasive_eink_hardware_driver.c ****         updateTime = PV_EINK_TEMP_SEL7;
 592              		.loc 1 444 0
 593 0044 3C22     		movs	r2, #60
 594              	.L33:
 595              	.LVL73:
 445:pervasive_eink_hardware_driver.c ****     }
 446:pervasive_eink_hardware_driver.c ****     /* Scale the update times : this is a speed-contrast trade-off */
 447:pervasive_eink_hardware_driver.c ****     fullUpdateTime = updateTime * PV_EINK_SCALING_FULL;
 596              		.loc 1 447 0
 597 0046 034B     		ldr	r3, .L41
ARM GAS  C:\Users\User\AppData\Local\Temp\ccsn8eRz.s 			page 33


 598 0048 A3F87C20 		strh	r2, [r3, #124]	@ movhi
 448:pervasive_eink_hardware_driver.c ****     partialUpdateTime = updateTime * PV_EINK_SCALING_PARTIAL;
 599              		.loc 1 448 0
 600 004c A3F87E20 		strh	r2, [r3, #126]	@ movhi
 601 0050 7047     		bx	lr
 602              	.L42:
 603 0052 00BF     		.align	2
 604              	.L41:
 605 0054 00000000 		.word	.LANCHOR0
 606              		.cfi_endproc
 607              	.LFE652:
 608              		.size	Pv_EINK_SetTempFactor, .-Pv_EINK_SetTempFactor
 609              		.section	.text.Pv_EINK_FullStageHandler,"ax",%progbits
 610              		.align	2
 611              		.global	Pv_EINK_FullStageHandler
 612              		.thumb
 613              		.thumb_func
 614              		.type	Pv_EINK_FullStageHandler, %function
 615              	Pv_EINK_FullStageHandler:
 616              	.LFB653:
 449:pervasive_eink_hardware_driver.c **** }
 450:pervasive_eink_hardware_driver.c **** 
 451:pervasive_eink_hardware_driver.c **** /*******************************************************************************
 452:pervasive_eink_hardware_driver.c **** * Function Name: void Pv_EINK_FullStageHandler(pv_eink_frame_data_t* imagePtr,
 453:pervasive_eink_hardware_driver.c **** *                                              pv_eink_stage_t stageNumber)
 454:pervasive_eink_hardware_driver.c **** ********************************************************************************
 455:pervasive_eink_hardware_driver.c **** *
 456:pervasive_eink_hardware_driver.c **** * Summary: The full update driving stages for getting Odd and Even bytes, and
 457:pervasive_eink_hardware_driver.c **** * then writing the data from memory array to E-INK driver.
 458:pervasive_eink_hardware_driver.c **** *
 459:pervasive_eink_hardware_driver.c **** * One dot/pixel is comprised of 2 bits that can be White(10), Black(11) or 
 460:pervasive_eink_hardware_driver.c **** * Nothing * (01 or 00). The image data bytes must be divided into Odd and Even 
 461:pervasive_eink_hardware_driver.c **** * bytes.
 462:pervasive_eink_hardware_driver.c **** * Line data flow is first half of data bytes -> scan bytes -> second half of data
 463:pervasive_eink_hardware_driver.c **** * bytes. For more details on the driving stages, please refer to the driver G2
 464:pervasive_eink_hardware_driver.c **** * document Section 5.
 465:pervasive_eink_hardware_driver.c **** *
 466:pervasive_eink_hardware_driver.c **** * Parameters:
 467:pervasive_eink_hardware_driver.c **** * pv_eink_frame_data_t* imagePtr    : The pointer to the memory that contains a
 468:pervasive_eink_hardware_driver.c **** *                                     frame
 469:pervasive_eink_hardware_driver.c **** * pv_eink_stage_t stageNumber       : The assigned stage number
 470:pervasive_eink_hardware_driver.c **** *
 471:pervasive_eink_hardware_driver.c **** * Return:
 472:pervasive_eink_hardware_driver.c **** *  None
 473:pervasive_eink_hardware_driver.c **** *
 474:pervasive_eink_hardware_driver.c **** * Side Effects:
 475:pervasive_eink_hardware_driver.c **** *  This is a blocking function. CPU will be busy during the entire operation,
 476:pervasive_eink_hardware_driver.c **** * which can be 1 to 2 seconds.
 477:pervasive_eink_hardware_driver.c **** *******************************************************************************/
 478:pervasive_eink_hardware_driver.c **** void Pv_EINK_FullStageHandler(pv_eink_frame_data_t* imagePtr, 
 479:pervasive_eink_hardware_driver.c ****                               pv_eink_stage_t stageNumber)
 480:pervasive_eink_hardware_driver.c **** {
 617              		.loc 1 480 0
 618              		.cfi_startproc
 619              		@ args = 0, pretend = 0, frame = 0
 620              		@ frame_needed = 0, uses_anonymous_args = 0
 621              	.LVL74:
ARM GAS  C:\Users\User\AppData\Local\Temp\ccsn8eRz.s 			page 34


 622 0000 2DE9F84F 		push	{r3, r4, r5, r6, r7, r8, r9, r10, fp, lr}
 623              		.cfi_def_cfa_offset 40
 624              		.cfi_offset 3, -40
 625              		.cfi_offset 4, -36
 626              		.cfi_offset 5, -32
 627              		.cfi_offset 6, -28
 628              		.cfi_offset 7, -24
 629              		.cfi_offset 8, -20
 630              		.cfi_offset 9, -16
 631              		.cfi_offset 10, -12
 632              		.cfi_offset 11, -8
 633              		.cfi_offset 14, -4
 634 0004 0646     		mov	r6, r0
 635 0006 0D46     		mov	r5, r1
 636              	.LVL75:
 481:pervasive_eink_hardware_driver.c ****     /* Counter variable for the horizontal pixel loop */
 482:pervasive_eink_hardware_driver.c ****     uint16_t    x;
 483:pervasive_eink_hardware_driver.c ****     /* Counter variable for the vertical pixel loop */
 484:pervasive_eink_hardware_driver.c ****     uint16_t    y;
 485:pervasive_eink_hardware_driver.c ****     /* Counter variable for the horizontal byte loop */
 486:pervasive_eink_hardware_driver.c ****     uint16_t    k;
 487:pervasive_eink_hardware_driver.c ****       
 488:pervasive_eink_hardware_driver.c ****     /* Variable for storing the line number under scan */
 489:pervasive_eink_hardware_driver.c ****     int16       scanlineNumber = 0;
 490:pervasive_eink_hardware_driver.c ****     
 491:pervasive_eink_hardware_driver.c ****     /* Temporary storage for image data byte */
 492:pervasive_eink_hardware_driver.c ****     uint8_t     tempByte = *imagePtr;
 637              		.loc 1 492 0
 638 0008 0478     		ldrb	r4, [r0]	@ zero_extendqisi2
 639              	.LVL76:
 493:pervasive_eink_hardware_driver.c ****     
 494:pervasive_eink_hardware_driver.c ****     /* Flag to check if the current pointer is a macro of white/black frame */
 495:pervasive_eink_hardware_driver.c ****     bool        blackOrWhiteFrame;
 496:pervasive_eink_hardware_driver.c ****     
 497:pervasive_eink_hardware_driver.c ****     /* If the current pointer is a macro of the white frame */
 498:pervasive_eink_hardware_driver.c ****     if (imagePtr == PV_EINK_WHITE_FRAME_ADDRESS)
 640              		.loc 1 498 0
 641 000a 28B1     		cbz	r0, .L92
 499:pervasive_eink_hardware_driver.c ****     {
 500:pervasive_eink_hardware_driver.c ****         /* Set the white/black frame flag */
 501:pervasive_eink_hardware_driver.c ****         blackOrWhiteFrame = true;
 502:pervasive_eink_hardware_driver.c ****         /* Set the tempByte to white pixel byte */
 503:pervasive_eink_hardware_driver.c ****         tempByte = PV_EINK_WHITE_PIXEL_BYTE;
 504:pervasive_eink_hardware_driver.c ****         
 505:pervasive_eink_hardware_driver.c ****     }
 506:pervasive_eink_hardware_driver.c ****     /* If the current pointer is a macro of the black frame */
 507:pervasive_eink_hardware_driver.c ****     else if (imagePtr == PV_EINK_BLACK_FRAME_ADDRESS)
 642              		.loc 1 507 0
 643 000c CA4B     		ldr	r3, .L127
 644 000e 9842     		cmp	r0, r3
 645 0010 05D1     		bne	.L93
 508:pervasive_eink_hardware_driver.c ****     {
 509:pervasive_eink_hardware_driver.c ****          /* Set the white/black frame flag */
 510:pervasive_eink_hardware_driver.c ****         blackOrWhiteFrame = true;
 646              		.loc 1 510 0
 647 0012 0127     		movs	r7, #1
 511:pervasive_eink_hardware_driver.c ****         /* set the tempByte to black pixel byte */
ARM GAS  C:\Users\User\AppData\Local\Temp\ccsn8eRz.s 			page 35


 512:pervasive_eink_hardware_driver.c ****         tempByte = PV_EINK_BLACK_PIXEL_BYTE;
 648              		.loc 1 512 0
 649 0014 0024     		movs	r4, #0
 650              	.LVL77:
 651 0016 03E0     		b	.L44
 652              	.LVL78:
 653              	.L92:
 501:pervasive_eink_hardware_driver.c ****         /* Set the tempByte to white pixel byte */
 654              		.loc 1 501 0
 655 0018 0127     		movs	r7, #1
 503:pervasive_eink_hardware_driver.c ****         
 656              		.loc 1 503 0
 657 001a FF24     		movs	r4, #255
 658              	.LVL79:
 659 001c 00E0     		b	.L44
 660              	.LVL80:
 661              	.L93:
 513:pervasive_eink_hardware_driver.c ****     }
 514:pervasive_eink_hardware_driver.c ****     /* If the current pointer is of an image stored in flash */
 515:pervasive_eink_hardware_driver.c ****     else
 516:pervasive_eink_hardware_driver.c ****     {
 517:pervasive_eink_hardware_driver.c ****         /* Clear the white/black frame flag */
 518:pervasive_eink_hardware_driver.c ****         blackOrWhiteFrame = false;
 662              		.loc 1 518 0
 663 001e 0027     		movs	r7, #0
 664              	.LVL81:
 665              	.L44:
 519:pervasive_eink_hardware_driver.c ****     }
 520:pervasive_eink_hardware_driver.c **** 
 521:pervasive_eink_hardware_driver.c ****     /* Re-initialize E-INK timer to ensure the same duration of each stage */
 522:pervasive_eink_hardware_driver.c ****     Cy_EINK_TimerInit();
 666              		.loc 1 522 0
 667 0020 FFF7FEFF 		bl	Cy_EINK_TimerInit
 668              	.LVL82:
 523:pervasive_eink_hardware_driver.c **** 
 524:pervasive_eink_hardware_driver.c ****     /* Vertical pixel loop */
 525:pervasive_eink_hardware_driver.c ****     for (y = 0; y < PV_EINK_VERTICAL_SIZE; y++)
 669              		.loc 1 525 0
 670 0024 4FF00008 		mov	r8, #0
 671 0028 D0E1     		b	.L45
 672              	.LVL83:
 673              	.L88:
 526:pervasive_eink_hardware_driver.c ****     {
 527:pervasive_eink_hardware_driver.c ****         /* Clear the line buffer with all zeros */
 528:pervasive_eink_hardware_driver.c ****         memset(&bulkDriverPacket[y].lineBuffer, 0, 
 674              		.loc 1 528 0
 675 002a C8EBC80A 		rsb	r10, r8, r8, lsl #3
 676 002e C8EB0A1A 		rsb	r10, r8, r10, lsl #4
 677 0032 DFF80C93 		ldr	r9, .L127+8
 678 0036 0AEB090B 		add	fp, r10, r9
 679 003a 6F22     		movs	r2, #111
 680 003c 0021     		movs	r1, #0
 681 003e 5846     		mov	r0, fp
 682 0040 FFF7FEFF 		bl	memset
 683              	.LVL84:
 529:pervasive_eink_hardware_driver.c ****                sizeof(bulkDriverPacket[y].lineBuffer)) ;
 530:pervasive_eink_hardware_driver.c **** 
ARM GAS  C:\Users\User\AppData\Local\Temp\ccsn8eRz.s 			page 36


 531:pervasive_eink_hardware_driver.c ****         /* Initialize the even data, odd data and scan data pointers */
 532:pervasive_eink_hardware_driver.c ****         dataLineEven = &bulkDriverPacket[y].lineDataBySize.even[0];
 684              		.loc 1 532 0
 685 0044 0BF1010E 		add	lr, fp, #1
 686 0048 BC4B     		ldr	r3, .L127+4
 687 004a C3F870E0 		str	lr, [r3, #112]
 533:pervasive_eink_hardware_driver.c ****         dataLineOdd  = &bulkDriverPacket[y].lineDataBySize.odd[0];
 688              		.loc 1 533 0
 689 004e 0AF14800 		add	r0, r10, #72
 690 0052 4844     		add	r0, r0, r9
 691 0054 0630     		adds	r0, r0, #6
 692 0056 5867     		str	r0, [r3, #116]
 534:pervasive_eink_hardware_driver.c ****         dataLineScan = &bulkDriverPacket[y].lineDataBySize.scan[0];
 693              		.loc 1 534 0
 694 0058 0AF1200A 		add	r10, r10, #32
 695 005c D144     		add	r9, r9, r10
 696 005e 09F10209 		add	r9, r9, #2
 697 0062 C3F87890 		str	r9, [r3, #120]
 698              	.LVL85:
 535:pervasive_eink_hardware_driver.c ****         
 536:pervasive_eink_hardware_driver.c ****         /* Horizontal bytes initialization */
 537:pervasive_eink_hardware_driver.c ****         k = PV_EINK_HORIZONTAL_SIZE;
 538:pervasive_eink_hardware_driver.c ****         k--;
 699              		.loc 1 538 0
 700 0066 2022     		movs	r2, #32
 539:pervasive_eink_hardware_driver.c ****         
 540:pervasive_eink_hardware_driver.c ****         /* Horizontal pixel loop */
 541:pervasive_eink_hardware_driver.c ****         for (x = 0; x < PV_EINK_HORIZONTAL_SIZE; x++)
 701              		.loc 1 541 0
 702 0068 0023     		movs	r3, #0
 703 006a 97E1     		b	.L46
 704              	.LVL86:
 705              	.L86:
 542:pervasive_eink_hardware_driver.c ****         {
 543:pervasive_eink_hardware_driver.c ****             /* If the current pointer is of an image stored in flash */
 544:pervasive_eink_hardware_driver.c ****             if(!blackOrWhiteFrame)
 706              		.loc 1 544 0
 707 006c 0FB9     		cbnz	r7, .L47
 708              	.LVL87:
 545:pervasive_eink_hardware_driver.c ****             {
 546:pervasive_eink_hardware_driver.c ****                 /* Fetch successive data bytes */
 547:pervasive_eink_hardware_driver.c ****                 tempByte = *imagePtr++;
 709              		.loc 1 547 0
 710 006e 3478     		ldrb	r4, [r6]	@ zero_extendqisi2
 711              	.LVL88:
 712 0070 0136     		adds	r6, r6, #1
 713              	.LVL89:
 714              	.L47:
 548:pervasive_eink_hardware_driver.c ****             }
 549:pervasive_eink_hardware_driver.c ****             /* Perform one of the four stage operations */
 550:pervasive_eink_hardware_driver.c ****             switch (stageNumber)
 715              		.loc 1 550 0
 716 0072 032D     		cmp	r5, #3
 717 0074 00F29081 		bhi	.L48
 718 0078 DFE815F0 		tbh	[pc, r5, lsl #1]
 719              	.L50:
 720 007c 0400     		.2byte	(.L49-.L50)/2
ARM GAS  C:\Users\User\AppData\Local\Temp\ccsn8eRz.s 			page 37


 721 007e 6500     		.2byte	(.L51-.L50)/2
 722 0080 C600     		.2byte	(.L52-.L50)/2
 723 0082 2701     		.2byte	(.L53-.L50)/2
 724              		.p2align 1
 725              	.L49:
 551:pervasive_eink_hardware_driver.c ****             {
 552:pervasive_eink_hardware_driver.c ****             /* Stage 1: Calculate the inverted Even and Odd bytes of 
 553:pervasive_eink_hardware_driver.c ****                the previous image data */
 554:pervasive_eink_hardware_driver.c ****             case PV_EINK_STAGE1:
 555:pervasive_eink_hardware_driver.c ****                 dataLineOdd[x]       = ((tempByte & PV_EINK_ODD_MASK_A)  ? 
 726              		.loc 1 555 0
 727 0084 00EB030C 		add	ip, r0, r3
 728 0088 14F0400F 		tst	r4, #64
 729 008c 01D0     		beq	.L94
 730 008e C021     		movs	r1, #192
 731 0090 00E0     		b	.L54
 732              	.L94:
 733 0092 8021     		movs	r1, #128
 734              	.L54:
 735              		.loc 1 555 0 is_stmt 0 discriminator 4
 736 0094 8CF80010 		strb	r1, [ip]
 556:pervasive_eink_hardware_driver.c ****                                         PV_EINK_BLACK3 : PV_EINK_WHITE3);
 557:pervasive_eink_hardware_driver.c ****                 dataLineOdd[x]      |= ((tempByte & PV_EINK_ODD_MASK_B)  ? 
 737              		.loc 1 557 0 is_stmt 1 discriminator 4
 738 0098 49B2     		sxtb	r1, r1
 739 009a 14F0100F 		tst	r4, #16
 740 009e 02D0     		beq	.L95
 741              		.loc 1 557 0 is_stmt 0
 742 00a0 4FF0300A 		mov	r10, #48
 743 00a4 01E0     		b	.L55
 744              	.L95:
 745 00a6 4FF0200A 		mov	r10, #32
 746              	.L55:
 747              		.loc 1 557 0 discriminator 4
 748 00aa 4AEA0101 		orr	r1, r10, r1
 749 00ae 8CF80010 		strb	r1, [ip]
 558:pervasive_eink_hardware_driver.c ****                                         PV_EINK_BLACK2 : PV_EINK_WHITE2);
 559:pervasive_eink_hardware_driver.c ****                 dataLineOdd[x]      |= ((tempByte & PV_EINK_ODD_MASK_C)  ? 
 750              		.loc 1 559 0 is_stmt 1 discriminator 4
 751 00b2 14F0040F 		tst	r4, #4
 752 00b6 02D0     		beq	.L96
 753              		.loc 1 559 0 is_stmt 0
 754 00b8 4FF00C0A 		mov	r10, #12
 755 00bc 01E0     		b	.L56
 756              	.L96:
 757 00be 4FF0080A 		mov	r10, #8
 758              	.L56:
 759              		.loc 1 559 0 discriminator 4
 760 00c2 4AEA0101 		orr	r1, r10, r1
 761 00c6 8CF80010 		strb	r1, [ip]
 560:pervasive_eink_hardware_driver.c ****                                         PV_EINK_BLACK1 : PV_EINK_WHITE1);
 561:pervasive_eink_hardware_driver.c ****                 dataLineOdd[x]      |= ((tempByte & PV_EINK_ODD_MASK_D)  ? 
 762              		.loc 1 561 0 is_stmt 1 discriminator 4
 763 00ca 14F0010F 		tst	r4, #1
 764 00ce 02D0     		beq	.L97
 765              		.loc 1 561 0 is_stmt 0
 766 00d0 4FF0030A 		mov	r10, #3
ARM GAS  C:\Users\User\AppData\Local\Temp\ccsn8eRz.s 			page 38


 767 00d4 01E0     		b	.L57
 768              	.L97:
 769 00d6 4FF0020A 		mov	r10, #2
 770              	.L57:
 771              		.loc 1 561 0 discriminator 4
 772 00da 4AEA0101 		orr	r1, r10, r1
 773 00de 8CF80010 		strb	r1, [ip]
 562:pervasive_eink_hardware_driver.c ****                                         PV_EINK_BLACK0 : PV_EINK_WHITE0);
 563:pervasive_eink_hardware_driver.c ****                 dataLineEven[k]      = ((tempByte & PV_EINK_EVEN_MASK_A) ? 
 774              		.loc 1 563 0 is_stmt 1 discriminator 4
 775 00e2 0EEB020C 		add	ip, lr, r2
 776 00e6 14F0800F 		tst	r4, #128
 777 00ea 01D0     		beq	.L98
 778              		.loc 1 563 0 is_stmt 0
 779 00ec 0321     		movs	r1, #3
 780 00ee 00E0     		b	.L58
 781              	.L98:
 782 00f0 0221     		movs	r1, #2
 783              	.L58:
 784              		.loc 1 563 0 discriminator 4
 785 00f2 8CF80010 		strb	r1, [ip]
 564:pervasive_eink_hardware_driver.c ****                                         PV_EINK_BLACK0 : PV_EINK_WHITE0);
 565:pervasive_eink_hardware_driver.c ****                 dataLineEven[k]     |= ((tempByte & PV_EINK_EVEN_MASK_B) ? 
 786              		.loc 1 565 0 is_stmt 1 discriminator 4
 787 00f6 49B2     		sxtb	r1, r1
 788 00f8 14F0200F 		tst	r4, #32
 789 00fc 02D0     		beq	.L99
 790              		.loc 1 565 0 is_stmt 0
 791 00fe 4FF00C0A 		mov	r10, #12
 792 0102 01E0     		b	.L59
 793              	.L99:
 794 0104 4FF0080A 		mov	r10, #8
 795              	.L59:
 796              		.loc 1 565 0 discriminator 4
 797 0108 4AEA0101 		orr	r1, r10, r1
 798 010c 8CF80010 		strb	r1, [ip]
 566:pervasive_eink_hardware_driver.c ****                                         PV_EINK_BLACK1 : PV_EINK_WHITE1);
 567:pervasive_eink_hardware_driver.c ****                 dataLineEven[k]     |= ((tempByte & PV_EINK_EVEN_MASK_C) ? 
 799              		.loc 1 567 0 is_stmt 1 discriminator 4
 800 0110 14F0080F 		tst	r4, #8
 801 0114 02D0     		beq	.L100
 802              		.loc 1 567 0 is_stmt 0
 803 0116 4FF0300A 		mov	r10, #48
 804 011a 01E0     		b	.L60
 805              	.L100:
 806 011c 4FF0200A 		mov	r10, #32
 807              	.L60:
 808              		.loc 1 567 0 discriminator 4
 809 0120 4AEA0101 		orr	r1, r10, r1
 810 0124 8CF80010 		strb	r1, [ip]
 568:pervasive_eink_hardware_driver.c ****                                         PV_EINK_BLACK2 : PV_EINK_WHITE2);
 569:pervasive_eink_hardware_driver.c ****                 dataLineEven[k--]   |= ((tempByte & PV_EINK_EVEN_MASK_D) ? 
 811              		.loc 1 569 0 is_stmt 1 discriminator 4
 812 0128 013A     		subs	r2, r2, #1
 813              	.LVL90:
 814 012a 92B2     		uxth	r2, r2
 815              	.LVL91:
ARM GAS  C:\Users\User\AppData\Local\Temp\ccsn8eRz.s 			page 39


 816 012c 14F0020F 		tst	r4, #2
 817 0130 02D0     		beq	.L101
 818              		.loc 1 569 0 is_stmt 0
 819 0132 6FF03F0A 		mvn	r10, #63
 820 0136 01E0     		b	.L61
 821              	.L101:
 822 0138 6FF07F0A 		mvn	r10, #127
 823              	.L61:
 824              		.loc 1 569 0 discriminator 4
 825 013c 4AEA0101 		orr	r1, r10, r1
 826 0140 8CF80010 		strb	r1, [ip]
 570:pervasive_eink_hardware_driver.c ****                                         PV_EINK_BLACK3 : PV_EINK_WHITE3);
 571:pervasive_eink_hardware_driver.c ****                 break;
 827              		.loc 1 571 0 is_stmt 1 discriminator 4
 828 0144 28E1     		b	.L48
 829              	.L51:
 572:pervasive_eink_hardware_driver.c ****             /* Stage 2: Calculate the Even and Odd bytes of an all-white
 573:pervasive_eink_hardware_driver.c ****                frame */
 574:pervasive_eink_hardware_driver.c ****             case PV_EINK_STAGE2:
 575:pervasive_eink_hardware_driver.c ****                 dataLineOdd[x]       = ((tempByte & PV_EINK_ODD_MASK_A)  ? 
 830              		.loc 1 575 0
 831 0146 00EB030C 		add	ip, r0, r3
 832 014a 14F0400F 		tst	r4, #64
 833 014e 01D0     		beq	.L102
 834 0150 8021     		movs	r1, #128
 835 0152 00E0     		b	.L62
 836              	.L102:
 837 0154 4021     		movs	r1, #64
 838              	.L62:
 839              		.loc 1 575 0 is_stmt 0 discriminator 4
 840 0156 8CF80010 		strb	r1, [ip]
 576:pervasive_eink_hardware_driver.c ****                                         PV_EINK_WHITE3 : PV_EINK_NOTHING3);
 577:pervasive_eink_hardware_driver.c ****                 dataLineOdd[x]      |= ((tempByte & PV_EINK_ODD_MASK_B)  ? 
 841              		.loc 1 577 0 is_stmt 1 discriminator 4
 842 015a 49B2     		sxtb	r1, r1
 843 015c 14F0100F 		tst	r4, #16
 844 0160 02D0     		beq	.L103
 845              		.loc 1 577 0 is_stmt 0
 846 0162 4FF0200A 		mov	r10, #32
 847 0166 01E0     		b	.L63
 848              	.L103:
 849 0168 4FF0100A 		mov	r10, #16
 850              	.L63:
 851              		.loc 1 577 0 discriminator 4
 852 016c 4AEA0101 		orr	r1, r10, r1
 853 0170 8CF80010 		strb	r1, [ip]
 578:pervasive_eink_hardware_driver.c ****                                         PV_EINK_WHITE2 : PV_EINK_NOTHING2);
 579:pervasive_eink_hardware_driver.c ****                 dataLineOdd[x]      |= ((tempByte & PV_EINK_ODD_MASK_C)  ? 
 854              		.loc 1 579 0 is_stmt 1 discriminator 4
 855 0174 14F0040F 		tst	r4, #4
 856 0178 02D0     		beq	.L104
 857              		.loc 1 579 0 is_stmt 0
 858 017a 4FF0080A 		mov	r10, #8
 859 017e 01E0     		b	.L64
 860              	.L104:
 861 0180 4FF0040A 		mov	r10, #4
 862              	.L64:
ARM GAS  C:\Users\User\AppData\Local\Temp\ccsn8eRz.s 			page 40


 863              		.loc 1 579 0 discriminator 4
 864 0184 4AEA0101 		orr	r1, r10, r1
 865 0188 8CF80010 		strb	r1, [ip]
 580:pervasive_eink_hardware_driver.c ****                                         PV_EINK_WHITE1 : PV_EINK_NOTHING1);
 581:pervasive_eink_hardware_driver.c ****                 dataLineOdd[x]      |= ((tempByte & PV_EINK_ODD_MASK_D)  ? 
 866              		.loc 1 581 0 is_stmt 1 discriminator 4
 867 018c 14F0010F 		tst	r4, #1
 868 0190 02D0     		beq	.L105
 869              		.loc 1 581 0 is_stmt 0
 870 0192 4FF0020A 		mov	r10, #2
 871 0196 01E0     		b	.L65
 872              	.L105:
 873 0198 4FF0010A 		mov	r10, #1
 874              	.L65:
 875              		.loc 1 581 0 discriminator 4
 876 019c 4AEA0101 		orr	r1, r10, r1
 877 01a0 8CF80010 		strb	r1, [ip]
 582:pervasive_eink_hardware_driver.c ****                                         PV_EINK_WHITE0 : PV_EINK_NOTHING0);
 583:pervasive_eink_hardware_driver.c ****                 dataLineEven[k]      = ((tempByte & PV_EINK_EVEN_MASK_A) ?
 878              		.loc 1 583 0 is_stmt 1 discriminator 4
 879 01a4 0EEB020C 		add	ip, lr, r2
 880 01a8 14F0800F 		tst	r4, #128
 881 01ac 01D0     		beq	.L106
 882              		.loc 1 583 0 is_stmt 0
 883 01ae 0221     		movs	r1, #2
 884 01b0 00E0     		b	.L66
 885              	.L106:
 886 01b2 0121     		movs	r1, #1
 887              	.L66:
 888              		.loc 1 583 0 discriminator 4
 889 01b4 8CF80010 		strb	r1, [ip]
 584:pervasive_eink_hardware_driver.c ****                                         PV_EINK_WHITE0 : PV_EINK_NOTHING0);
 585:pervasive_eink_hardware_driver.c ****                 dataLineEven[k]     |= ((tempByte & PV_EINK_EVEN_MASK_B) ? 
 890              		.loc 1 585 0 is_stmt 1 discriminator 4
 891 01b8 49B2     		sxtb	r1, r1
 892 01ba 14F0200F 		tst	r4, #32
 893 01be 02D0     		beq	.L107
 894              		.loc 1 585 0 is_stmt 0
 895 01c0 4FF0080A 		mov	r10, #8
 896 01c4 01E0     		b	.L67
 897              	.L107:
 898 01c6 4FF0040A 		mov	r10, #4
 899              	.L67:
 900              		.loc 1 585 0 discriminator 4
 901 01ca 4AEA0101 		orr	r1, r10, r1
 902 01ce 8CF80010 		strb	r1, [ip]
 586:pervasive_eink_hardware_driver.c ****                                         PV_EINK_WHITE1 : PV_EINK_NOTHING1);
 587:pervasive_eink_hardware_driver.c ****                 dataLineEven[k]     |= ((tempByte & PV_EINK_EVEN_MASK_C) ? 
 903              		.loc 1 587 0 is_stmt 1 discriminator 4
 904 01d2 14F0080F 		tst	r4, #8
 905 01d6 02D0     		beq	.L108
 906              		.loc 1 587 0 is_stmt 0
 907 01d8 4FF0200A 		mov	r10, #32
 908 01dc 01E0     		b	.L68
 909              	.L108:
 910 01de 4FF0100A 		mov	r10, #16
 911              	.L68:
ARM GAS  C:\Users\User\AppData\Local\Temp\ccsn8eRz.s 			page 41


 912              		.loc 1 587 0 discriminator 4
 913 01e2 4AEA0101 		orr	r1, r10, r1
 914 01e6 8CF80010 		strb	r1, [ip]
 588:pervasive_eink_hardware_driver.c ****                                         PV_EINK_WHITE2 : PV_EINK_NOTHING2);
 589:pervasive_eink_hardware_driver.c ****                 dataLineEven[k--]   |= ((tempByte & PV_EINK_EVEN_MASK_D) ? 
 915              		.loc 1 589 0 is_stmt 1 discriminator 4
 916 01ea 013A     		subs	r2, r2, #1
 917              	.LVL92:
 918 01ec 92B2     		uxth	r2, r2
 919              	.LVL93:
 920 01ee 14F0020F 		tst	r4, #2
 921 01f2 02D0     		beq	.L109
 922              		.loc 1 589 0 is_stmt 0
 923 01f4 6FF07F0A 		mvn	r10, #127
 924 01f8 01E0     		b	.L69
 925              	.L109:
 926 01fa 4FF0400A 		mov	r10, #64
 927              	.L69:
 928              		.loc 1 589 0 discriminator 4
 929 01fe 4AEA0101 		orr	r1, r10, r1
 930 0202 8CF80010 		strb	r1, [ip]
 590:pervasive_eink_hardware_driver.c ****                                         PV_EINK_WHITE3 : PV_EINK_NOTHING3);
 591:pervasive_eink_hardware_driver.c ****                 break;
 931              		.loc 1 591 0 is_stmt 1 discriminator 4
 932 0206 C7E0     		b	.L48
 933              	.L52:
 592:pervasive_eink_hardware_driver.c ****             /* Stage 3: Calculate the inverted Even and Odd bytes of the
 593:pervasive_eink_hardware_driver.c ****                new image data */
 594:pervasive_eink_hardware_driver.c ****             case PV_EINK_STAGE3:
 595:pervasive_eink_hardware_driver.c ****                 dataLineOdd[x]       = ((tempByte & PV_EINK_ODD_MASK_A)  ? 
 934              		.loc 1 595 0
 935 0208 00EB030C 		add	ip, r0, r3
 936 020c 14F0400F 		tst	r4, #64
 937 0210 01D0     		beq	.L110
 938 0212 C021     		movs	r1, #192
 939 0214 00E0     		b	.L70
 940              	.L110:
 941 0216 4021     		movs	r1, #64
 942              	.L70:
 943              		.loc 1 595 0 is_stmt 0 discriminator 4
 944 0218 8CF80010 		strb	r1, [ip]
 596:pervasive_eink_hardware_driver.c ****                                         PV_EINK_BLACK3 : PV_EINK_NOTHING3);
 597:pervasive_eink_hardware_driver.c ****                 dataLineOdd[x]      |= ((tempByte & PV_EINK_ODD_MASK_B)  ? 
 945              		.loc 1 597 0 is_stmt 1 discriminator 4
 946 021c 49B2     		sxtb	r1, r1
 947 021e 14F0100F 		tst	r4, #16
 948 0222 02D0     		beq	.L111
 949              		.loc 1 597 0 is_stmt 0
 950 0224 4FF0300A 		mov	r10, #48
 951 0228 01E0     		b	.L71
 952              	.L111:
 953 022a 4FF0100A 		mov	r10, #16
 954              	.L71:
 955              		.loc 1 597 0 discriminator 4
 956 022e 4AEA0101 		orr	r1, r10, r1
 957 0232 8CF80010 		strb	r1, [ip]
 598:pervasive_eink_hardware_driver.c ****                                         PV_EINK_BLACK2 : PV_EINK_NOTHING2);
ARM GAS  C:\Users\User\AppData\Local\Temp\ccsn8eRz.s 			page 42


 599:pervasive_eink_hardware_driver.c ****                 dataLineOdd[x]      |= ((tempByte & PV_EINK_ODD_MASK_C)  ?
 958              		.loc 1 599 0 is_stmt 1 discriminator 4
 959 0236 14F0040F 		tst	r4, #4
 960 023a 02D0     		beq	.L112
 961              		.loc 1 599 0 is_stmt 0
 962 023c 4FF00C0A 		mov	r10, #12
 963 0240 01E0     		b	.L72
 964              	.L112:
 965 0242 4FF0040A 		mov	r10, #4
 966              	.L72:
 967              		.loc 1 599 0 discriminator 4
 968 0246 4AEA0101 		orr	r1, r10, r1
 969 024a 8CF80010 		strb	r1, [ip]
 600:pervasive_eink_hardware_driver.c ****                                         PV_EINK_BLACK1 : PV_EINK_NOTHING1);
 601:pervasive_eink_hardware_driver.c ****                 dataLineOdd[x]      |= ((tempByte & PV_EINK_ODD_MASK_D)  ?
 970              		.loc 1 601 0 is_stmt 1 discriminator 4
 971 024e 14F0010F 		tst	r4, #1
 972 0252 02D0     		beq	.L113
 973              		.loc 1 601 0 is_stmt 0
 974 0254 4FF0030A 		mov	r10, #3
 975 0258 01E0     		b	.L73
 976              	.L113:
 977 025a 4FF0010A 		mov	r10, #1
 978              	.L73:
 979              		.loc 1 601 0 discriminator 4
 980 025e 4AEA0101 		orr	r1, r10, r1
 981 0262 8CF80010 		strb	r1, [ip]
 602:pervasive_eink_hardware_driver.c ****                                         PV_EINK_BLACK0 : PV_EINK_NOTHING0);
 603:pervasive_eink_hardware_driver.c ****                 dataLineEven[k]      = ((tempByte & PV_EINK_EVEN_MASK_A) ?
 982              		.loc 1 603 0 is_stmt 1 discriminator 4
 983 0266 0EEB020C 		add	ip, lr, r2
 984 026a 14F0800F 		tst	r4, #128
 985 026e 01D0     		beq	.L114
 986              		.loc 1 603 0 is_stmt 0
 987 0270 0321     		movs	r1, #3
 988 0272 00E0     		b	.L74
 989              	.L114:
 990 0274 0121     		movs	r1, #1
 991              	.L74:
 992              		.loc 1 603 0 discriminator 4
 993 0276 8CF80010 		strb	r1, [ip]
 604:pervasive_eink_hardware_driver.c ****                                         PV_EINK_BLACK0 : PV_EINK_NOTHING0);
 605:pervasive_eink_hardware_driver.c ****                 dataLineEven[k]     |= ((tempByte & PV_EINK_EVEN_MASK_B) ? 
 994              		.loc 1 605 0 is_stmt 1 discriminator 4
 995 027a 49B2     		sxtb	r1, r1
 996 027c 14F0200F 		tst	r4, #32
 997 0280 02D0     		beq	.L115
 998              		.loc 1 605 0 is_stmt 0
 999 0282 4FF00C0A 		mov	r10, #12
 1000 0286 01E0     		b	.L75
 1001              	.L115:
 1002 0288 4FF0040A 		mov	r10, #4
 1003              	.L75:
 1004              		.loc 1 605 0 discriminator 4
 1005 028c 4AEA0101 		orr	r1, r10, r1
 1006 0290 8CF80010 		strb	r1, [ip]
 606:pervasive_eink_hardware_driver.c ****                                         PV_EINK_BLACK1 : PV_EINK_NOTHING1);
ARM GAS  C:\Users\User\AppData\Local\Temp\ccsn8eRz.s 			page 43


 607:pervasive_eink_hardware_driver.c ****                 dataLineEven[k]     |= ((tempByte & PV_EINK_EVEN_MASK_C) ? 
 1007              		.loc 1 607 0 is_stmt 1 discriminator 4
 1008 0294 14F0080F 		tst	r4, #8
 1009 0298 02D0     		beq	.L116
 1010              		.loc 1 607 0 is_stmt 0
 1011 029a 4FF0300A 		mov	r10, #48
 1012 029e 01E0     		b	.L76
 1013              	.L116:
 1014 02a0 4FF0100A 		mov	r10, #16
 1015              	.L76:
 1016              		.loc 1 607 0 discriminator 4
 1017 02a4 4AEA0101 		orr	r1, r10, r1
 1018 02a8 8CF80010 		strb	r1, [ip]
 608:pervasive_eink_hardware_driver.c ****                                         PV_EINK_BLACK2 : PV_EINK_NOTHING2);
 609:pervasive_eink_hardware_driver.c ****                 dataLineEven[k--]   |= ((tempByte & PV_EINK_EVEN_MASK_D) ? 
 1019              		.loc 1 609 0 is_stmt 1 discriminator 4
 1020 02ac 013A     		subs	r2, r2, #1
 1021              	.LVL94:
 1022 02ae 92B2     		uxth	r2, r2
 1023              	.LVL95:
 1024 02b0 14F0020F 		tst	r4, #2
 1025 02b4 02D0     		beq	.L117
 1026              		.loc 1 609 0 is_stmt 0
 1027 02b6 6FF03F0A 		mvn	r10, #63
 1028 02ba 01E0     		b	.L77
 1029              	.L117:
 1030 02bc 4FF0400A 		mov	r10, #64
 1031              	.L77:
 1032              		.loc 1 609 0 discriminator 4
 1033 02c0 4AEA0101 		orr	r1, r10, r1
 1034 02c4 8CF80010 		strb	r1, [ip]
 610:pervasive_eink_hardware_driver.c ****                                         PV_EINK_BLACK3 : PV_EINK_NOTHING3);
 611:pervasive_eink_hardware_driver.c ****                 break;
 1035              		.loc 1 611 0 is_stmt 1 discriminator 4
 1036 02c8 66E0     		b	.L48
 1037              	.L53:
 612:pervasive_eink_hardware_driver.c ****             /* Stage 4: Calculate the Even and Odd bytes of new image 
 613:pervasive_eink_hardware_driver.c ****                data */
 614:pervasive_eink_hardware_driver.c ****             case PV_EINK_STAGE4:
 615:pervasive_eink_hardware_driver.c ****                 dataLineOdd[x]       = ((tempByte & PV_EINK_ODD_MASK_A)  ? 
 1038              		.loc 1 615 0
 1039 02ca 00EB030C 		add	ip, r0, r3
 1040 02ce 14F0400F 		tst	r4, #64
 1041 02d2 01D0     		beq	.L118
 1042 02d4 8021     		movs	r1, #128
 1043 02d6 00E0     		b	.L78
 1044              	.L118:
 1045 02d8 C021     		movs	r1, #192
 1046              	.L78:
 1047              		.loc 1 615 0 is_stmt 0 discriminator 4
 1048 02da 8CF80010 		strb	r1, [ip]
 616:pervasive_eink_hardware_driver.c ****                                         PV_EINK_WHITE3 : PV_EINK_BLACK3);
 617:pervasive_eink_hardware_driver.c ****                 dataLineOdd[x]      |= ((tempByte & PV_EINK_ODD_MASK_B)  ?
 1049              		.loc 1 617 0 is_stmt 1 discriminator 4
 1050 02de 49B2     		sxtb	r1, r1
 1051 02e0 14F0100F 		tst	r4, #16
 1052 02e4 02D0     		beq	.L119
ARM GAS  C:\Users\User\AppData\Local\Temp\ccsn8eRz.s 			page 44


 1053              		.loc 1 617 0 is_stmt 0
 1054 02e6 4FF0200A 		mov	r10, #32
 1055 02ea 01E0     		b	.L79
 1056              	.L119:
 1057 02ec 4FF0300A 		mov	r10, #48
 1058              	.L79:
 1059              		.loc 1 617 0 discriminator 4
 1060 02f0 4AEA0101 		orr	r1, r10, r1
 1061 02f4 8CF80010 		strb	r1, [ip]
 618:pervasive_eink_hardware_driver.c ****                                         PV_EINK_WHITE2 : PV_EINK_BLACK2);
 619:pervasive_eink_hardware_driver.c ****                 dataLineOdd[x]      |= ((tempByte & PV_EINK_ODD_MASK_C)  ? 
 1062              		.loc 1 619 0 is_stmt 1 discriminator 4
 1063 02f8 14F0040F 		tst	r4, #4
 1064 02fc 02D0     		beq	.L120
 1065              		.loc 1 619 0 is_stmt 0
 1066 02fe 4FF0080A 		mov	r10, #8
 1067 0302 01E0     		b	.L80
 1068              	.L120:
 1069 0304 4FF00C0A 		mov	r10, #12
 1070              	.L80:
 1071              		.loc 1 619 0 discriminator 4
 1072 0308 4AEA0101 		orr	r1, r10, r1
 1073 030c 8CF80010 		strb	r1, [ip]
 620:pervasive_eink_hardware_driver.c ****                                         PV_EINK_WHITE1 : PV_EINK_BLACK1);
 621:pervasive_eink_hardware_driver.c ****                 dataLineOdd[x]      |= ((tempByte & PV_EINK_ODD_MASK_D)  ? 
 1074              		.loc 1 621 0 is_stmt 1 discriminator 4
 1075 0310 14F0010F 		tst	r4, #1
 1076 0314 02D0     		beq	.L121
 1077              		.loc 1 621 0 is_stmt 0
 1078 0316 4FF0020A 		mov	r10, #2
 1079 031a 01E0     		b	.L81
 1080              	.L121:
 1081 031c 4FF0030A 		mov	r10, #3
 1082              	.L81:
 1083              		.loc 1 621 0 discriminator 4
 1084 0320 4AEA0101 		orr	r1, r10, r1
 1085 0324 8CF80010 		strb	r1, [ip]
 622:pervasive_eink_hardware_driver.c ****                                         PV_EINK_WHITE0 : PV_EINK_BLACK0);
 623:pervasive_eink_hardware_driver.c ****                 dataLineEven[k]     = ((tempByte & PV_EINK_EVEN_MASK_A)  ? 
 1086              		.loc 1 623 0 is_stmt 1 discriminator 4
 1087 0328 0EEB020C 		add	ip, lr, r2
 1088 032c 14F0800F 		tst	r4, #128
 1089 0330 08D0     		beq	.L122
 1090              		.loc 1 623 0 is_stmt 0
 1091 0332 0221     		movs	r1, #2
 1092 0334 07E0     		b	.L82
 1093              	.L128:
 1094 0336 00BF     		.align	2
 1095              	.L127:
 1096 0338 FFFF0F10 		.word	269484031
 1097 033c 00000000 		.word	.LANCHOR0
 1098 0340 00000000 		.word	bulkDriverPacket
 1099              	.L122:
 1100 0344 0321     		movs	r1, #3
 1101              	.L82:
 1102              		.loc 1 623 0 discriminator 4
 1103 0346 8CF80010 		strb	r1, [ip]
ARM GAS  C:\Users\User\AppData\Local\Temp\ccsn8eRz.s 			page 45


 624:pervasive_eink_hardware_driver.c ****                                         PV_EINK_WHITE0 : PV_EINK_BLACK0);
 625:pervasive_eink_hardware_driver.c ****                 dataLineEven[k]     |= ((tempByte & PV_EINK_EVEN_MASK_B) ? 
 1104              		.loc 1 625 0 is_stmt 1 discriminator 4
 1105 034a 49B2     		sxtb	r1, r1
 1106 034c 14F0200F 		tst	r4, #32
 1107 0350 02D0     		beq	.L123
 1108              		.loc 1 625 0 is_stmt 0
 1109 0352 4FF0080A 		mov	r10, #8
 1110 0356 01E0     		b	.L83
 1111              	.L123:
 1112 0358 4FF00C0A 		mov	r10, #12
 1113              	.L83:
 1114              		.loc 1 625 0 discriminator 4
 1115 035c 4AEA0101 		orr	r1, r10, r1
 1116 0360 8CF80010 		strb	r1, [ip]
 626:pervasive_eink_hardware_driver.c ****                                         PV_EINK_WHITE1 : PV_EINK_BLACK1);
 627:pervasive_eink_hardware_driver.c ****                 dataLineEven[k]     |= ((tempByte & PV_EINK_EVEN_MASK_C) ?
 1117              		.loc 1 627 0 is_stmt 1 discriminator 4
 1118 0364 14F0080F 		tst	r4, #8
 1119 0368 02D0     		beq	.L124
 1120              		.loc 1 627 0 is_stmt 0
 1121 036a 4FF0200A 		mov	r10, #32
 1122 036e 01E0     		b	.L84
 1123              	.L124:
 1124 0370 4FF0300A 		mov	r10, #48
 1125              	.L84:
 1126              		.loc 1 627 0 discriminator 4
 1127 0374 4AEA0101 		orr	r1, r10, r1
 1128 0378 8CF80010 		strb	r1, [ip]
 628:pervasive_eink_hardware_driver.c ****                                         PV_EINK_WHITE2 : PV_EINK_BLACK2);
 629:pervasive_eink_hardware_driver.c ****                 dataLineEven[k--]   |= ((tempByte & PV_EINK_EVEN_MASK_D) ? 
 1129              		.loc 1 629 0 is_stmt 1 discriminator 4
 1130 037c 013A     		subs	r2, r2, #1
 1131              	.LVL96:
 1132 037e 92B2     		uxth	r2, r2
 1133              	.LVL97:
 1134 0380 14F0020F 		tst	r4, #2
 1135 0384 02D0     		beq	.L125
 1136              		.loc 1 629 0 is_stmt 0
 1137 0386 6FF07F0A 		mvn	r10, #127
 1138 038a 01E0     		b	.L85
 1139              	.L125:
 1140 038c 6FF03F0A 		mvn	r10, #63
 1141              	.L85:
 1142              		.loc 1 629 0 discriminator 4
 1143 0390 4AEA0101 		orr	r1, r10, r1
 1144 0394 8CF80010 		strb	r1, [ip]
 1145              	.L48:
 541:pervasive_eink_hardware_driver.c ****         {
 1146              		.loc 1 541 0 is_stmt 1 discriminator 2
 1147 0398 0133     		adds	r3, r3, #1
 1148              	.LVL98:
 1149 039a 9BB2     		uxth	r3, r3
 1150              	.LVL99:
 1151              	.L46:
 541:pervasive_eink_hardware_driver.c ****         {
 1152              		.loc 1 541 0 is_stmt 0 discriminator 1
ARM GAS  C:\Users\User\AppData\Local\Temp\ccsn8eRz.s 			page 46


 1153 039c 202B     		cmp	r3, #32
 1154 039e 7FF665AE 		bls	.L86
 1155              	.LVL100:
 630:pervasive_eink_hardware_driver.c ****                                         PV_EINK_WHITE3 : PV_EINK_BLACK3);
 631:pervasive_eink_hardware_driver.c ****                 break;
 632:pervasive_eink_hardware_driver.c ****             }
 633:pervasive_eink_hardware_driver.c ****         }
 634:pervasive_eink_hardware_driver.c ****         /* Move onto the next line */
 635:pervasive_eink_hardware_driver.c ****         scanlineNumber = PV_EINK_VERTICAL_SIZE - y;
 636:pervasive_eink_hardware_driver.c ****         scanlineNumber--;
 1156              		.loc 1 636 0 is_stmt 1 discriminator 2
 1157 03a2 C8F1AF03 		rsb	r3, r8, #175
 1158              	.LVL101:
 1159 03a6 1BB2     		sxth	r3, r3
 1160              	.LVL102:
 637:pervasive_eink_hardware_driver.c ****         
 638:pervasive_eink_hardware_driver.c ****         /* Shift Scan byte according to the data line */
 639:pervasive_eink_hardware_driver.c ****         dataLineScan[(scanlineNumber >> PV_EINK_PIXEL_SIZE)] = scanTable
 1161              		.loc 1 639 0 discriminator 2
 1162 03a8 9910     		asrs	r1, r3, #2
 640:pervasive_eink_hardware_driver.c ****                             [(scanlineNumber % PV_EINK_SCAN_TABLE_SIZE)];
 1163              		.loc 1 640 0 discriminator 2
 1164 03aa 1A4A     		ldr	r2, .L129
 1165              	.LVL103:
 1166 03ac 1340     		ands	r3, r3, r2
 1167              	.LVL104:
 1168 03ae 03D5     		bpl	.L87
 1169 03b0 013B     		subs	r3, r3, #1
 1170 03b2 63F00303 		orn	r3, r3, #3
 1171 03b6 0133     		adds	r3, r3, #1
 1172              	.L87:
 1173 03b8 174A     		ldr	r2, .L129+4
 1174 03ba 02FA83F3 		sxtah	r3, r2, r3
 1175 03be 1B7A     		ldrb	r3, [r3, #8]	@ zero_extendqisi2
 639:pervasive_eink_hardware_driver.c ****                             [(scanlineNumber % PV_EINK_SCAN_TABLE_SIZE)];
 1176              		.loc 1 639 0 discriminator 2
 1177 03c0 09F80130 		strb	r3, [r9, r1]
 525:pervasive_eink_hardware_driver.c ****     {
 1178              		.loc 1 525 0 discriminator 2
 1179 03c4 08F10108 		add	r8, r8, #1
 1180              	.LVL105:
 1181 03c8 1FFA88F8 		uxth	r8, r8
 1182              	.LVL106:
 1183              	.L45:
 525:pervasive_eink_hardware_driver.c ****     {
 1184              		.loc 1 525 0 is_stmt 0 discriminator 1
 1185 03cc B8F1AF0F 		cmp	r8, #175
 1186 03d0 7FF62BAE 		bls	.L88
 1187              	.LVL107:
 1188              	.L91:
 641:pervasive_eink_hardware_driver.c ****             
 642:pervasive_eink_hardware_driver.c ****     }
 643:pervasive_eink_hardware_driver.c ****             
 644:pervasive_eink_hardware_driver.c ****     /* Perform the update operation until the total time of frames exceed 
 645:pervasive_eink_hardware_driver.c ****        stage time */
 646:pervasive_eink_hardware_driver.c ****     do
 647:pervasive_eink_hardware_driver.c ****     {
ARM GAS  C:\Users\User\AppData\Local\Temp\ccsn8eRz.s 			page 47


 648:pervasive_eink_hardware_driver.c ****         /* Perform a line by line update */
 649:pervasive_eink_hardware_driver.c ****         for (y = 0; y < PV_EINK_VERTICAL_SIZE; y++)
 1189              		.loc 1 649 0 is_stmt 1
 1190 03d4 0024     		movs	r4, #0
 1191 03d6 0FE0     		b	.L89
 1192              	.LVL108:
 1193              	.L90:
 650:pervasive_eink_hardware_driver.c ****         {
 651:pervasive_eink_hardware_driver.c ****                 /* Send the prepared data to the E-INK display */
 652:pervasive_eink_hardware_driver.c ****             Pv_EINK_SendData(PV_EINK_PIXEL_DATA_COMMAND_INDEX,
 653:pervasive_eink_hardware_driver.c ****                           (uint8_t*) &bulkDriverPacket[y].lineBuffer,
 1194              		.loc 1 653 0 discriminator 3
 1195 03d8 C4EBC403 		rsb	r3, r4, r4, lsl #3
 1196 03dc C4EB0313 		rsb	r3, r4, r3, lsl #4
 652:pervasive_eink_hardware_driver.c ****                           (uint8_t*) &bulkDriverPacket[y].lineBuffer,
 1197              		.loc 1 652 0 discriminator 3
 1198 03e0 6F22     		movs	r2, #111
 1199 03e2 0E49     		ldr	r1, .L129+8
 1200 03e4 1944     		add	r1, r1, r3
 1201 03e6 0A20     		movs	r0, #10
 1202 03e8 FFF7FEFF 		bl	Pv_EINK_SendData
 1203              	.LVL109:
 654:pervasive_eink_hardware_driver.c ****                           PV_EINK_DATA_LINE_SIZE);
 655:pervasive_eink_hardware_driver.c ****                           
 656:pervasive_eink_hardware_driver.c ****             /* Turn on Output Enable to latch the frame */
 657:pervasive_eink_hardware_driver.c ****             Pv_EINK_SendByte(PV_EINK_ENABLE_OE_COMMAND_INDEX,
 1204              		.loc 1 657 0 discriminator 3
 1205 03ec 0721     		movs	r1, #7
 1206 03ee 0220     		movs	r0, #2
 1207 03f0 FFF7FEFF 		bl	Pv_EINK_SendByte
 1208              	.LVL110:
 649:pervasive_eink_hardware_driver.c ****         {
 1209              		.loc 1 649 0 discriminator 3
 1210 03f4 0134     		adds	r4, r4, #1
 1211              	.LVL111:
 1212 03f6 A4B2     		uxth	r4, r4
 1213              	.LVL112:
 1214              	.L89:
 649:pervasive_eink_hardware_driver.c ****         {
 1215              		.loc 1 649 0 is_stmt 0 discriminator 1
 1216 03f8 AF2C     		cmp	r4, #175
 1217 03fa EDD9     		bls	.L90
 658:pervasive_eink_hardware_driver.c ****                           PV_EINK_ENABLE_OE_COMMAND_DATA);
 659:pervasive_eink_hardware_driver.c ****         }
 660:pervasive_eink_hardware_driver.c ****     
 661:pervasive_eink_hardware_driver.c ****     }
 662:pervasive_eink_hardware_driver.c ****     /* Loop until the total time of frames exceed stage time */
 663:pervasive_eink_hardware_driver.c ****     while (fullUpdateTime > Cy_EINK_GetTimeTick());
 1218              		.loc 1 663 0 is_stmt 1
 1219 03fc 084B     		ldr	r3, .L129+12
 1220 03fe B3F87C40 		ldrh	r4, [r3, #124]
 1221              	.LVL113:
 1222 0402 FFF7FEFF 		bl	Cy_EINK_GetTimeTick
 1223              	.LVL114:
 1224 0406 8442     		cmp	r4, r0
 1225 0408 E4D8     		bhi	.L91
 664:pervasive_eink_hardware_driver.c ****     
ARM GAS  C:\Users\User\AppData\Local\Temp\ccsn8eRz.s 			page 48


 665:pervasive_eink_hardware_driver.c ****     /* Stop the E-INK Timer */
 666:pervasive_eink_hardware_driver.c ****     Cy_EINK_TimerStop();
 1226              		.loc 1 666 0
 1227 040a FFF7FEFF 		bl	Cy_EINK_TimerStop
 1228              	.LVL115:
 1229 040e BDE8F88F 		pop	{r3, r4, r5, r6, r7, r8, r9, r10, fp, pc}
 1230              	.LVL116:
 1231              	.L130:
 1232 0412 00BF     		.align	2
 1233              	.L129:
 1234 0414 03000080 		.word	-2147483645
 1235 0418 00000000 		.word	.LANCHOR1
 1236 041c 00000000 		.word	bulkDriverPacket
 1237 0420 00000000 		.word	.LANCHOR0
 1238              		.cfi_endproc
 1239              	.LFE653:
 1240              		.size	Pv_EINK_FullStageHandler, .-Pv_EINK_FullStageHandler
 1241              		.section	.text.Pv_EINK_PartialStageHandler,"ax",%progbits
 1242              		.align	2
 1243              		.global	Pv_EINK_PartialStageHandler
 1244              		.thumb
 1245              		.thumb_func
 1246              		.type	Pv_EINK_PartialStageHandler, %function
 1247              	Pv_EINK_PartialStageHandler:
 1248              	.LFB654:
 667:pervasive_eink_hardware_driver.c **** }
 668:pervasive_eink_hardware_driver.c **** 
 669:pervasive_eink_hardware_driver.c **** /*******************************************************************************
 670:pervasive_eink_hardware_driver.c **** * Function Name:  void Pv_EINK_PartialStageHandler(pv_eink_frame_data_t* 
 671:pervasive_eink_hardware_driver.c ****                             previousImagePtr, pv_eink_frame_data_t* newImagePtr)
 672:pervasive_eink_hardware_driver.c **** ********************************************************************************
 673:pervasive_eink_hardware_driver.c **** *
 674:pervasive_eink_hardware_driver.c **** * Summary: The partial update driving stage for getting Odd and Even bytes, and
 675:pervasive_eink_hardware_driver.c **** * then writing the data from memory array to E-INK driver.
 676:pervasive_eink_hardware_driver.c **** *
 677:pervasive_eink_hardware_driver.c **** * Partial update is similar to the last stage of full update. If the new data byte
 678:pervasive_eink_hardware_driver.c **** * is same as previous data byte, send a "nothing" pixel, so that E-INK pixel won't
 679:pervasive_eink_hardware_driver.c **** * be altered. If the new data byte is different from the previous data byte, send
 680:pervasive_eink_hardware_driver.c **** * the new data byte.
 681:pervasive_eink_hardware_driver.c **** * For more details on the driving stages, please refer to the driver G2 document
 682:pervasive_eink_hardware_driver.c **** * Section 5.
 683:pervasive_eink_hardware_driver.c **** *
 684:pervasive_eink_hardware_driver.c **** * Parameters:
 685:pervasive_eink_hardware_driver.c **** * pv_eink_frame_data_t* previousImagePtr : The pointer of memory that contains 
 686:pervasive_eink_hardware_driver.c **** *                                    previous frame written to the E-INK display
 687:pervasive_eink_hardware_driver.c **** * pv_eink_frame_data_t* newImagePtr      : The pointer of memory that contains a 
 688:pervasive_eink_hardware_driver.c **** *                       new frame which needs to be written to the E-INK display
 689:pervasive_eink_hardware_driver.c **** *
 690:pervasive_eink_hardware_driver.c **** * Return:
 691:pervasive_eink_hardware_driver.c **** *  None
 692:pervasive_eink_hardware_driver.c **** *
 693:pervasive_eink_hardware_driver.c **** * Side Effects:
 694:pervasive_eink_hardware_driver.c **** *  This is a blocking function. CPU will be busy during the entire operation,
 695:pervasive_eink_hardware_driver.c **** *  which can be 1 to 2 seconds. 
 696:pervasive_eink_hardware_driver.c **** *******************************************************************************/
 697:pervasive_eink_hardware_driver.c **** void Pv_EINK_PartialStageHandler(pv_eink_frame_data_t* previousImagePtr, 
 698:pervasive_eink_hardware_driver.c ****                                  pv_eink_frame_data_t* newImagePtr)
ARM GAS  C:\Users\User\AppData\Local\Temp\ccsn8eRz.s 			page 49


 699:pervasive_eink_hardware_driver.c **** {
 1249              		.loc 1 699 0
 1250              		.cfi_startproc
 1251              		@ args = 0, pretend = 0, frame = 0
 1252              		@ frame_needed = 0, uses_anonymous_args = 0
 1253              	.LVL117:
 1254 0000 2DE9F047 		push	{r4, r5, r6, r7, r8, r9, r10, lr}
 1255              		.cfi_def_cfa_offset 32
 1256              		.cfi_offset 4, -32
 1257              		.cfi_offset 5, -28
 1258              		.cfi_offset 6, -24
 1259              		.cfi_offset 7, -20
 1260              		.cfi_offset 8, -16
 1261              		.cfi_offset 9, -12
 1262              		.cfi_offset 10, -8
 1263              		.cfi_offset 14, -4
 1264 0004 0646     		mov	r6, r0
 1265 0006 0D46     		mov	r5, r1
 1266              	.LVL118:
 700:pervasive_eink_hardware_driver.c ****     /* Counter variable for the horizontal pixel loop */
 701:pervasive_eink_hardware_driver.c ****     uint16_t    x;
 702:pervasive_eink_hardware_driver.c ****     /* Counter variable for the vertical pixel loop */
 703:pervasive_eink_hardware_driver.c ****     uint16_t    y;
 704:pervasive_eink_hardware_driver.c ****     /* Counter variable for the horizontal byte loop */
 705:pervasive_eink_hardware_driver.c ****     uint16_t    k;
 706:pervasive_eink_hardware_driver.c ****     
 707:pervasive_eink_hardware_driver.c ****     /* Temporary storage for image data bytes */
 708:pervasive_eink_hardware_driver.c ****     uint8_t     oldByte;
 709:pervasive_eink_hardware_driver.c ****     /* Temporary storage for image data bytes */
 710:pervasive_eink_hardware_driver.c ****     uint8_t     newByte;
 711:pervasive_eink_hardware_driver.c ****     
 712:pervasive_eink_hardware_driver.c ****     /* Variable for storing the line number under scan */
 713:pervasive_eink_hardware_driver.c ****     int16       scanlineNumber = 0;
 714:pervasive_eink_hardware_driver.c ****     
 715:pervasive_eink_hardware_driver.c ****     /* Re-initialize E-INK timer to ensure the same duration of each stage  */
 716:pervasive_eink_hardware_driver.c ****     Cy_EINK_TimerInit();
 1267              		.loc 1 716 0
 1268 0008 FFF7FEFF 		bl	Cy_EINK_TimerInit
 1269              	.LVL119:
 717:pervasive_eink_hardware_driver.c ****     
 718:pervasive_eink_hardware_driver.c ****     /* Vcom level adjust */
 719:pervasive_eink_hardware_driver.c ****     Pv_EINK_SendByte(PV_EINK_VCOM2_LEVEL_COMMAND_INDEX,
 1270              		.loc 1 719 0
 1271 000c D221     		movs	r1, #210
 1272 000e 0920     		movs	r0, #9
 1273 0010 FFF7FEFF 		bl	Pv_EINK_SendByte
 1274              	.LVL120:
 720:pervasive_eink_hardware_driver.c ****                      PV_EINK_VCOM2_LEVEL_COMMAND_DATA);
 721:pervasive_eink_hardware_driver.c ****      
 722:pervasive_eink_hardware_driver.c ****     /* Vertical pixel loop */
 723:pervasive_eink_hardware_driver.c ****     for (y = 0; y < PV_EINK_VERTICAL_SIZE; y++)
 1275              		.loc 1 723 0
 1276 0014 0024     		movs	r4, #0
 1277 0016 C6E0     		b	.L132
 1278              	.LVL121:
 1279              	.L144:
 724:pervasive_eink_hardware_driver.c ****     {
ARM GAS  C:\Users\User\AppData\Local\Temp\ccsn8eRz.s 			page 50


 725:pervasive_eink_hardware_driver.c ****         /* Clear the line buffer with all zeros */
 726:pervasive_eink_hardware_driver.c ****         memset(&bulkDriverPacket[y].lineBuffer, 0, 
 1280              		.loc 1 726 0
 1281 0018 C4EBC407 		rsb	r7, r4, r4, lsl #3
 1282 001c C4EB0717 		rsb	r7, r4, r7, lsl #4
 1283 0020 DFF80082 		ldr	r8, .L165+12
 1284 0024 07EB0809 		add	r9, r7, r8
 1285 0028 6F22     		movs	r2, #111
 1286 002a 0021     		movs	r1, #0
 1287 002c 4846     		mov	r0, r9
 1288 002e FFF7FEFF 		bl	memset
 1289              	.LVL122:
 727:pervasive_eink_hardware_driver.c ****                sizeof(bulkDriverPacket[y].lineBuffer)) ;
 728:pervasive_eink_hardware_driver.c **** 
 729:pervasive_eink_hardware_driver.c ****         /* Initialize the even data, odd data and scan data pointers */
 730:pervasive_eink_hardware_driver.c ****         dataLineEven = &bulkDriverPacket[y].lineDataBySize.even[0];
 1290              		.loc 1 730 0
 1291 0032 09F1010C 		add	ip, r9, #1
 1292 0036 784B     		ldr	r3, .L165
 1293 0038 C3F870C0 		str	ip, [r3, #112]
 731:pervasive_eink_hardware_driver.c ****         dataLineOdd  = &bulkDriverPacket[y].lineDataBySize.odd[0];
 1294              		.loc 1 731 0
 1295 003c 07F1480E 		add	lr, r7, #72
 1296 0040 C644     		add	lr, lr, r8
 1297 0042 0EF1060E 		add	lr, lr, #6
 1298 0046 C3F874E0 		str	lr, [r3, #116]
 732:pervasive_eink_hardware_driver.c ****         dataLineScan = &bulkDriverPacket[y].lineDataBySize.scan[0];
 1299              		.loc 1 732 0
 1300 004a 2037     		adds	r7, r7, #32
 1301 004c B844     		add	r8, r8, r7
 1302 004e 08F10208 		add	r8, r8, #2
 1303 0052 C3F87880 		str	r8, [r3, #120]
 1304              	.LVL123:
 733:pervasive_eink_hardware_driver.c **** 
 734:pervasive_eink_hardware_driver.c ****         /* Horizontal bytes initialization */
 735:pervasive_eink_hardware_driver.c ****         k = PV_EINK_HORIZONTAL_SIZE;
 736:pervasive_eink_hardware_driver.c ****         k--;
 1305              		.loc 1 736 0
 1306 0056 2020     		movs	r0, #32
 737:pervasive_eink_hardware_driver.c ****         
 738:pervasive_eink_hardware_driver.c ****         /* Horizontal pixel loop */
 739:pervasive_eink_hardware_driver.c ****         for (x = 0; x < PV_EINK_HORIZONTAL_SIZE; x++)
 1307              		.loc 1 739 0
 1308 0058 0021     		movs	r1, #0
 1309 005a 8EE0     		b	.L133
 1310              	.LVL124:
 1311              	.L142:
 740:pervasive_eink_hardware_driver.c ****         {
 741:pervasive_eink_hardware_driver.c ****             /* Fetch successive data bytes */
 742:pervasive_eink_hardware_driver.c ****             oldByte = *previousImagePtr++;
 1312              		.loc 1 742 0
 1313 005c 771C     		adds	r7, r6, #1
 1314              	.LVL125:
 1315 005e 3278     		ldrb	r2, [r6]	@ zero_extendqisi2
 1316              	.LVL126:
 743:pervasive_eink_hardware_driver.c ****             newByte = *newImagePtr++;
 1317              		.loc 1 743 0
ARM GAS  C:\Users\User\AppData\Local\Temp\ccsn8eRz.s 			page 51


 1318 0060 6E1C     		adds	r6, r5, #1
 1319              	.LVL127:
 1320 0062 95F80090 		ldrb	r9, [r5]	@ zero_extendqisi2
 1321              	.LVL128:
 744:pervasive_eink_hardware_driver.c ****             
 745:pervasive_eink_hardware_driver.c ****             /* Calculate the Even and Odd bytes for partial update stage. Also, 
 746:pervasive_eink_hardware_driver.c ****                if the new data byte is same as the previous data byte, store a 
 747:pervasive_eink_hardware_driver.c ****                "nothing" pixel, so that the E-INK pixel won't be altered.
 748:pervasive_eink_hardware_driver.c ****                If the new data byte is different from the previous data byte, 
 749:pervasive_eink_hardware_driver.c ****                store the new data byte */
 750:pervasive_eink_hardware_driver.c ****             dataLineOdd[x]       = ((oldByte ^ newByte) & PV_EINK_ODD_MASK_A)
 1322              		.loc 1 750 0
 1323 0066 0EEB0105 		add	r5, lr, r1
 1324 006a 82EA0902 		eor	r2, r2, r9
 1325              	.LVL129:
 1326 006e 12F0400F 		tst	r2, #64
 1327 0072 04D0     		beq	.L148
 1328              		.loc 1 750 0 is_stmt 0 discriminator 1
 1329 0074 19F0400F 		tst	r9, #64
 1330 0078 03D0     		beq	.L149
 1331              		.loc 1 750 0
 1332 007a 8023     		movs	r3, #128
 1333 007c 02E0     		b	.L134
 1334              	.L148:
 1335 007e 4023     		movs	r3, #64
 1336 0080 00E0     		b	.L134
 1337              	.L149:
 1338 0082 C023     		movs	r3, #192
 1339              	.L134:
 1340              		.loc 1 750 0 discriminator 8
 1341 0084 2B70     		strb	r3, [r5]
 1342              	.LVL130:
 751:pervasive_eink_hardware_driver.c ****                                     ?((newByte & PV_EINK_ODD_MASK_A)
 752:pervasive_eink_hardware_driver.c ****                                     ? PV_EINK_WHITE3
 753:pervasive_eink_hardware_driver.c ****                                     : PV_EINK_BLACK3) : PV_EINK_NOTHING3;
 754:pervasive_eink_hardware_driver.c ****             dataLineOdd[x]      |= ((oldByte ^ newByte) & PV_EINK_ODD_MASK_B)
 1343              		.loc 1 754 0 is_stmt 1 discriminator 8
 1344 0086 5BB2     		sxtb	r3, r3
 1345 0088 12F0100F 		tst	r2, #16
 1346 008c 05D0     		beq	.L150
 1347              		.loc 1 754 0 is_stmt 0 discriminator 1
 1348 008e 19F0100F 		tst	r9, #16
 1349 0092 05D0     		beq	.L151
 1350              		.loc 1 754 0
 1351 0094 4FF0200A 		mov	r10, #32
 1352 0098 04E0     		b	.L135
 1353              	.L150:
 1354 009a 4FF0100A 		mov	r10, #16
 1355 009e 01E0     		b	.L135
 1356              	.L151:
 1357 00a0 4FF0300A 		mov	r10, #48
 1358              	.L135:
 1359              		.loc 1 754 0 discriminator 8
 1360 00a4 4AEA0303 		orr	r3, r10, r3
 1361 00a8 2B70     		strb	r3, [r5]
 755:pervasive_eink_hardware_driver.c ****                                     ?((newByte & PV_EINK_ODD_MASK_B) 
 756:pervasive_eink_hardware_driver.c ****                                     ? PV_EINK_WHITE2 
ARM GAS  C:\Users\User\AppData\Local\Temp\ccsn8eRz.s 			page 52


 757:pervasive_eink_hardware_driver.c ****                                     : PV_EINK_BLACK2) : PV_EINK_NOTHING2;
 758:pervasive_eink_hardware_driver.c ****             dataLineOdd[x]      |= ((oldByte ^ newByte) & PV_EINK_ODD_MASK_C)
 1362              		.loc 1 758 0 is_stmt 1 discriminator 8
 1363 00aa 12F0040F 		tst	r2, #4
 1364 00ae 05D0     		beq	.L152
 1365              		.loc 1 758 0 is_stmt 0 discriminator 1
 1366 00b0 19F0040F 		tst	r9, #4
 1367 00b4 05D0     		beq	.L153
 1368              		.loc 1 758 0
 1369 00b6 4FF0080A 		mov	r10, #8
 1370 00ba 04E0     		b	.L136
 1371              	.L152:
 1372 00bc 4FF0040A 		mov	r10, #4
 1373 00c0 01E0     		b	.L136
 1374              	.L153:
 1375 00c2 4FF00C0A 		mov	r10, #12
 1376              	.L136:
 1377              		.loc 1 758 0 discriminator 8
 1378 00c6 4AEA0303 		orr	r3, r10, r3
 1379 00ca 2B70     		strb	r3, [r5]
 759:pervasive_eink_hardware_driver.c ****                                     ?((newByte & PV_EINK_ODD_MASK_C) 
 760:pervasive_eink_hardware_driver.c ****                                     ? PV_EINK_WHITE1
 761:pervasive_eink_hardware_driver.c ****                                     : PV_EINK_BLACK1) : PV_EINK_NOTHING1;
 762:pervasive_eink_hardware_driver.c ****             dataLineOdd[x]      |= ((oldByte ^ newByte) & PV_EINK_ODD_MASK_D)
 1380              		.loc 1 762 0 is_stmt 1 discriminator 8
 1381 00cc 12F0010F 		tst	r2, #1
 1382 00d0 05D0     		beq	.L154
 1383              		.loc 1 762 0 is_stmt 0 discriminator 1
 1384 00d2 19F0010F 		tst	r9, #1
 1385 00d6 05D0     		beq	.L155
 1386              		.loc 1 762 0
 1387 00d8 4FF0020A 		mov	r10, #2
 1388 00dc 04E0     		b	.L137
 1389              	.L154:
 1390 00de 4FF0010A 		mov	r10, #1
 1391 00e2 01E0     		b	.L137
 1392              	.L155:
 1393 00e4 4FF0030A 		mov	r10, #3
 1394              	.L137:
 1395              		.loc 1 762 0 discriminator 8
 1396 00e8 4AEA0303 		orr	r3, r10, r3
 1397 00ec 2B70     		strb	r3, [r5]
 763:pervasive_eink_hardware_driver.c ****                                     ?((newByte & PV_EINK_ODD_MASK_D) 
 764:pervasive_eink_hardware_driver.c ****                                     ? PV_EINK_WHITE0 
 765:pervasive_eink_hardware_driver.c ****                                     : PV_EINK_BLACK0) : PV_EINK_NOTHING0;
 766:pervasive_eink_hardware_driver.c ****             dataLineEven[k]      = ((oldByte ^ newByte) & PV_EINK_EVEN_MASK_A)
 1398              		.loc 1 766 0 is_stmt 1 discriminator 8
 1399 00ee 0CEB0005 		add	r5, ip, r0
 1400 00f2 12F0800F 		tst	r2, #128
 1401 00f6 04D0     		beq	.L156
 1402              		.loc 1 766 0 is_stmt 0 discriminator 1
 1403 00f8 19F0800F 		tst	r9, #128
 1404 00fc 03D0     		beq	.L157
 1405              		.loc 1 766 0
 1406 00fe 0223     		movs	r3, #2
 1407 0100 02E0     		b	.L138
 1408              	.L156:
ARM GAS  C:\Users\User\AppData\Local\Temp\ccsn8eRz.s 			page 53


 1409 0102 0123     		movs	r3, #1
 1410 0104 00E0     		b	.L138
 1411              	.L157:
 1412 0106 0323     		movs	r3, #3
 1413              	.L138:
 1414              		.loc 1 766 0 discriminator 8
 1415 0108 2B70     		strb	r3, [r5]
 767:pervasive_eink_hardware_driver.c ****                                     ?((newByte & PV_EINK_EVEN_MASK_A) 
 768:pervasive_eink_hardware_driver.c ****                                     ? PV_EINK_WHITE0
 769:pervasive_eink_hardware_driver.c ****                                     : PV_EINK_BLACK0) : PV_EINK_NOTHING0;
 770:pervasive_eink_hardware_driver.c ****             dataLineEven[k]     |= ((oldByte ^ newByte) & PV_EINK_EVEN_MASK_B) 
 1416              		.loc 1 770 0 is_stmt 1 discriminator 8
 1417 010a 5BB2     		sxtb	r3, r3
 1418 010c 12F0200F 		tst	r2, #32
 1419 0110 05D0     		beq	.L158
 1420              		.loc 1 770 0 is_stmt 0 discriminator 1
 1421 0112 19F0200F 		tst	r9, #32
 1422 0116 05D0     		beq	.L159
 1423              		.loc 1 770 0
 1424 0118 4FF0080A 		mov	r10, #8
 1425 011c 04E0     		b	.L139
 1426              	.L158:
 1427 011e 4FF0040A 		mov	r10, #4
 1428 0122 01E0     		b	.L139
 1429              	.L159:
 1430 0124 4FF00C0A 		mov	r10, #12
 1431              	.L139:
 1432              		.loc 1 770 0 discriminator 8
 1433 0128 4AEA0303 		orr	r3, r10, r3
 1434 012c 2B70     		strb	r3, [r5]
 771:pervasive_eink_hardware_driver.c ****                                     ?((newByte & PV_EINK_EVEN_MASK_B) 
 772:pervasive_eink_hardware_driver.c ****                                     ? PV_EINK_WHITE1
 773:pervasive_eink_hardware_driver.c ****                                     : PV_EINK_BLACK1) : PV_EINK_NOTHING1;
 774:pervasive_eink_hardware_driver.c ****             dataLineEven[k]     |= ((oldByte ^ newByte) & PV_EINK_EVEN_MASK_C)
 1435              		.loc 1 774 0 is_stmt 1 discriminator 8
 1436 012e 12F0080F 		tst	r2, #8
 1437 0132 05D0     		beq	.L160
 1438              		.loc 1 774 0 is_stmt 0 discriminator 1
 1439 0134 19F0080F 		tst	r9, #8
 1440 0138 05D0     		beq	.L161
 1441              		.loc 1 774 0
 1442 013a 4FF0200A 		mov	r10, #32
 1443 013e 04E0     		b	.L140
 1444              	.L160:
 1445 0140 4FF0100A 		mov	r10, #16
 1446 0144 01E0     		b	.L140
 1447              	.L161:
 1448 0146 4FF0300A 		mov	r10, #48
 1449              	.L140:
 1450              		.loc 1 774 0 discriminator 8
 1451 014a 4AEA0303 		orr	r3, r10, r3
 1452 014e 2B70     		strb	r3, [r5]
 775:pervasive_eink_hardware_driver.c ****                                     ?((newByte & PV_EINK_EVEN_MASK_C) 
 776:pervasive_eink_hardware_driver.c ****                                     ? PV_EINK_WHITE2 
 777:pervasive_eink_hardware_driver.c ****                                     : PV_EINK_BLACK2) : PV_EINK_NOTHING2;
 778:pervasive_eink_hardware_driver.c ****             dataLineEven[k--]   |= ((oldByte ^ newByte) & PV_EINK_EVEN_MASK_D)
 1453              		.loc 1 778 0 is_stmt 1 discriminator 8
ARM GAS  C:\Users\User\AppData\Local\Temp\ccsn8eRz.s 			page 54


 1454 0150 0138     		subs	r0, r0, #1
 1455              	.LVL131:
 1456 0152 80B2     		uxth	r0, r0
 1457              	.LVL132:
 1458 0154 12F0020F 		tst	r2, #2
 1459 0158 05D0     		beq	.L162
 1460              		.loc 1 778 0 is_stmt 0 discriminator 1
 1461 015a 19F0020F 		tst	r9, #2
 1462 015e 04D0     		beq	.L163
 1463              		.loc 1 778 0
 1464 0160 6FF07F02 		mvn	r2, #127
 1465 0164 03E0     		b	.L141
 1466              	.L162:
 1467 0166 4022     		movs	r2, #64
 1468 0168 01E0     		b	.L141
 1469              	.L163:
 1470 016a 6FF03F02 		mvn	r2, #63
 1471              	.L141:
 1472              		.loc 1 778 0 discriminator 8
 1473 016e 1343     		orrs	r3, r3, r2
 1474 0170 2B70     		strb	r3, [r5]
 739:pervasive_eink_hardware_driver.c ****         {
 1475              		.loc 1 739 0 is_stmt 1 discriminator 8
 1476 0172 0131     		adds	r1, r1, #1
 1477              	.LVL133:
 1478 0174 89B2     		uxth	r1, r1
 1479              	.LVL134:
 743:pervasive_eink_hardware_driver.c ****             
 1480              		.loc 1 743 0 discriminator 8
 1481 0176 3546     		mov	r5, r6
 742:pervasive_eink_hardware_driver.c ****             newByte = *newImagePtr++;
 1482              		.loc 1 742 0 discriminator 8
 1483 0178 3E46     		mov	r6, r7
 1484              	.LVL135:
 1485              	.L133:
 739:pervasive_eink_hardware_driver.c ****         {
 1486              		.loc 1 739 0 discriminator 2
 1487 017a 2029     		cmp	r1, #32
 1488 017c 7FF66EAF 		bls	.L142
 1489              	.LVL136:
 779:pervasive_eink_hardware_driver.c ****                                     ?((newByte & PV_EINK_EVEN_MASK_D) 
 780:pervasive_eink_hardware_driver.c ****                                     ? PV_EINK_WHITE3 
 781:pervasive_eink_hardware_driver.c ****                                     : PV_EINK_BLACK3) : PV_EINK_NOTHING3;
 782:pervasive_eink_hardware_driver.c ****         }
 783:pervasive_eink_hardware_driver.c ****         /* Move onto the next line */
 784:pervasive_eink_hardware_driver.c ****         scanlineNumber = PV_EINK_VERTICAL_SIZE - y;
 785:pervasive_eink_hardware_driver.c ****         scanlineNumber--;
 1490              		.loc 1 785 0 discriminator 2
 1491 0180 C4F1AF03 		rsb	r3, r4, #175
 1492 0184 1BB2     		sxth	r3, r3
 1493              	.LVL137:
 786:pervasive_eink_hardware_driver.c ****         
 787:pervasive_eink_hardware_driver.c ****         /* Shift Scan byte according to the data line */
 788:pervasive_eink_hardware_driver.c ****         dataLineScan[(scanlineNumber >> PV_EINK_PIXEL_SIZE)] = scanTable
 1494              		.loc 1 788 0 discriminator 2
 1495 0186 9910     		asrs	r1, r3, #2
 1496              	.LVL138:
ARM GAS  C:\Users\User\AppData\Local\Temp\ccsn8eRz.s 			page 55


 789:pervasive_eink_hardware_driver.c ****                             [(scanlineNumber % PV_EINK_SCAN_TABLE_SIZE)];
 1497              		.loc 1 789 0 discriminator 2
 1498 0188 244A     		ldr	r2, .L165+4
 1499 018a 1340     		ands	r3, r3, r2
 1500              	.LVL139:
 1501 018c 03D5     		bpl	.L143
 1502 018e 013B     		subs	r3, r3, #1
 1503 0190 63F00303 		orn	r3, r3, #3
 1504 0194 0133     		adds	r3, r3, #1
 1505              	.L143:
 1506 0196 224A     		ldr	r2, .L165+8
 1507 0198 02FA83F3 		sxtah	r3, r2, r3
 1508 019c 1B7A     		ldrb	r3, [r3, #8]	@ zero_extendqisi2
 788:pervasive_eink_hardware_driver.c ****                             [(scanlineNumber % PV_EINK_SCAN_TABLE_SIZE)];
 1509              		.loc 1 788 0 discriminator 2
 1510 019e 08F80130 		strb	r3, [r8, r1]
 723:pervasive_eink_hardware_driver.c ****     {
 1511              		.loc 1 723 0 discriminator 2
 1512 01a2 0134     		adds	r4, r4, #1
 1513              	.LVL140:
 1514 01a4 A4B2     		uxth	r4, r4
 1515              	.LVL141:
 1516              	.L132:
 723:pervasive_eink_hardware_driver.c ****     {
 1517              		.loc 1 723 0 is_stmt 0 discriminator 1
 1518 01a6 AF2C     		cmp	r4, #175
 1519 01a8 7FF636AF 		bls	.L144
 1520              	.LVL142:
 1521              	.L147:
 790:pervasive_eink_hardware_driver.c ****     }
 791:pervasive_eink_hardware_driver.c ****     
 792:pervasive_eink_hardware_driver.c ****     /* Perform the update operation until the total time of frames exceed stage
 793:pervasive_eink_hardware_driver.c ****        time */
 794:pervasive_eink_hardware_driver.c ****     do
 795:pervasive_eink_hardware_driver.c ****     {
 796:pervasive_eink_hardware_driver.c ****         /* Perform a line by line update */
 797:pervasive_eink_hardware_driver.c ****         for (y = 0; y < PV_EINK_VERTICAL_SIZE; y++)
 1522              		.loc 1 797 0 is_stmt 1
 1523 01ac 0024     		movs	r4, #0
 1524 01ae 21E0     		b	.L145
 1525              	.LVL143:
 1526              	.L146:
 798:pervasive_eink_hardware_driver.c ****         {
 799:pervasive_eink_hardware_driver.c ****             /* Send the prepared data to the E-INK display */
 800:pervasive_eink_hardware_driver.c ****             Pv_EINK_SendData(PV_EINK_PIXEL_DATA_COMMAND_INDEX,
 801:pervasive_eink_hardware_driver.c ****                             (uint8_t*) &bulkDriverPacket[y].lineBuffer,
 1527              		.loc 1 801 0 discriminator 3
 1528 01b0 C4EBC405 		rsb	r5, r4, r4, lsl #3
 1529 01b4 C4EB0515 		rsb	r5, r4, r5, lsl #4
 1530 01b8 1A4B     		ldr	r3, .L165+12
 1531 01ba 1D44     		add	r5, r5, r3
 800:pervasive_eink_hardware_driver.c ****                             (uint8_t*) &bulkDriverPacket[y].lineBuffer,
 1532              		.loc 1 800 0 discriminator 3
 1533 01bc 6F22     		movs	r2, #111
 1534 01be 2946     		mov	r1, r5
 1535 01c0 0A20     		movs	r0, #10
 1536 01c2 FFF7FEFF 		bl	Pv_EINK_SendData
ARM GAS  C:\Users\User\AppData\Local\Temp\ccsn8eRz.s 			page 56


 1537              	.LVL144:
 802:pervasive_eink_hardware_driver.c ****                              PV_EINK_DATA_LINE_SIZE);
 803:pervasive_eink_hardware_driver.c ****             /* Turn on Output Enable to latch the frame */
 804:pervasive_eink_hardware_driver.c ****             Pv_EINK_SendByte(PV_EINK_ENABLE_OE_COMMAND_INDEX,
 1538              		.loc 1 804 0 discriminator 3
 1539 01c6 0721     		movs	r1, #7
 1540 01c8 0220     		movs	r0, #2
 1541 01ca FFF7FEFF 		bl	Pv_EINK_SendByte
 1542              	.LVL145:
 805:pervasive_eink_hardware_driver.c ****                              PV_EINK_ENABLE_OE_COMMAND_DATA);
 806:pervasive_eink_hardware_driver.c ****             
 807:pervasive_eink_hardware_driver.c ****             /* Calculate the current line under scan */
 808:pervasive_eink_hardware_driver.c ****             scanlineNumber = PV_EINK_VERTICAL_SIZE - y;
 809:pervasive_eink_hardware_driver.c ****             scanlineNumber--;
 1543              		.loc 1 809 0 discriminator 3
 1544 01ce C4F1AF03 		rsb	r3, r4, #175
 1545              	.LVL146:
 810:pervasive_eink_hardware_driver.c ****             
 811:pervasive_eink_hardware_driver.c ****             /* Re-initialize the scan line (extra step for partial update) */
 812:pervasive_eink_hardware_driver.c ****             bulkDriverPacket[y].lineDataBySize.scan[(scanlineNumber 
 813:pervasive_eink_hardware_driver.c ****                                                      >> PV_EINK_PIXEL_SIZE)]
 1546              		.loc 1 813 0 discriminator 3
 1547 01d2 43F38D03 		sbfx	r3, r3, #2, #14
 1548              	.LVL147:
 814:pervasive_eink_hardware_driver.c ****                                                      = PV_EINK_SCAN_BYTE_INIT;
 1549              		.loc 1 814 0 discriminator 3
 1550 01d6 2B44     		add	r3, r3, r5
 1551 01d8 0022     		movs	r2, #0
 1552 01da 83F82220 		strb	r2, [r3, #34]
 815:pervasive_eink_hardware_driver.c **** 
 816:pervasive_eink_hardware_driver.c ****             Pv_EINK_SendData(PV_EINK_PIXEL_DATA_COMMAND_INDEX,
 1553              		.loc 1 816 0 discriminator 3
 1554 01de 6F22     		movs	r2, #111
 1555 01e0 2946     		mov	r1, r5
 1556 01e2 0A20     		movs	r0, #10
 1557 01e4 FFF7FEFF 		bl	Pv_EINK_SendData
 1558              	.LVL148:
 817:pervasive_eink_hardware_driver.c ****                             (uint8_t*) &bulkDriverPacket[y].lineBuffer,
 818:pervasive_eink_hardware_driver.c ****                              PV_EINK_DATA_LINE_SIZE);
 819:pervasive_eink_hardware_driver.c ****             Pv_EINK_SendByte(PV_EINK_ENABLE_OE_COMMAND_INDEX,
 1559              		.loc 1 819 0 discriminator 3
 1560 01e8 0721     		movs	r1, #7
 1561 01ea 0220     		movs	r0, #2
 1562 01ec FFF7FEFF 		bl	Pv_EINK_SendByte
 1563              	.LVL149:
 797:pervasive_eink_hardware_driver.c ****         {
 1564              		.loc 1 797 0 discriminator 3
 1565 01f0 0134     		adds	r4, r4, #1
 1566              	.LVL150:
 1567 01f2 A4B2     		uxth	r4, r4
 1568              	.LVL151:
 1569              	.L145:
 797:pervasive_eink_hardware_driver.c ****         {
 1570              		.loc 1 797 0 is_stmt 0 discriminator 1
 1571 01f4 AF2C     		cmp	r4, #175
 1572 01f6 DBD9     		bls	.L146
 820:pervasive_eink_hardware_driver.c ****                              PV_EINK_ENABLE_OE_COMMAND_DATA);
ARM GAS  C:\Users\User\AppData\Local\Temp\ccsn8eRz.s 			page 57


 821:pervasive_eink_hardware_driver.c ****         }
 822:pervasive_eink_hardware_driver.c ****     }
 823:pervasive_eink_hardware_driver.c ****     /* Loop until the total time of frames exceed stage time */
 824:pervasive_eink_hardware_driver.c ****     while (partialUpdateTime > Cy_EINK_GetTimeTick());
 1573              		.loc 1 824 0 is_stmt 1
 1574 01f8 074B     		ldr	r3, .L165
 1575 01fa B3F87E40 		ldrh	r4, [r3, #126]
 1576              	.LVL152:
 1577 01fe FFF7FEFF 		bl	Cy_EINK_GetTimeTick
 1578              	.LVL153:
 1579 0202 8442     		cmp	r4, r0
 1580 0204 D2D8     		bhi	.L147
 825:pervasive_eink_hardware_driver.c ****     
 826:pervasive_eink_hardware_driver.c ****     /* Stop system timer */
 827:pervasive_eink_hardware_driver.c ****     Cy_EINK_TimerStop();
 1581              		.loc 1 827 0
 1582 0206 FFF7FEFF 		bl	Cy_EINK_TimerStop
 1583              	.LVL154:
 828:pervasive_eink_hardware_driver.c ****     
 829:pervasive_eink_hardware_driver.c ****     /* Re-adjust Vcom level */
 830:pervasive_eink_hardware_driver.c ****     Pv_EINK_SendByte(PV_EINK_VCOM1_LEVEL_COMMAND_INDEX, 
 1584              		.loc 1 830 0
 1585 020a C221     		movs	r1, #194
 1586 020c 0920     		movs	r0, #9
 1587 020e FFF7FEFF 		bl	Pv_EINK_SendByte
 1588              	.LVL155:
 1589 0212 BDE8F087 		pop	{r4, r5, r6, r7, r8, r9, r10, pc}
 1590              	.LVL156:
 1591              	.L166:
 1592 0216 00BF     		.align	2
 1593              	.L165:
 1594 0218 00000000 		.word	.LANCHOR0
 1595 021c 03000080 		.word	-2147483645
 1596 0220 00000000 		.word	.LANCHOR1
 1597 0224 00000000 		.word	bulkDriverPacket
 1598              		.cfi_endproc
 1599              	.LFE654:
 1600              		.size	Pv_EINK_PartialStageHandler, .-Pv_EINK_PartialStageHandler
 1601              		.section	.text.Pv_EINK_NothingFrame,"ax",%progbits
 1602              		.align	2
 1603              		.global	Pv_EINK_NothingFrame
 1604              		.thumb
 1605              		.thumb_func
 1606              		.type	Pv_EINK_NothingFrame, %function
 1607              	Pv_EINK_NothingFrame:
 1608              	.LFB655:
 831:pervasive_eink_hardware_driver.c ****                      PV_EINK_VCOM1_LEVEL_COMMAND_DATA);
 832:pervasive_eink_hardware_driver.c **** }
 833:pervasive_eink_hardware_driver.c **** 
 834:pervasive_eink_hardware_driver.c **** /*******************************************************************************
 835:pervasive_eink_hardware_driver.c **** * Function Name:  void Pv_EINK_NothingFrame(void)
 836:pervasive_eink_hardware_driver.c **** ********************************************************************************
 837:pervasive_eink_hardware_driver.c **** *
 838:pervasive_eink_hardware_driver.c **** * Summary: Write a "Nothing Frame" to driver. For a "Nothing Frame",
 839:pervasive_eink_hardware_driver.c **** * all pixel data D(x,y) are "01".
 840:pervasive_eink_hardware_driver.c **** * For more details, please refer to the driver G2 document Section 6.
 841:pervasive_eink_hardware_driver.c **** *
ARM GAS  C:\Users\User\AppData\Local\Temp\ccsn8eRz.s 			page 58


 842:pervasive_eink_hardware_driver.c **** * Parameters:
 843:pervasive_eink_hardware_driver.c **** *  None
 844:pervasive_eink_hardware_driver.c **** *
 845:pervasive_eink_hardware_driver.c **** * Return:
 846:pervasive_eink_hardware_driver.c **** *  None
 847:pervasive_eink_hardware_driver.c **** *
 848:pervasive_eink_hardware_driver.c **** * Side Effects:
 849:pervasive_eink_hardware_driver.c **** *  None
 850:pervasive_eink_hardware_driver.c **** *******************************************************************************/
 851:pervasive_eink_hardware_driver.c **** void Pv_EINK_NothingFrame(void)
 852:pervasive_eink_hardware_driver.c **** {
 1609              		.loc 1 852 0
 1610              		.cfi_startproc
 1611              		@ args = 0, pretend = 0, frame = 0
 1612              		@ frame_needed = 0, uses_anonymous_args = 0
 1613              	.LVL157:
 853:pervasive_eink_hardware_driver.c ****     /* Counter variable for data line bytes */
 854:pervasive_eink_hardware_driver.c ****     uint16_t    byteCounter;
 855:pervasive_eink_hardware_driver.c ****     
 856:pervasive_eink_hardware_driver.c ****     /* Set all Even and Odd data bytes as "Nothing" bytes */
 857:pervasive_eink_hardware_driver.c ****     for (byteCounter = 0; byteCounter < PV_EINK_HORIZONTAL_SIZE; byteCounter++)
 1614              		.loc 1 857 0
 1615 0000 0023     		movs	r3, #0
 1616 0002 07E0     		b	.L168
 1617              	.LVL158:
 1618              	.L169:
 858:pervasive_eink_hardware_driver.c ****     {
 859:pervasive_eink_hardware_driver.c ****         dataLineEven[byteCounter] = PV_EINK_NOTHING;
 1619              		.loc 1 859 0 discriminator 3
 1620 0004 1349     		ldr	r1, .L173
 1621 0006 086F     		ldr	r0, [r1, #112]
 1622 0008 5522     		movs	r2, #85
 1623 000a C254     		strb	r2, [r0, r3]
 860:pervasive_eink_hardware_driver.c ****         dataLineOdd[byteCounter] = PV_EINK_NOTHING;
 1624              		.loc 1 860 0 discriminator 3
 1625 000c 496F     		ldr	r1, [r1, #116]
 1626 000e CA54     		strb	r2, [r1, r3]
 857:pervasive_eink_hardware_driver.c ****     {
 1627              		.loc 1 857 0 discriminator 3
 1628 0010 0133     		adds	r3, r3, #1
 1629              	.LVL159:
 1630 0012 9BB2     		uxth	r3, r3
 1631              	.LVL160:
 1632              	.L168:
 857:pervasive_eink_hardware_driver.c ****     {
 1633              		.loc 1 857 0 is_stmt 0 discriminator 1
 1634 0014 202B     		cmp	r3, #32
 1635 0016 F5D9     		bls	.L169
 852:pervasive_eink_hardware_driver.c ****     /* Counter variable for data line bytes */
 1636              		.loc 1 852 0 is_stmt 1
 1637 0018 70B5     		push	{r4, r5, r6, lr}
 1638              		.cfi_def_cfa_offset 16
 1639              		.cfi_offset 4, -16
 1640              		.cfi_offset 5, -12
 1641              		.cfi_offset 6, -8
 1642              		.cfi_offset 14, -4
 1643 001a 0024     		movs	r4, #0
ARM GAS  C:\Users\User\AppData\Local\Temp\ccsn8eRz.s 			page 59


 1644 001c 16E0     		b	.L170
 1645              	.LVL161:
 1646              	.L171:
 861:pervasive_eink_hardware_driver.c ****     }
 862:pervasive_eink_hardware_driver.c ****     /* Send the same horizontal data for all vertical lines */
 863:pervasive_eink_hardware_driver.c ****     for (byteCounter = 0; byteCounter < PV_EINK_VERTICAL_SIZE; byteCounter++)
 864:pervasive_eink_hardware_driver.c ****     {
 865:pervasive_eink_hardware_driver.c ****         /* Scan byte shift per data line */
 866:pervasive_eink_hardware_driver.c ****         dataLineScan[(byteCounter >> PV_EINK_PIXEL_SIZE)] = scanTable
 1647              		.loc 1 866 0 discriminator 3
 1648 001e A608     		lsrs	r6, r4, #2
 1649 0020 0C4D     		ldr	r5, .L173
 1650 0022 AA6F     		ldr	r2, [r5, #120]
 867:pervasive_eink_hardware_driver.c ****                             [(byteCounter % PV_EINK_SCAN_TABLE_SIZE)];
 1651              		.loc 1 867 0 discriminator 3
 1652 0024 04F00303 		and	r3, r4, #3
 1653 0028 0B49     		ldr	r1, .L173+4
 1654 002a 0B44     		add	r3, r3, r1
 1655 002c 1B7A     		ldrb	r3, [r3, #8]	@ zero_extendqisi2
 866:pervasive_eink_hardware_driver.c ****                             [(byteCounter % PV_EINK_SCAN_TABLE_SIZE)];
 1656              		.loc 1 866 0 discriminator 3
 1657 002e 9355     		strb	r3, [r2, r6]
 868:pervasive_eink_hardware_driver.c ****         
 869:pervasive_eink_hardware_driver.c ****         /* Send the prepared data to the E-INK display */
 870:pervasive_eink_hardware_driver.c ****         Pv_EINK_SendData(PV_EINK_PIXEL_DATA_COMMAND_INDEX,
 1658              		.loc 1 870 0 discriminator 3
 1659 0030 6F22     		movs	r2, #111
 1660 0032 2946     		mov	r1, r5
 1661 0034 0A20     		movs	r0, #10
 1662 0036 FFF7FEFF 		bl	Pv_EINK_SendData
 1663              	.LVL162:
 871:pervasive_eink_hardware_driver.c ****                         (uint8_t*) &driverPacket.lineBuffer,
 872:pervasive_eink_hardware_driver.c ****                          PV_EINK_DATA_LINE_SIZE);
 873:pervasive_eink_hardware_driver.c ****         /* Turn on Output Enable to latch the frame */
 874:pervasive_eink_hardware_driver.c ****         Pv_EINK_SendByte(PV_EINK_ENABLE_OE_COMMAND_INDEX, 
 1664              		.loc 1 874 0 discriminator 3
 1665 003a 0721     		movs	r1, #7
 1666 003c 0220     		movs	r0, #2
 1667 003e FFF7FEFF 		bl	Pv_EINK_SendByte
 1668              	.LVL163:
 875:pervasive_eink_hardware_driver.c ****                          PV_EINK_ENABLE_OE_COMMAND_DATA);
 876:pervasive_eink_hardware_driver.c ****         
 877:pervasive_eink_hardware_driver.c ****         /* Initialize the next scan byte */
 878:pervasive_eink_hardware_driver.c ****         dataLineScan[(byteCounter >> PV_EINK_PIXEL_SIZE)] = 0u;
 1669              		.loc 1 878 0 discriminator 3
 1670 0042 AB6F     		ldr	r3, [r5, #120]
 1671 0044 0022     		movs	r2, #0
 1672 0046 9A55     		strb	r2, [r3, r6]
 863:pervasive_eink_hardware_driver.c ****     {
 1673              		.loc 1 863 0 discriminator 3
 1674 0048 0134     		adds	r4, r4, #1
 1675              	.LVL164:
 1676 004a A4B2     		uxth	r4, r4
 1677              	.LVL165:
 1678              	.L170:
 863:pervasive_eink_hardware_driver.c ****     {
 1679              		.loc 1 863 0 is_stmt 0 discriminator 1
ARM GAS  C:\Users\User\AppData\Local\Temp\ccsn8eRz.s 			page 60


 1680 004c AF2C     		cmp	r4, #175
 1681 004e E6D9     		bls	.L171
 879:pervasive_eink_hardware_driver.c ****     }
 880:pervasive_eink_hardware_driver.c **** }
 1682              		.loc 1 880 0 is_stmt 1
 1683 0050 70BD     		pop	{r4, r5, r6, pc}
 1684              	.LVL166:
 1685              	.L174:
 1686 0052 00BF     		.align	2
 1687              	.L173:
 1688 0054 00000000 		.word	.LANCHOR0
 1689 0058 00000000 		.word	.LANCHOR1
 1690              		.cfi_endproc
 1691              	.LFE655:
 1692              		.size	Pv_EINK_NothingFrame, .-Pv_EINK_NothingFrame
 1693              		.section	.text.Pv_EINK_DummyLine,"ax",%progbits
 1694              		.align	2
 1695              		.global	Pv_EINK_DummyLine
 1696              		.thumb
 1697              		.thumb_func
 1698              		.type	Pv_EINK_DummyLine, %function
 1699              	Pv_EINK_DummyLine:
 1700              	.LFB656:
 881:pervasive_eink_hardware_driver.c **** 
 882:pervasive_eink_hardware_driver.c **** /*******************************************************************************
 883:pervasive_eink_hardware_driver.c **** * Function Name:  void Pv_EINK_DummyLine(void)
 884:pervasive_eink_hardware_driver.c **** ********************************************************************************
 885:pervasive_eink_hardware_driver.c **** *
 886:pervasive_eink_hardware_driver.c **** * Summary: Write a "Dummy Line" to driver. For a "Dummy Line" , all pixel data
 887:pervasive_eink_hardware_driver.c **** * are "00". For more details, please refer to the driver G2 document Section 6.
 888:pervasive_eink_hardware_driver.c **** *
 889:pervasive_eink_hardware_driver.c **** * Parameters:
 890:pervasive_eink_hardware_driver.c **** *  None
 891:pervasive_eink_hardware_driver.c **** *
 892:pervasive_eink_hardware_driver.c **** * Return:
 893:pervasive_eink_hardware_driver.c **** *  None
 894:pervasive_eink_hardware_driver.c **** *
 895:pervasive_eink_hardware_driver.c **** * Side Effects:
 896:pervasive_eink_hardware_driver.c **** *  None
 897:pervasive_eink_hardware_driver.c **** *******************************************************************************/
 898:pervasive_eink_hardware_driver.c **** void Pv_EINK_DummyLine(void)
 899:pervasive_eink_hardware_driver.c **** {
 1701              		.loc 1 899 0
 1702              		.cfi_startproc
 1703              		@ args = 0, pretend = 0, frame = 0
 1704              		@ frame_needed = 0, uses_anonymous_args = 0
 1705 0000 08B5     		push	{r3, lr}
 1706              		.cfi_def_cfa_offset 8
 1707              		.cfi_offset 3, -8
 1708              		.cfi_offset 14, -4
 1709              	.LVL167:
 900:pervasive_eink_hardware_driver.c ****     /* Counter variable for data line bytes */
 901:pervasive_eink_hardware_driver.c ****     uint8_t byteCounter;
 902:pervasive_eink_hardware_driver.c ****     
 903:pervasive_eink_hardware_driver.c ****     /* Create a data line containing dummy bytes */
 904:pervasive_eink_hardware_driver.c ****     for (byteCounter = 0; byteCounter < (PV_EINK_VERTICAL_SIZE 
 1710              		.loc 1 904 0
ARM GAS  C:\Users\User\AppData\Local\Temp\ccsn8eRz.s 			page 61


 1711 0002 0023     		movs	r3, #0
 1712 0004 04E0     		b	.L176
 1713              	.LVL168:
 1714              	.L177:
 905:pervasive_eink_hardware_driver.c ****                                         / CY_EINK_BYTE_SIZE);
 906:pervasive_eink_hardware_driver.c ****          byteCounter++)
 907:pervasive_eink_hardware_driver.c ****     {
 908:pervasive_eink_hardware_driver.c ****         driverPacket.lineBuffer[byteCounter] = PV_EINK_DUMMY_BYTE;
 1715              		.loc 1 908 0
 1716 0006 0021     		movs	r1, #0
 1717 0008 094A     		ldr	r2, .L179
 1718 000a D154     		strb	r1, [r2, r3]
 906:pervasive_eink_hardware_driver.c ****     {
 1719              		.loc 1 906 0
 1720 000c 0133     		adds	r3, r3, #1
 1721              	.LVL169:
 1722 000e DBB2     		uxtb	r3, r3
 1723              	.LVL170:
 1724              	.L176:
 904:pervasive_eink_hardware_driver.c ****                                         / CY_EINK_BYTE_SIZE);
 1725              		.loc 1 904 0 discriminator 1
 1726 0010 152B     		cmp	r3, #21
 1727 0012 F8D9     		bls	.L177
 909:pervasive_eink_hardware_driver.c ****     }
 910:pervasive_eink_hardware_driver.c ****     
 911:pervasive_eink_hardware_driver.c ****     /* Set charge pump voltage level to reduce voltage shift */
 912:pervasive_eink_hardware_driver.c ****     Pv_EINK_SendByte(PV_EINK_PWR2_SETTING_COMMAND_INDEX, 
 1728              		.loc 1 912 0
 1729 0014 0021     		movs	r1, #0
 1730 0016 0420     		movs	r0, #4
 1731 0018 FFF7FEFF 		bl	Pv_EINK_SendByte
 1732              	.LVL171:
 913:pervasive_eink_hardware_driver.c ****                      PV_EINK_VOLTAGE_LEVEL);
 914:pervasive_eink_hardware_driver.c ****     /* Send the prepared data to the E-INK display */
 915:pervasive_eink_hardware_driver.c ****     Pv_EINK_SendData(PV_EINK_PIXEL_DATA_COMMAND_INDEX,
 1733              		.loc 1 915 0
 1734 001c 6F22     		movs	r2, #111
 1735 001e 0449     		ldr	r1, .L179
 1736 0020 0A20     		movs	r0, #10
 1737 0022 FFF7FEFF 		bl	Pv_EINK_SendData
 1738              	.LVL172:
 916:pervasive_eink_hardware_driver.c ****                     (uint8_t*) &driverPacket.lineBuffer, 
 917:pervasive_eink_hardware_driver.c ****                      PV_EINK_DATA_LINE_SIZE);
 918:pervasive_eink_hardware_driver.c ****     /* Turn on Output Enable to latch the frame */
 919:pervasive_eink_hardware_driver.c ****     Pv_EINK_SendByte(PV_EINK_ENABLE_OE_COMMAND_INDEX, 
 1739              		.loc 1 919 0
 1740 0026 0721     		movs	r1, #7
 1741 0028 0220     		movs	r0, #2
 1742 002a FFF7FEFF 		bl	Pv_EINK_SendByte
 1743              	.LVL173:
 1744 002e 08BD     		pop	{r3, pc}
 1745              	.L180:
 1746              		.align	2
 1747              	.L179:
 1748 0030 00000000 		.word	.LANCHOR0
 1749              		.cfi_endproc
 1750              	.LFE656:
ARM GAS  C:\Users\User\AppData\Local\Temp\ccsn8eRz.s 			page 62


 1751              		.size	Pv_EINK_DummyLine, .-Pv_EINK_DummyLine
 1752              		.section	.text.Pv_EINK_HardwarePowerOn,"ax",%progbits
 1753              		.align	2
 1754              		.global	Pv_EINK_HardwarePowerOn
 1755              		.thumb
 1756              		.thumb_func
 1757              		.type	Pv_EINK_HardwarePowerOn, %function
 1758              	Pv_EINK_HardwarePowerOn:
 1759              	.LFB657:
 920:pervasive_eink_hardware_driver.c ****                      PV_EINK_ENABLE_OE_COMMAND_DATA);
 921:pervasive_eink_hardware_driver.c **** }
 922:pervasive_eink_hardware_driver.c **** 
 923:pervasive_eink_hardware_driver.c **** /*******************************************************************************
 924:pervasive_eink_hardware_driver.c **** * Function Name: pv_eink_status_t Pv_EINK_HardwarePowerOn()
 925:pervasive_eink_hardware_driver.c **** ********************************************************************************
 926:pervasive_eink_hardware_driver.c **** *
 927:pervasive_eink_hardware_driver.c **** * Summary: Power on E-INK Driver. For detailed flow and description, please refer
 928:pervasive_eink_hardware_driver.c **** * to the driver G2 document Section 3.
 929:pervasive_eink_hardware_driver.c **** *
 930:pervasive_eink_hardware_driver.c **** * Parameters:
 931:pervasive_eink_hardware_driver.c **** *  None
 932:pervasive_eink_hardware_driver.c **** *
 933:pervasive_eink_hardware_driver.c **** * Return:
 934:pervasive_eink_hardware_driver.c **** *  pv_eink_status_t: Status of the power on operation
 935:pervasive_eink_hardware_driver.c **** *
 936:pervasive_eink_hardware_driver.c **** * Side Effects:
 937:pervasive_eink_hardware_driver.c **** *  None
 938:pervasive_eink_hardware_driver.c **** *******************************************************************************/
 939:pervasive_eink_hardware_driver.c **** pv_eink_status_t Pv_EINK_HardwarePowerOn(void)
 940:pervasive_eink_hardware_driver.c **** {
 1760              		.loc 1 940 0
 1761              		.cfi_startproc
 1762              		@ args = 0, pretend = 0, frame = 0
 1763              		@ frame_needed = 0, uses_anonymous_args = 0
 1764 0000 38B5     		push	{r3, r4, r5, lr}
 1765              		.cfi_def_cfa_offset 16
 1766              		.cfi_offset 3, -16
 1767              		.cfi_offset 4, -12
 1768              		.cfi_offset 5, -8
 1769              		.cfi_offset 14, -4
 1770              	.LVL174:
 1771              	.LBB86:
 1772              	.LBB87:
 1773              		.loc 2 753 0
 1774 0002 0E4C     		ldr	r4, .L183
 1775 0004 1023     		movs	r3, #16
 1776 0006 A360     		str	r3, [r4, #8]
 1777              	.LVL175:
 1778              	.LBE87:
 1779              	.LBE86:
 941:pervasive_eink_hardware_driver.c ****     /* Enable the load switch connected to E-INK display's Vcc, and wait till
 942:pervasive_eink_hardware_driver.c ****     the voltage ramps up to the level required for proper operation of E-INK */
 943:pervasive_eink_hardware_driver.c ****     CY_EINK_TurnOnVcc;
 944:pervasive_eink_hardware_driver.c ****     CY_EINK_Delay(PV_EINK_PWR_DELAY);
 1780              		.loc 1 944 0
 1781 0008 1420     		movs	r0, #20
 1782 000a FFF7FEFF 		bl	Cy_SysLib_Delay
ARM GAS  C:\Users\User\AppData\Local\Temp\ccsn8eRz.s 			page 63


 1783              	.LVL176:
 945:pervasive_eink_hardware_driver.c ****     
 946:pervasive_eink_hardware_driver.c ****     /* Attach PSoC's SPI hardware to E-INK driver */
 947:pervasive_eink_hardware_driver.c ****     Cy_EINK_AttachSPI();
 1784              		.loc 1 947 0
 1785 000e FFF7FEFF 		bl	Cy_EINK_AttachSPI
 1786              	.LVL177:
 1787              	.LBB88:
 1788              	.LBB89:
 1789              		.loc 2 753 0
 1790 0012 0822     		movs	r2, #8
 1791 0014 0A4B     		ldr	r3, .L183+4
 1792 0016 9A60     		str	r2, [r3, #8]
 1793              	.LVL178:
 1794              	.LBE89:
 1795              	.LBE88:
 1796              	.LBB90:
 1797              	.LBB91:
 1798 0018 4023     		movs	r3, #64
 1799 001a A360     		str	r3, [r4, #8]
 1800              	.LVL179:
 1801              	.LBE91:
 1802              	.LBE90:
 1803              	.LBB92:
 1804              	.LBB93:
 1805 001c 0425     		movs	r5, #4
 1806 001e A560     		str	r5, [r4, #8]
 1807              	.LVL180:
 1808              	.LBE93:
 1809              	.LBE92:
 948:pervasive_eink_hardware_driver.c ****     /* Push the chip select, and border pins to HIGH */
 949:pervasive_eink_hardware_driver.c ****     CY_EINK_CsHigh;
 950:pervasive_eink_hardware_driver.c ****     CY_EINK_BorderHigh;
 951:pervasive_eink_hardware_driver.c ****     
 952:pervasive_eink_hardware_driver.c ****     /* Create two pulses on the reset line to properly reset the E-INK driver */
 953:pervasive_eink_hardware_driver.c ****     CY_EINK_RstHigh;
 954:pervasive_eink_hardware_driver.c ****     CY_EINK_Delay(PV_EINK_PIN_DELAY);
 1810              		.loc 1 954 0
 1811 0020 0A20     		movs	r0, #10
 1812 0022 FFF7FEFF 		bl	Cy_SysLib_Delay
 1813              	.LVL181:
 1814              	.LBB94:
 1815              	.LBB95:
 749:Generated_Source\PSoC6\pdl\drivers/peripheral/gpio/cy_gpio.h ****     }
 1816              		.loc 2 749 0
 1817 0026 6560     		str	r5, [r4, #4]
 1818              	.LVL182:
 1819              	.LBE95:
 1820              	.LBE94:
 955:pervasive_eink_hardware_driver.c ****     CY_EINK_RstLow;
 956:pervasive_eink_hardware_driver.c ****     CY_EINK_Delay(PV_EINK_PIN_DELAY);
 1821              		.loc 1 956 0
 1822 0028 0A20     		movs	r0, #10
 1823 002a FFF7FEFF 		bl	Cy_SysLib_Delay
 1824              	.LVL183:
 1825              	.LBB96:
 1826              	.LBB97:
ARM GAS  C:\Users\User\AppData\Local\Temp\ccsn8eRz.s 			page 64


 1827              		.loc 2 753 0
 1828 002e A560     		str	r5, [r4, #8]
 1829              	.LVL184:
 1830              	.LBE97:
 1831              	.LBE96:
 957:pervasive_eink_hardware_driver.c ****     CY_EINK_RstHigh;
 958:pervasive_eink_hardware_driver.c ****     CY_EINK_Delay(PV_EINK_PIN_DELAY);
 1832              		.loc 1 958 0
 1833 0030 0A20     		movs	r0, #10
 1834 0032 FFF7FEFF 		bl	Cy_SysLib_Delay
 1835              	.LVL185:
 959:pervasive_eink_hardware_driver.c ****     
 960:pervasive_eink_hardware_driver.c ****     /* Initialize E-INK Driver */
 961:pervasive_eink_hardware_driver.c ****     return(Pv_EINK_InitDriver());
 1836              		.loc 1 961 0
 1837 0036 FFF7FEFF 		bl	Pv_EINK_InitDriver
 1838              	.LVL186:
 962:pervasive_eink_hardware_driver.c **** }
 1839              		.loc 1 962 0
 1840 003a 38BD     		pop	{r3, r4, r5, pc}
 1841              	.L184:
 1842              		.align	2
 1843              	.L183:
 1844 003c 80023240 		.word	1077019264
 1845 0040 00063240 		.word	1077020160
 1846              		.cfi_endproc
 1847              	.LFE657:
 1848              		.size	Pv_EINK_HardwarePowerOn, .-Pv_EINK_HardwarePowerOn
 1849              		.section	.text.Pv_EINK_HardwarePowerOff,"ax",%progbits
 1850              		.align	2
 1851              		.global	Pv_EINK_HardwarePowerOff
 1852              		.thumb
 1853              		.thumb_func
 1854              		.type	Pv_EINK_HardwarePowerOff, %function
 1855              	Pv_EINK_HardwarePowerOff:
 1856              	.LFB658:
 963:pervasive_eink_hardware_driver.c **** 
 964:pervasive_eink_hardware_driver.c **** /*******************************************************************************
 965:pervasive_eink_hardware_driver.c **** * Function Name:  pv_eink_status_t Pv_EINK_HardwarePowerOff(void)
 966:pervasive_eink_hardware_driver.c **** ********************************************************************************
 967:pervasive_eink_hardware_driver.c **** *
 968:pervasive_eink_hardware_driver.c **** * Summary: Safely power off the E-INK display. For detailed flow and description,
 969:pervasive_eink_hardware_driver.c **** * please refer to the driver G2 document Section 6.
 970:pervasive_eink_hardware_driver.c **** *
 971:pervasive_eink_hardware_driver.c **** * Parameters:
 972:pervasive_eink_hardware_driver.c **** *  None
 973:pervasive_eink_hardware_driver.c **** *
 974:pervasive_eink_hardware_driver.c **** * Return:
 975:pervasive_eink_hardware_driver.c **** *  pv_eink_status_t : Status of the power off operation
 976:pervasive_eink_hardware_driver.c **** *
 977:pervasive_eink_hardware_driver.c **** * Side Effects:
 978:pervasive_eink_hardware_driver.c **** *  None
 979:pervasive_eink_hardware_driver.c **** *******************************************************************************/
 980:pervasive_eink_hardware_driver.c **** pv_eink_status_t Pv_EINK_HardwarePowerOff(void)
 981:pervasive_eink_hardware_driver.c **** {
 1857              		.loc 1 981 0
 1858              		.cfi_startproc
ARM GAS  C:\Users\User\AppData\Local\Temp\ccsn8eRz.s 			page 65


 1859              		@ args = 0, pretend = 0, frame = 0
 1860              		@ frame_needed = 0, uses_anonymous_args = 0
 1861 0000 38B5     		push	{r3, r4, r5, lr}
 1862              		.cfi_def_cfa_offset 16
 1863              		.cfi_offset 3, -16
 1864              		.cfi_offset 4, -12
 1865              		.cfi_offset 5, -8
 1866              		.cfi_offset 14, -4
 982:pervasive_eink_hardware_driver.c ****     /* Send a "Nothing Frame", followed by a "Dummy Line" to the E-INK driver */
 983:pervasive_eink_hardware_driver.c ****     Pv_EINK_NothingFrame();
 1867              		.loc 1 983 0
 1868 0002 FFF7FEFF 		bl	Pv_EINK_NothingFrame
 1869              	.LVL187:
 984:pervasive_eink_hardware_driver.c ****     Pv_EINK_DummyLine();
 1870              		.loc 1 984 0
 1871 0006 FFF7FEFF 		bl	Pv_EINK_DummyLine
 1872              	.LVL188:
 985:pervasive_eink_hardware_driver.c ****     
 986:pervasive_eink_hardware_driver.c ****     /* After E-INK updates, the border color may degrade to a gray level that is not
 987:pervasive_eink_hardware_driver.c ****     as white as the active area. Toggle the Border pin to avoid this phenomenon. */
 988:pervasive_eink_hardware_driver.c ****     CY_EINK_Delay(PV_EINK_DUMMY_LINE_DELAY);
 1873              		.loc 1 988 0
 1874 000a 1E20     		movs	r0, #30
 1875 000c FFF7FEFF 		bl	Cy_SysLib_Delay
 1876              	.LVL189:
 1877              	.LBB98:
 1878              	.LBB99:
 749:Generated_Source\PSoC6\pdl\drivers/peripheral/gpio/cy_gpio.h ****     }
 1879              		.loc 2 749 0
 1880 0010 234C     		ldr	r4, .L189
 1881 0012 4025     		movs	r5, #64
 1882 0014 6560     		str	r5, [r4, #4]
 1883              	.LVL190:
 1884              	.LBE99:
 1885              	.LBE98:
 989:pervasive_eink_hardware_driver.c ****     CY_EINK_BorderLow;
 990:pervasive_eink_hardware_driver.c ****     CY_EINK_Delay(PV_EINK_BOARDER_DELAY);
 1886              		.loc 1 990 0
 1887 0016 3220     		movs	r0, #50
 1888 0018 FFF7FEFF 		bl	Cy_SysLib_Delay
 1889              	.LVL191:
 1890              	.LBB100:
 1891              	.LBB101:
 1892              		.loc 2 753 0
 1893 001c A560     		str	r5, [r4, #8]
 1894              	.LVL192:
 1895              	.LBE101:
 1896              	.LBE100:
 991:pervasive_eink_hardware_driver.c ****     CY_EINK_BorderHigh;
 992:pervasive_eink_hardware_driver.c ****     
 993:pervasive_eink_hardware_driver.c ****     /* Check DC level */
 994:pervasive_eink_hardware_driver.c ****     if ((Pv_EINK_ReadByte(PV_EINK_DC_LEVEL_READ_COMMAND_INDEX,
 1897              		.loc 1 994 0
 1898 001e 0021     		movs	r1, #0
 1899 0020 0F20     		movs	r0, #15
 1900 0022 FFF7FEFF 		bl	Pv_EINK_ReadByte
 1901              	.LVL193:
ARM GAS  C:\Users\User\AppData\Local\Temp\ccsn8eRz.s 			page 66


 1902 0026 10F0400F 		tst	r0, #64
 1903 002a 36D0     		beq	.L187
 995:pervasive_eink_hardware_driver.c ****                        PV_EINK_DC_LEVEL_READ_COMMAND_DATA) & PV_EINK_DC_LEVEL_MASK
 996:pervasive_eink_hardware_driver.c ****         ) == PV_EINK_DC_LEVEL_CHECK)
 997:pervasive_eink_hardware_driver.c ****     {
 998:pervasive_eink_hardware_driver.c ****         /* Return error message for improper DC level */
 999:pervasive_eink_hardware_driver.c ****         return(PV_EINK_ERROR_DC);
1000:pervasive_eink_hardware_driver.c ****     }
1001:pervasive_eink_hardware_driver.c ****     
1002:pervasive_eink_hardware_driver.c ****     /* Power Saving */
1003:pervasive_eink_hardware_driver.c ****     Pv_EINK_SendByte(PV_EINK_PWR_SAVING_COMMAND_INDEX,
 1904              		.loc 1 1003 0
 1905 002c 0021     		movs	r1, #0
 1906 002e 0B20     		movs	r0, #11
 1907 0030 FFF7FEFF 		bl	Pv_EINK_SendByte
 1908              	.LVL194:
1004:pervasive_eink_hardware_driver.c ****                      PV_EINK_PWR2_SAVING_COMMAND_DATA);
1005:pervasive_eink_hardware_driver.c ****     /* Turn on Latch Reset */
1006:pervasive_eink_hardware_driver.c ****     Pv_EINK_SendByte(PV_EINK_LATCH_ON_COMMAND_INDEX,
 1909              		.loc 1 1006 0
 1910 0034 0121     		movs	r1, #1
 1911 0036 0320     		movs	r0, #3
 1912 0038 FFF7FEFF 		bl	Pv_EINK_SendByte
 1913              	.LVL195:
1007:pervasive_eink_hardware_driver.c ****                      PV_EINK_LATCH_ON_COMMAND_DATA);
1008:pervasive_eink_hardware_driver.c ****     /* Power off charge pump Vcom */
1009:pervasive_eink_hardware_driver.c ****     Pv_EINK_SendByte(PV_EINK_VGL_VDL_ON_COMMAND_INDEX,
 1914              		.loc 1 1009 0
 1915 003c 0321     		movs	r1, #3
 1916 003e 0520     		movs	r0, #5
 1917 0040 FFF7FEFF 		bl	Pv_EINK_SendByte
 1918              	.LVL196:
1010:pervasive_eink_hardware_driver.c ****                      PV_EINK_VGL_VDL_ON_COMMAND_DATA);
1011:pervasive_eink_hardware_driver.c ****     /* Power off charge pump negative voltage */
1012:pervasive_eink_hardware_driver.c ****     Pv_EINK_SendByte(PV_EINK_VGH_VDH_ON_COMMAND_INDEX,
 1919              		.loc 1 1012 0
 1920 0044 0121     		movs	r1, #1
 1921 0046 0520     		movs	r0, #5
 1922 0048 FFF7FEFF 		bl	Pv_EINK_SendByte
 1923              	.LVL197:
1013:pervasive_eink_hardware_driver.c ****                      PV_EINK_VGH_VDH_ON_COMMAND_DATA);
1014:pervasive_eink_hardware_driver.c ****     
1015:pervasive_eink_hardware_driver.c ****     CY_EINK_Delay(PV_EINK_DISCH_SPI_DELAY);
 1924              		.loc 1 1015 0
 1925 004c 3220     		movs	r0, #50
 1926 004e FFF7FEFF 		bl	Cy_SysLib_Delay
 1927              	.LVL198:
1016:pervasive_eink_hardware_driver.c ****     /* Discharge internal SPI */
1017:pervasive_eink_hardware_driver.c ****     Pv_EINK_SendByte(PV_EINK_DISCH_SPI_COMMAND_INDEX, 
 1928              		.loc 1 1017 0
 1929 0052 8021     		movs	r1, #128
 1930 0054 0420     		movs	r0, #4
 1931 0056 FFF7FEFF 		bl	Pv_EINK_SendByte
 1932              	.LVL199:
1018:pervasive_eink_hardware_driver.c ****                      PV_EINK_DISCH_SPI_COMMAND_DATA);
1019:pervasive_eink_hardware_driver.c ****     /* Turn off all charge pump */
1020:pervasive_eink_hardware_driver.c ****     Pv_EINK_SendByte(PV_EINK_CH_PUMP_OFF_COMMAND_INDEX, 
ARM GAS  C:\Users\User\AppData\Local\Temp\ccsn8eRz.s 			page 67


 1933              		.loc 1 1020 0
 1934 005a 0021     		movs	r1, #0
 1935 005c 0520     		movs	r0, #5
 1936 005e FFF7FEFF 		bl	Pv_EINK_SendByte
 1937              	.LVL200:
1021:pervasive_eink_hardware_driver.c ****                      PV_EINK_CH_PUMP_OFF_COMMAND_DATA);
1022:pervasive_eink_hardware_driver.c ****     /* Turn off OSC */
1023:pervasive_eink_hardware_driver.c ****     Pv_EINK_SendByte(PV_EINK_OSC_OFF_COMMAND_INDEX, 
 1938              		.loc 1 1023 0
 1939 0062 0121     		movs	r1, #1
 1940 0064 0720     		movs	r0, #7
 1941 0066 FFF7FEFF 		bl	Pv_EINK_SendByte
 1942              	.LVL201:
1024:pervasive_eink_hardware_driver.c ****                      PV_EINK_OSC_OFF_COMMAND_DATA);
1025:pervasive_eink_hardware_driver.c ****     CY_EINK_Delay(PV_EINK_PWR_OFF_DELAY);
 1943              		.loc 1 1025 0
 1944 006a 1E20     		movs	r0, #30
 1945 006c FFF7FEFF 		bl	Cy_SysLib_Delay
 1946              	.LVL202:
1026:pervasive_eink_hardware_driver.c ****     
1027:pervasive_eink_hardware_driver.c ****     /* Detach SPI and disable the load switch connected to E-INK display's Vcc */
1028:pervasive_eink_hardware_driver.c ****     Cy_EINK_DetachSPI();
 1947              		.loc 1 1028 0
 1948 0070 FFF7FEFF 		bl	Cy_EINK_DetachSPI
 1949              	.LVL203:
 1950              	.LBB102:
 1951              	.LBB103:
 749:Generated_Source\PSoC6\pdl\drivers/peripheral/gpio/cy_gpio.h ****     }
 1952              		.loc 2 749 0
 1953 0074 1023     		movs	r3, #16
 1954 0076 6360     		str	r3, [r4, #4]
 1955              	.LVL204:
