ARM GAS  C:\Users\User\AppData\Local\Temp\ccsn8eRz.s 			page 1


   1              		.syntax unified
   2              		.cpu cortex-m4
   3              		.eabi_attribute 27, 1
   4              		.fpu fpv4-sp-d16
   5              		.eabi_attribute 20, 1
   6              		.eabi_attribute 21, 1
   7              		.eabi_attribute 23, 3
   8              		.eabi_attribute 24, 1
   9              		.eabi_attribute 25, 1
  10              		.eabi_attribute 26, 1
  11              		.eabi_attribute 30, 1
  12              		.eabi_attribute 34, 1
  13              		.eabi_attribute 18, 4
  14              		.thumb
  15              		.syntax unified
  16              		.file	"pervasive_eink_hardware_driver.c"
  17              		.text
  18              	.Ltext0:
  19              		.cfi_sections	.debug_frame
  20              		.section	.text.Pv_EINK_SendData,"ax",%progbits
  21              		.align	2
  22              		.global	Pv_EINK_SendData
  23              		.thumb
  24              		.thumb_func
  25              		.type	Pv_EINK_SendData, %function
  26              	Pv_EINK_SendData:
  27              	.LFB647:
  28              		.file 1 "pervasive_eink_hardware_driver.c"
   1:pervasive_eink_hardware_driver.c **** /*******************************************************************************
   2:pervasive_eink_hardware_driver.c **** * Copyright (2017), Pervasive Displays Inc.
   3:pervasive_eink_hardware_driver.c **** *******************************************************************************
   4:pervasive_eink_hardware_driver.c **** *
   5:pervasive_eink_hardware_driver.c **** *  Authors: Pervasive Displays Inc.
   6:pervasive_eink_hardware_driver.c **** *
   7:pervasive_eink_hardware_driver.c **** *  Redistribution and use in source and binary forms, with or without
   8:pervasive_eink_hardware_driver.c **** *  modification, are permitted provided that the following conditions
   9:pervasive_eink_hardware_driver.c **** *  are met:
  10:pervasive_eink_hardware_driver.c **** *
  11:pervasive_eink_hardware_driver.c **** *  1. Redistributions of source code must retain the above copyright
  12:pervasive_eink_hardware_driver.c **** *     notice, this list of conditions and the following disclaimer.
  13:pervasive_eink_hardware_driver.c **** *  2. Redistributions in binary form must reproduce the above copyright
  14:pervasive_eink_hardware_driver.c **** *     notice, this list of conditions and the following disclaimer in
  15:pervasive_eink_hardware_driver.c **** *     the documentation and/or other materials provided with the
  16:pervasive_eink_hardware_driver.c **** *     distribution.
  17:pervasive_eink_hardware_driver.c **** *
  18:pervasive_eink_hardware_driver.c **** *  THIS SOFTWARE IS PROVIDED BY THE COPYRIGHT HOLDERS AND CONTRIBUTORS
  19:pervasive_eink_hardware_driver.c **** *  "AS IS" AND ANY EXPRESS OR IMPLIED WARRANTIES, INCLUDING, BUT NOT
  20:pervasive_eink_hardware_driver.c **** *  LIMITED TO, THE IMPLIED WARRANTIES OF MERCHANTABILITY AND FITNESS FOR
  21:pervasive_eink_hardware_driver.c **** *  A PARTICULAR PURPOSE ARE DISCLAIMED. IN NO EVENT SHALL THE COPYRIGHT
  22:pervasive_eink_hardware_driver.c **** *  OWNER OR CONTRIBUTORS BE LIABLE FOR ANY DIRECT, INDIRECT, INCIDENTAL,
  23:pervasive_eink_hardware_driver.c **** *  SPECIAL, EXEMPLARY, OR CONSEQUENTIAL DAMAGES (INCLUDING, BUT NOT
  24:pervasive_eink_hardware_driver.c **** *  LIMITED TO, PROCUREMENT OF SUBSTITUTE GOODS OR SERVICES; LOSS OF USE,
  25:pervasive_eink_hardware_driver.c **** *  DATA, OR PROFITS; OR BUSINESS INTERRUPTION) HOWEVER CAUSED AND ON ANY
  26:pervasive_eink_hardware_driver.c **** *  THEORY OF LIABILITY, WHETHER IN CONTRACT, STRICT LIABILITY, OR TORT
  27:pervasive_eink_hardware_driver.c **** *  (INCLUDING NEGLIGENCE OR OTHERWISE) ARISING IN ANY WAY OUT OF THE USE
  28:pervasive_eink_hardware_driver.c **** *  OF THIS SOFTWARE, EVEN IF ADVISED OF THE POSSIBILITY OF SUCH DAMAGE.
  29:pervasive_eink_hardware_driver.c **** *******************************************************************************/
ARM GAS  C:\Users\User\AppData\Local\Temp\ccsn8eRz.s 			page 2


  30:pervasive_eink_hardware_driver.c **** /*****************************************************************************
  31:pervasive_eink_hardware_driver.c **** * For the details of E-INK display hardware and driver, see the 2.7 inch display
  32:pervasive_eink_hardware_driver.c **** * product specification and G2 COG driver interface documents available at the
  33:pervasive_eink_hardware_driver.c **** * following location:
  34:pervasive_eink_hardware_driver.c **** * http://www.pervasivedisplays.com/products/271
  35:pervasive_eink_hardware_driver.c **** *******************************************************************************/
  36:pervasive_eink_hardware_driver.c **** 
  37:pervasive_eink_hardware_driver.c **** /* Header file includes */
  38:pervasive_eink_hardware_driver.c **** #include <string.h>
  39:pervasive_eink_hardware_driver.c **** #include "pervasive_eink_hardware_driver.h"
  40:pervasive_eink_hardware_driver.c **** 
  41:pervasive_eink_hardware_driver.c **** /* Macro for the dummy byte used in the line data */
  42:pervasive_eink_hardware_driver.c **** #define PV_EINK_DUMMY_BYTE     (uint8_t)(0x00u)
  43:pervasive_eink_hardware_driver.c **** 
  44:pervasive_eink_hardware_driver.c **** /* Data used to initialize the scan bytes */
  45:pervasive_eink_hardware_driver.c **** #define PV_EINK_SCAN_BYTE_INIT (uint8_t)(0x00u)
  46:pervasive_eink_hardware_driver.c **** 
  47:pervasive_eink_hardware_driver.c **** /* Line data structure of 2.7" display. Refer to driver document Section 5.1 
  48:pervasive_eink_hardware_driver.c ****    for details */
  49:pervasive_eink_hardware_driver.c **** struct eink_lineData
  50:pervasive_eink_hardware_driver.c **** {
  51:pervasive_eink_hardware_driver.c ****     /*  Dummy byte (0x00) */
  52:pervasive_eink_hardware_driver.c ****     uint8_t dummyData;
  53:pervasive_eink_hardware_driver.c **** 
  54:pervasive_eink_hardware_driver.c ****     /*  2.7" even byte array */
  55:pervasive_eink_hardware_driver.c ****     uint8_t even[PV_EINK_HORIZONTAL_SIZE];
  56:pervasive_eink_hardware_driver.c **** 
  57:pervasive_eink_hardware_driver.c ****     /*  2.7" scan byte array */
  58:pervasive_eink_hardware_driver.c ****     uint8_t scan[PV_EINK_SCAN_LINE_SIZE];
  59:pervasive_eink_hardware_driver.c **** 
  60:pervasive_eink_hardware_driver.c ****     /*  2.7" odd byte array */
  61:pervasive_eink_hardware_driver.c ****     uint8_t odd[PV_EINK_HORIZONTAL_SIZE];
  62:pervasive_eink_hardware_driver.c **** };
  63:pervasive_eink_hardware_driver.c **** 
  64:pervasive_eink_hardware_driver.c **** /* Packet structure of a line data */
  65:pervasive_eink_hardware_driver.c **** typedef union
  66:pervasive_eink_hardware_driver.c **** {
  67:pervasive_eink_hardware_driver.c ****     /* Line data structure of 2.7" EPD */
  68:pervasive_eink_hardware_driver.c ****     struct eink_lineData    lineDataBySize;
  69:pervasive_eink_hardware_driver.c **** 
  70:pervasive_eink_hardware_driver.c ****     /* Line buffer equal to the data line size */
  71:pervasive_eink_hardware_driver.c ****     uint8_t                 lineBuffer[PV_EINK_DATA_LINE_SIZE];
  72:pervasive_eink_hardware_driver.c **** 
  73:pervasive_eink_hardware_driver.c ****     /* The maximum line buffer data size as length */
  74:pervasive_eink_hardware_driver.c **** }   driver_data_packet_t;
  75:pervasive_eink_hardware_driver.c **** 
  76:pervasive_eink_hardware_driver.c **** /* Variable that stores the packets for one full drive frame. This variable
  77:pervasive_eink_hardware_driver.c ****    is used for full and partial updates */
  78:pervasive_eink_hardware_driver.c **** driver_data_packet_t  bulkDriverPacket[PV_EINK_VERTICAL_SIZE];
  79:pervasive_eink_hardware_driver.c **** 
  80:pervasive_eink_hardware_driver.c **** /* Variable that stores a single line data. This variable is used to prepare 
  81:pervasive_eink_hardware_driver.c ****    dummy frames */
  82:pervasive_eink_hardware_driver.c **** driver_data_packet_t  static driverPacket;
  83:pervasive_eink_hardware_driver.c **** 
  84:pervasive_eink_hardware_driver.c **** /* Scan table for the four stages of display update*/
  85:pervasive_eink_hardware_driver.c **** uint8_t const               scanTable[PV_EINK_SCAN_TABLE_SIZE] =
  86:pervasive_eink_hardware_driver.c ****                             PV_EINK_SCAN_TABLE_DATA;
ARM GAS  C:\Users\User\AppData\Local\Temp\ccsn8eRz.s 			page 3


  87:pervasive_eink_hardware_driver.c **** 
  88:pervasive_eink_hardware_driver.c **** /* The SPI register addresses for Channel Select */
  89:pervasive_eink_hardware_driver.c **** uint8_t const               channelSelect[PV_EINK_CHANNEL_SEL_SIZE] =
  90:pervasive_eink_hardware_driver.c ****                             PV_EINK_CHANNEL_SEL_DATA;
  91:pervasive_eink_hardware_driver.c **** 
  92:pervasive_eink_hardware_driver.c **** /* Variables that store the driver timing information */
  93:pervasive_eink_hardware_driver.c **** uint16_t static             fullUpdateTime;
  94:pervasive_eink_hardware_driver.c **** uint16_t static             partialUpdateTime;
  95:pervasive_eink_hardware_driver.c **** 
  96:pervasive_eink_hardware_driver.c **** /* Pointers for the data structures used by the driver */
  97:pervasive_eink_hardware_driver.c **** uint8_t static*             dataLineEven;
  98:pervasive_eink_hardware_driver.c **** uint8_t static*             dataLineOdd;
  99:pervasive_eink_hardware_driver.c **** uint8_t static*             dataLineScan;
 100:pervasive_eink_hardware_driver.c **** 
 101:pervasive_eink_hardware_driver.c **** /*******************************************************************************
 102:pervasive_eink_hardware_driver.c **** * Function Name: void Pv_EINK_SendData(uint8_t regAddr, uint8_t* data, 
 103:pervasive_eink_hardware_driver.c **** *                                   uint16_t dataLength)
 104:pervasive_eink_hardware_driver.c **** ********************************************************************************
 105:pervasive_eink_hardware_driver.c **** *
 106:pervasive_eink_hardware_driver.c **** * Summary: Sends an array of data to the E-INK driver.
 107:pervasive_eink_hardware_driver.c **** *
 108:pervasive_eink_hardware_driver.c **** * Parameters:
 109:pervasive_eink_hardware_driver.c **** *  uint8_t regAddr    : Display driver register address
 110:pervasive_eink_hardware_driver.c **** *  uint8_t* data      : Pointer to the data array that will be sent to the driver
 111:pervasive_eink_hardware_driver.c **** *  uint16_t dataLength: Length of the data array
 112:pervasive_eink_hardware_driver.c **** *
 113:pervasive_eink_hardware_driver.c **** * Return:
 114:pervasive_eink_hardware_driver.c **** *  None
 115:pervasive_eink_hardware_driver.c **** *
 116:pervasive_eink_hardware_driver.c **** * Side Effects:
 117:pervasive_eink_hardware_driver.c **** *  None
 118:pervasive_eink_hardware_driver.c **** *******************************************************************************/
 119:pervasive_eink_hardware_driver.c **** void Pv_EINK_SendData(uint8_t regAddr, uint8_t* data, uint16_t dataLength)
 120:pervasive_eink_hardware_driver.c **** {
  29              		.loc 1 120 0
  30              		.cfi_startproc
  31              		@ args = 0, pretend = 0, frame = 0
  32              		@ frame_needed = 0, uses_anonymous_args = 0
  33              	.LVL0:
  34 0000 2DE9F041 		push	{r4, r5, r6, r7, r8, lr}
  35              		.cfi_def_cfa_offset 24
  36              		.cfi_offset 4, -24
  37              		.cfi_offset 5, -20
  38              		.cfi_offset 6, -16
  39              		.cfi_offset 7, -12
  40              		.cfi_offset 8, -8
  41              		.cfi_offset 14, -4
  42 0004 8046     		mov	r8, r0
  43 0006 0E46     		mov	r6, r1
  44 0008 1546     		mov	r5, r2
  45              	.LVL1:
  46              	.LBB58:
  47              	.LBB59:
  48              		.file 2 "Generated_Source\\PSoC6\\pdl\\drivers/peripheral/gpio/cy_gpio.h"
   1:Generated_Source\PSoC6\pdl\drivers/peripheral/gpio/cy_gpio.h **** /***************************************************************************//**
   2:Generated_Source\PSoC6\pdl\drivers/peripheral/gpio/cy_gpio.h **** * \file cy_gpio.h
   3:Generated_Source\PSoC6\pdl\drivers/peripheral/gpio/cy_gpio.h **** * \version 1.10.1
ARM GAS  C:\Users\User\AppData\Local\Temp\ccsn8eRz.s 			page 4


   4:Generated_Source\PSoC6\pdl\drivers/peripheral/gpio/cy_gpio.h **** *
   5:Generated_Source\PSoC6\pdl\drivers/peripheral/gpio/cy_gpio.h **** * \brief
   6:Generated_Source\PSoC6\pdl\drivers/peripheral/gpio/cy_gpio.h **** * Provides an API declaration of the GPIO driver
   7:Generated_Source\PSoC6\pdl\drivers/peripheral/gpio/cy_gpio.h **** *
   8:Generated_Source\PSoC6\pdl\drivers/peripheral/gpio/cy_gpio.h **** ********************************************************************************
   9:Generated_Source\PSoC6\pdl\drivers/peripheral/gpio/cy_gpio.h **** * \copyright
  10:Generated_Source\PSoC6\pdl\drivers/peripheral/gpio/cy_gpio.h **** * Copyright 2016-2018, Cypress Semiconductor Corporation. All rights reserved.
  11:Generated_Source\PSoC6\pdl\drivers/peripheral/gpio/cy_gpio.h **** * You may use this file only in accordance with the license, terms, conditions,
  12:Generated_Source\PSoC6\pdl\drivers/peripheral/gpio/cy_gpio.h **** * disclaimers, and limitations in the end user license agreement accompanying
  13:Generated_Source\PSoC6\pdl\drivers/peripheral/gpio/cy_gpio.h **** * the software package with which this file was provided.
  14:Generated_Source\PSoC6\pdl\drivers/peripheral/gpio/cy_gpio.h **** *******************************************************************************/
  15:Generated_Source\PSoC6\pdl\drivers/peripheral/gpio/cy_gpio.h **** 
  16:Generated_Source\PSoC6\pdl\drivers/peripheral/gpio/cy_gpio.h **** /**
  17:Generated_Source\PSoC6\pdl\drivers/peripheral/gpio/cy_gpio.h **** * \defgroup group_gpio General Purpose Input Output (GPIO)
  18:Generated_Source\PSoC6\pdl\drivers/peripheral/gpio/cy_gpio.h **** * \{
  19:Generated_Source\PSoC6\pdl\drivers/peripheral/gpio/cy_gpio.h **** * The GPIO driver provides an API to configure and access device Input/Output pins.
  20:Generated_Source\PSoC6\pdl\drivers/peripheral/gpio/cy_gpio.h **** * IO pins include all general purpose types such as GPIO, SIO, HSIO, AUXIO, and
  21:Generated_Source\PSoC6\pdl\drivers/peripheral/gpio/cy_gpio.h **** * their variants.
  22:Generated_Source\PSoC6\pdl\drivers/peripheral/gpio/cy_gpio.h **** *
  23:Generated_Source\PSoC6\pdl\drivers/peripheral/gpio/cy_gpio.h **** * Initialization can be performed either at the port level or by configuring the
  24:Generated_Source\PSoC6\pdl\drivers/peripheral/gpio/cy_gpio.h **** * individual pins. For efficient use of code space, port
  25:Generated_Source\PSoC6\pdl\drivers/peripheral/gpio/cy_gpio.h **** * configuration should be used in the field. Refer to the product device header files 
  26:Generated_Source\PSoC6\pdl\drivers/peripheral/gpio/cy_gpio.h **** * for the list of supported ports and pins.
  27:Generated_Source\PSoC6\pdl\drivers/peripheral/gpio/cy_gpio.h **** * 
  28:Generated_Source\PSoC6\pdl\drivers/peripheral/gpio/cy_gpio.h **** * - Single pin configuration is performed by using \ref Cy_GPIO_Pin_FastInit 
  29:Generated_Source\PSoC6\pdl\drivers/peripheral/gpio/cy_gpio.h **** *   (provide specific values) or \ref Cy_GPIO_Pin_Init (provide a filled
  30:Generated_Source\PSoC6\pdl\drivers/peripheral/gpio/cy_gpio.h **** *   cy_stc_gpio_pin_config_t structure).
  31:Generated_Source\PSoC6\pdl\drivers/peripheral/gpio/cy_gpio.h **** * - An entire port can be configured using \ref Cy_GPIO_Port_Init. Provide a filled 
  32:Generated_Source\PSoC6\pdl\drivers/peripheral/gpio/cy_gpio.h **** *   cy_stc_gpio_prt_config_t structure. The values in the structure are 
  33:Generated_Source\PSoC6\pdl\drivers/peripheral/gpio/cy_gpio.h **** *   bitfields representing the desired value for each pin in the port.
  34:Generated_Source\PSoC6\pdl\drivers/peripheral/gpio/cy_gpio.h **** * - Pin configuration and management is based on the port address and pin number.
  35:Generated_Source\PSoC6\pdl\drivers/peripheral/gpio/cy_gpio.h **** *   \ref Cy_GPIO_PortToAddr function can optionally be used to calculate the port
  36:Generated_Source\PSoC6\pdl\drivers/peripheral/gpio/cy_gpio.h **** *   address from the port number at run-time.
  37:Generated_Source\PSoC6\pdl\drivers/peripheral/gpio/cy_gpio.h **** *
  38:Generated_Source\PSoC6\pdl\drivers/peripheral/gpio/cy_gpio.h **** * Once the pin/port initialization is complete, each pin can be accessed by 
  39:Generated_Source\PSoC6\pdl\drivers/peripheral/gpio/cy_gpio.h **** * specifying the port (GPIO_PRT_Type) and the pin (0-7) in the provided API 
  40:Generated_Source\PSoC6\pdl\drivers/peripheral/gpio/cy_gpio.h **** * functions.
  41:Generated_Source\PSoC6\pdl\drivers/peripheral/gpio/cy_gpio.h **** *
  42:Generated_Source\PSoC6\pdl\drivers/peripheral/gpio/cy_gpio.h **** * \section group_gpio_configuration Configuration Considerations
  43:Generated_Source\PSoC6\pdl\drivers/peripheral/gpio/cy_gpio.h **** *
  44:Generated_Source\PSoC6\pdl\drivers/peripheral/gpio/cy_gpio.h **** * 1. Pin multiplexing is controlled through the High-Speed IO Matrix (HSIOM) selection.
  45:Generated_Source\PSoC6\pdl\drivers/peripheral/gpio/cy_gpio.h **** *    This allows the pin to connect to signal sources/sinks throughout the device,
  46:Generated_Source\PSoC6\pdl\drivers/peripheral/gpio/cy_gpio.h **** *    as defined by the pin HSIOM selection options (en_hsiom_sel_t).
  47:Generated_Source\PSoC6\pdl\drivers/peripheral/gpio/cy_gpio.h **** * 2. All pins are initialized to High-Z drive mode with HSIOM connected to CPU (SW
  48:Generated_Source\PSoC6\pdl\drivers/peripheral/gpio/cy_gpio.h **** *    control digital pin only) at Power-On-Reset(POR).
  49:Generated_Source\PSoC6\pdl\drivers/peripheral/gpio/cy_gpio.h **** * 3. Some API functions perform read-modify-write operations on shared port
  50:Generated_Source\PSoC6\pdl\drivers/peripheral/gpio/cy_gpio.h **** *    registers. These functions are not thread safe and care must be taken when
  51:Generated_Source\PSoC6\pdl\drivers/peripheral/gpio/cy_gpio.h **** *    called by the application.
  52:Generated_Source\PSoC6\pdl\drivers/peripheral/gpio/cy_gpio.h **** *
  53:Generated_Source\PSoC6\pdl\drivers/peripheral/gpio/cy_gpio.h **** * Multiple pins on a port can be updated using direct port register writes with an
  54:Generated_Source\PSoC6\pdl\drivers/peripheral/gpio/cy_gpio.h **** * appropriate port mask. An example is shown below, highlighting the different ways of 
  55:Generated_Source\PSoC6\pdl\drivers/peripheral/gpio/cy_gpio.h **** * configuring Port 1 pins using,
  56:Generated_Source\PSoC6\pdl\drivers/peripheral/gpio/cy_gpio.h **** * 
  57:Generated_Source\PSoC6\pdl\drivers/peripheral/gpio/cy_gpio.h **** * - Port output data register
  58:Generated_Source\PSoC6\pdl\drivers/peripheral/gpio/cy_gpio.h **** * - Port output data set register
  59:Generated_Source\PSoC6\pdl\drivers/peripheral/gpio/cy_gpio.h **** * - Port output data clear register
  60:Generated_Source\PSoC6\pdl\drivers/peripheral/gpio/cy_gpio.h **** *
ARM GAS  C:\Users\User\AppData\Local\Temp\ccsn8eRz.s 			page 5


  61:Generated_Source\PSoC6\pdl\drivers/peripheral/gpio/cy_gpio.h **** * \snippet gpio/gpio_v1_10_sut_01.cydsn/main_cm4.c Cy_GPIO_Snippet
  62:Generated_Source\PSoC6\pdl\drivers/peripheral/gpio/cy_gpio.h **** *
  63:Generated_Source\PSoC6\pdl\drivers/peripheral/gpio/cy_gpio.h **** * \section group_gpio_more_information More Information
  64:Generated_Source\PSoC6\pdl\drivers/peripheral/gpio/cy_gpio.h **** *
  65:Generated_Source\PSoC6\pdl\drivers/peripheral/gpio/cy_gpio.h **** * Refer to the technical reference manual (TRM) and the device datasheet.
  66:Generated_Source\PSoC6\pdl\drivers/peripheral/gpio/cy_gpio.h **** *
  67:Generated_Source\PSoC6\pdl\drivers/peripheral/gpio/cy_gpio.h **** * \section group_gpio_MISRA MISRA-C Compliance]
  68:Generated_Source\PSoC6\pdl\drivers/peripheral/gpio/cy_gpio.h **** * <table class="doxtable">
  69:Generated_Source\PSoC6\pdl\drivers/peripheral/gpio/cy_gpio.h **** *   <tr>
  70:Generated_Source\PSoC6\pdl\drivers/peripheral/gpio/cy_gpio.h **** *     <th>MISRA Rule</th>
  71:Generated_Source\PSoC6\pdl\drivers/peripheral/gpio/cy_gpio.h **** *     <th>Rule Class (Required/Advisory)</th>
  72:Generated_Source\PSoC6\pdl\drivers/peripheral/gpio/cy_gpio.h **** *     <th>Rule Description</th>
  73:Generated_Source\PSoC6\pdl\drivers/peripheral/gpio/cy_gpio.h **** *     <th>Description of Deviation(s)</th>
  74:Generated_Source\PSoC6\pdl\drivers/peripheral/gpio/cy_gpio.h **** *   </tr>
  75:Generated_Source\PSoC6\pdl\drivers/peripheral/gpio/cy_gpio.h **** *   <tr>
  76:Generated_Source\PSoC6\pdl\drivers/peripheral/gpio/cy_gpio.h **** *     <td>16.7</td>
  77:Generated_Source\PSoC6\pdl\drivers/peripheral/gpio/cy_gpio.h **** *     <td>A</td>
  78:Generated_Source\PSoC6\pdl\drivers/peripheral/gpio/cy_gpio.h **** *     <td>A pointer parameter in a function prototype should be declared as pointer 
  79:Generated_Source\PSoC6\pdl\drivers/peripheral/gpio/cy_gpio.h **** *         to const if the pointer is not used to modify the addressed object.</td>
  80:Generated_Source\PSoC6\pdl\drivers/peripheral/gpio/cy_gpio.h **** *     <td>The objects pointed to by the base addresses of the GPIO port are not always modified.
  81:Generated_Source\PSoC6\pdl\drivers/peripheral/gpio/cy_gpio.h **** *         While a const qualifier can be used in select scenarios, it brings little benefit
  82:Generated_Source\PSoC6\pdl\drivers/peripheral/gpio/cy_gpio.h **** *         in adding this to the affected functions. </td>
  83:Generated_Source\PSoC6\pdl\drivers/peripheral/gpio/cy_gpio.h **** *   </tr>
  84:Generated_Source\PSoC6\pdl\drivers/peripheral/gpio/cy_gpio.h **** * </table>
  85:Generated_Source\PSoC6\pdl\drivers/peripheral/gpio/cy_gpio.h **** *
  86:Generated_Source\PSoC6\pdl\drivers/peripheral/gpio/cy_gpio.h **** * \section group_gpio_changelog Changelog
  87:Generated_Source\PSoC6\pdl\drivers/peripheral/gpio/cy_gpio.h **** * <table class="doxtable">
  88:Generated_Source\PSoC6\pdl\drivers/peripheral/gpio/cy_gpio.h **** *   <tr><th>Version</th><th>Changes</th><th>Reason for Change</th></tr>
  89:Generated_Source\PSoC6\pdl\drivers/peripheral/gpio/cy_gpio.h **** *   <tr>
  90:Generated_Source\PSoC6\pdl\drivers/peripheral/gpio/cy_gpio.h **** *     <td>1.10.1</td>
  91:Generated_Source\PSoC6\pdl\drivers/peripheral/gpio/cy_gpio.h **** *     <td>Updated description for the functions: \ref Cy_GPIO_GetInterruptStatus, 
  92:Generated_Source\PSoC6\pdl\drivers/peripheral/gpio/cy_gpio.h **** *         \ref Cy_GPIO_GetInterruptMask, \ref Cy_GPIO_GetInterruptStatusMasked.
  93:Generated_Source\PSoC6\pdl\drivers/peripheral/gpio/cy_gpio.h **** *         Minor documentation edits.
  94:Generated_Source\PSoC6\pdl\drivers/peripheral/gpio/cy_gpio.h **** *     </td>
  95:Generated_Source\PSoC6\pdl\drivers/peripheral/gpio/cy_gpio.h **** *     <td>Documentation update and clarification</td>
  96:Generated_Source\PSoC6\pdl\drivers/peripheral/gpio/cy_gpio.h **** *   </tr>
  97:Generated_Source\PSoC6\pdl\drivers/peripheral/gpio/cy_gpio.h **** *   <tr>
  98:Generated_Source\PSoC6\pdl\drivers/peripheral/gpio/cy_gpio.h **** *     <td>1.10</td>
  99:Generated_Source\PSoC6\pdl\drivers/peripheral/gpio/cy_gpio.h **** *     <td>Added input parameter validation to the API functions</td>
 100:Generated_Source\PSoC6\pdl\drivers/peripheral/gpio/cy_gpio.h **** *     <td></td>
 101:Generated_Source\PSoC6\pdl\drivers/peripheral/gpio/cy_gpio.h **** *   </tr>
 102:Generated_Source\PSoC6\pdl\drivers/peripheral/gpio/cy_gpio.h **** *   <tr>
 103:Generated_Source\PSoC6\pdl\drivers/peripheral/gpio/cy_gpio.h **** *     <td>1.0</td>
 104:Generated_Source\PSoC6\pdl\drivers/peripheral/gpio/cy_gpio.h **** *     <td>Initial version</td>
 105:Generated_Source\PSoC6\pdl\drivers/peripheral/gpio/cy_gpio.h **** *     <td></td>
 106:Generated_Source\PSoC6\pdl\drivers/peripheral/gpio/cy_gpio.h **** *   </tr>
 107:Generated_Source\PSoC6\pdl\drivers/peripheral/gpio/cy_gpio.h **** * </table>
 108:Generated_Source\PSoC6\pdl\drivers/peripheral/gpio/cy_gpio.h **** *
 109:Generated_Source\PSoC6\pdl\drivers/peripheral/gpio/cy_gpio.h **** * \defgroup group_gpio_macros Macros
 110:Generated_Source\PSoC6\pdl\drivers/peripheral/gpio/cy_gpio.h **** * \defgroup group_gpio_functions Functions
 111:Generated_Source\PSoC6\pdl\drivers/peripheral/gpio/cy_gpio.h **** * \{
 112:Generated_Source\PSoC6\pdl\drivers/peripheral/gpio/cy_gpio.h **** *   \defgroup group_gpio_functions_init       Initialization Functions
 113:Generated_Source\PSoC6\pdl\drivers/peripheral/gpio/cy_gpio.h **** *   \defgroup group_gpio_functions_gpio       GPIO Functions
 114:Generated_Source\PSoC6\pdl\drivers/peripheral/gpio/cy_gpio.h **** *   \defgroup group_gpio_functions_sio        SIO Functions
 115:Generated_Source\PSoC6\pdl\drivers/peripheral/gpio/cy_gpio.h **** *   \defgroup group_gpio_functions_interrupt  Port Interrupt Functions
 116:Generated_Source\PSoC6\pdl\drivers/peripheral/gpio/cy_gpio.h **** * \}
 117:Generated_Source\PSoC6\pdl\drivers/peripheral/gpio/cy_gpio.h **** * \defgroup group_gpio_data_structures Data Structures
ARM GAS  C:\Users\User\AppData\Local\Temp\ccsn8eRz.s 			page 6


 118:Generated_Source\PSoC6\pdl\drivers/peripheral/gpio/cy_gpio.h **** * \defgroup group_gpio_enums Enumerated Types
 119:Generated_Source\PSoC6\pdl\drivers/peripheral/gpio/cy_gpio.h **** */
 120:Generated_Source\PSoC6\pdl\drivers/peripheral/gpio/cy_gpio.h **** 
 121:Generated_Source\PSoC6\pdl\drivers/peripheral/gpio/cy_gpio.h **** #if !defined(CY_GPIO_H)
 122:Generated_Source\PSoC6\pdl\drivers/peripheral/gpio/cy_gpio.h **** #define CY_GPIO_H
 123:Generated_Source\PSoC6\pdl\drivers/peripheral/gpio/cy_gpio.h **** 
 124:Generated_Source\PSoC6\pdl\drivers/peripheral/gpio/cy_gpio.h **** #include <stddef.h>
 125:Generated_Source\PSoC6\pdl\drivers/peripheral/gpio/cy_gpio.h **** #include "syslib/cy_syslib.h"
 126:Generated_Source\PSoC6\pdl\drivers/peripheral/gpio/cy_gpio.h **** #include "cy_device_headers.h"
 127:Generated_Source\PSoC6\pdl\drivers/peripheral/gpio/cy_gpio.h **** 
 128:Generated_Source\PSoC6\pdl\drivers/peripheral/gpio/cy_gpio.h **** #if defined(__cplusplus)
 129:Generated_Source\PSoC6\pdl\drivers/peripheral/gpio/cy_gpio.h **** extern "C" {
 130:Generated_Source\PSoC6\pdl\drivers/peripheral/gpio/cy_gpio.h **** #endif
 131:Generated_Source\PSoC6\pdl\drivers/peripheral/gpio/cy_gpio.h **** 
 132:Generated_Source\PSoC6\pdl\drivers/peripheral/gpio/cy_gpio.h **** /** \addtogroup group_gpio_macros
 133:Generated_Source\PSoC6\pdl\drivers/peripheral/gpio/cy_gpio.h **** * \{
 134:Generated_Source\PSoC6\pdl\drivers/peripheral/gpio/cy_gpio.h **** */
 135:Generated_Source\PSoC6\pdl\drivers/peripheral/gpio/cy_gpio.h **** 
 136:Generated_Source\PSoC6\pdl\drivers/peripheral/gpio/cy_gpio.h **** /** Driver major version */
 137:Generated_Source\PSoC6\pdl\drivers/peripheral/gpio/cy_gpio.h **** #define CY_GPIO_DRV_VERSION_MAJOR       1
 138:Generated_Source\PSoC6\pdl\drivers/peripheral/gpio/cy_gpio.h **** 
 139:Generated_Source\PSoC6\pdl\drivers/peripheral/gpio/cy_gpio.h **** /** Driver minor version */
 140:Generated_Source\PSoC6\pdl\drivers/peripheral/gpio/cy_gpio.h **** #define CY_GPIO_DRV_VERSION_MINOR       10
 141:Generated_Source\PSoC6\pdl\drivers/peripheral/gpio/cy_gpio.h **** 
 142:Generated_Source\PSoC6\pdl\drivers/peripheral/gpio/cy_gpio.h **** /** GPIO driver ID */
 143:Generated_Source\PSoC6\pdl\drivers/peripheral/gpio/cy_gpio.h **** #define CY_GPIO_ID CY_PDL_DRV_ID(0x16u)
 144:Generated_Source\PSoC6\pdl\drivers/peripheral/gpio/cy_gpio.h **** 
 145:Generated_Source\PSoC6\pdl\drivers/peripheral/gpio/cy_gpio.h **** /** \} group_gpio_macros */
 146:Generated_Source\PSoC6\pdl\drivers/peripheral/gpio/cy_gpio.h **** 
 147:Generated_Source\PSoC6\pdl\drivers/peripheral/gpio/cy_gpio.h **** 
 148:Generated_Source\PSoC6\pdl\drivers/peripheral/gpio/cy_gpio.h **** /***************************************
 149:Generated_Source\PSoC6\pdl\drivers/peripheral/gpio/cy_gpio.h **** *       Enumerations
 150:Generated_Source\PSoC6\pdl\drivers/peripheral/gpio/cy_gpio.h **** ***************************************/
 151:Generated_Source\PSoC6\pdl\drivers/peripheral/gpio/cy_gpio.h **** /**
 152:Generated_Source\PSoC6\pdl\drivers/peripheral/gpio/cy_gpio.h **** * \addtogroup group_gpio_enums
 153:Generated_Source\PSoC6\pdl\drivers/peripheral/gpio/cy_gpio.h **** * \{
 154:Generated_Source\PSoC6\pdl\drivers/peripheral/gpio/cy_gpio.h **** */
 155:Generated_Source\PSoC6\pdl\drivers/peripheral/gpio/cy_gpio.h **** 
 156:Generated_Source\PSoC6\pdl\drivers/peripheral/gpio/cy_gpio.h **** /**
 157:Generated_Source\PSoC6\pdl\drivers/peripheral/gpio/cy_gpio.h **** * GPIO Driver error codes
 158:Generated_Source\PSoC6\pdl\drivers/peripheral/gpio/cy_gpio.h **** */
 159:Generated_Source\PSoC6\pdl\drivers/peripheral/gpio/cy_gpio.h **** typedef enum 
 160:Generated_Source\PSoC6\pdl\drivers/peripheral/gpio/cy_gpio.h **** {
 161:Generated_Source\PSoC6\pdl\drivers/peripheral/gpio/cy_gpio.h ****     CY_GPIO_SUCCESS   = 0x00u,                                    /**< Returned successful */
 162:Generated_Source\PSoC6\pdl\drivers/peripheral/gpio/cy_gpio.h ****     CY_GPIO_BAD_PARAM = CY_GPIO_ID | CY_PDL_STATUS_ERROR | 0x01u, /**< Bad parameter was passed */
 163:Generated_Source\PSoC6\pdl\drivers/peripheral/gpio/cy_gpio.h **** } cy_en_gpio_status_t;
 164:Generated_Source\PSoC6\pdl\drivers/peripheral/gpio/cy_gpio.h **** 
 165:Generated_Source\PSoC6\pdl\drivers/peripheral/gpio/cy_gpio.h **** /** \} group_gpio_enums */
 166:Generated_Source\PSoC6\pdl\drivers/peripheral/gpio/cy_gpio.h **** 
 167:Generated_Source\PSoC6\pdl\drivers/peripheral/gpio/cy_gpio.h **** 
 168:Generated_Source\PSoC6\pdl\drivers/peripheral/gpio/cy_gpio.h **** /***************************************
 169:Generated_Source\PSoC6\pdl\drivers/peripheral/gpio/cy_gpio.h **** *       Configuration Structures
 170:Generated_Source\PSoC6\pdl\drivers/peripheral/gpio/cy_gpio.h **** ***************************************/
 171:Generated_Source\PSoC6\pdl\drivers/peripheral/gpio/cy_gpio.h **** 
 172:Generated_Source\PSoC6\pdl\drivers/peripheral/gpio/cy_gpio.h **** /**
 173:Generated_Source\PSoC6\pdl\drivers/peripheral/gpio/cy_gpio.h **** * \addtogroup group_gpio_data_structures
 174:Generated_Source\PSoC6\pdl\drivers/peripheral/gpio/cy_gpio.h **** * \{
ARM GAS  C:\Users\User\AppData\Local\Temp\ccsn8eRz.s 			page 7


 175:Generated_Source\PSoC6\pdl\drivers/peripheral/gpio/cy_gpio.h **** */
 176:Generated_Source\PSoC6\pdl\drivers/peripheral/gpio/cy_gpio.h **** 
 177:Generated_Source\PSoC6\pdl\drivers/peripheral/gpio/cy_gpio.h **** /** This structure is used to initialize a port of GPIO pins */
 178:Generated_Source\PSoC6\pdl\drivers/peripheral/gpio/cy_gpio.h **** typedef struct {
 179:Generated_Source\PSoC6\pdl\drivers/peripheral/gpio/cy_gpio.h ****     uint32_t out;           /**< Initial output data for the IO pins in the port */
 180:Generated_Source\PSoC6\pdl\drivers/peripheral/gpio/cy_gpio.h ****     uint32_t intrMask;      /**< Interrupt enable mask for the port interrupt */
 181:Generated_Source\PSoC6\pdl\drivers/peripheral/gpio/cy_gpio.h ****     uint32_t intrCfg;       /**< Port pin interrupt edge detection configuration */
 182:Generated_Source\PSoC6\pdl\drivers/peripheral/gpio/cy_gpio.h ****     uint32_t cfg;           /**< Port pin drive modes and input buffer enable configuration */
 183:Generated_Source\PSoC6\pdl\drivers/peripheral/gpio/cy_gpio.h ****     uint32_t cfgIn;         /**< Port pin input buffer configuration */
 184:Generated_Source\PSoC6\pdl\drivers/peripheral/gpio/cy_gpio.h ****     uint32_t cfgOut;        /**< Port pin output buffer configuration */
 185:Generated_Source\PSoC6\pdl\drivers/peripheral/gpio/cy_gpio.h ****     uint32_t cfgSIO;        /**< Port SIO pins configuration */
 186:Generated_Source\PSoC6\pdl\drivers/peripheral/gpio/cy_gpio.h ****     uint32_t sel0Active;    /**< HSIOM selection for port pins 0,1,2,3 */
 187:Generated_Source\PSoC6\pdl\drivers/peripheral/gpio/cy_gpio.h ****     uint32_t sel1Active;    /**< HSIOM selection for port pins 4,5,6,7 */
 188:Generated_Source\PSoC6\pdl\drivers/peripheral/gpio/cy_gpio.h **** } cy_stc_gpio_prt_config_t;
 189:Generated_Source\PSoC6\pdl\drivers/peripheral/gpio/cy_gpio.h **** 
 190:Generated_Source\PSoC6\pdl\drivers/peripheral/gpio/cy_gpio.h **** /** This structure is used to initialize a single GPIO pin */
 191:Generated_Source\PSoC6\pdl\drivers/peripheral/gpio/cy_gpio.h **** typedef struct {
 192:Generated_Source\PSoC6\pdl\drivers/peripheral/gpio/cy_gpio.h ****     uint32_t outVal;         /**< Pin output state */
 193:Generated_Source\PSoC6\pdl\drivers/peripheral/gpio/cy_gpio.h ****     uint32_t driveMode;      /**< Drive mode */
 194:Generated_Source\PSoC6\pdl\drivers/peripheral/gpio/cy_gpio.h ****     en_hsiom_sel_t hsiom;   /**< HSIOM selection */
 195:Generated_Source\PSoC6\pdl\drivers/peripheral/gpio/cy_gpio.h ****     uint32_t intEdge;        /**< Interrupt Edge type */
 196:Generated_Source\PSoC6\pdl\drivers/peripheral/gpio/cy_gpio.h ****     uint32_t intMask;        /**< Interrupt enable mask */
 197:Generated_Source\PSoC6\pdl\drivers/peripheral/gpio/cy_gpio.h ****     uint32_t vtrip;          /**< Input buffer voltage trip type */
 198:Generated_Source\PSoC6\pdl\drivers/peripheral/gpio/cy_gpio.h ****     uint32_t slewRate;       /**< Output buffer slew rate */
 199:Generated_Source\PSoC6\pdl\drivers/peripheral/gpio/cy_gpio.h ****     uint32_t driveSel;       /**< Drive strength */
 200:Generated_Source\PSoC6\pdl\drivers/peripheral/gpio/cy_gpio.h ****     uint32_t vregEn;         /**< SIO pair output buffer mode */
 201:Generated_Source\PSoC6\pdl\drivers/peripheral/gpio/cy_gpio.h ****     uint32_t ibufMode;       /**< SIO pair input buffer mode */
 202:Generated_Source\PSoC6\pdl\drivers/peripheral/gpio/cy_gpio.h ****     uint32_t vtripSel;       /**< SIO pair input buffer trip point */
 203:Generated_Source\PSoC6\pdl\drivers/peripheral/gpio/cy_gpio.h ****     uint32_t vrefSel;        /**< SIO pair reference voltage for input buffer trip point */
 204:Generated_Source\PSoC6\pdl\drivers/peripheral/gpio/cy_gpio.h ****     uint32_t vohSel;         /**< SIO pair regulated voltage output level */
 205:Generated_Source\PSoC6\pdl\drivers/peripheral/gpio/cy_gpio.h **** } cy_stc_gpio_pin_config_t;
 206:Generated_Source\PSoC6\pdl\drivers/peripheral/gpio/cy_gpio.h **** 
 207:Generated_Source\PSoC6\pdl\drivers/peripheral/gpio/cy_gpio.h **** /** \} group_gpio_data_structures */
 208:Generated_Source\PSoC6\pdl\drivers/peripheral/gpio/cy_gpio.h **** 
 209:Generated_Source\PSoC6\pdl\drivers/peripheral/gpio/cy_gpio.h **** /***************************************
 210:Generated_Source\PSoC6\pdl\drivers/peripheral/gpio/cy_gpio.h **** *        Constants
 211:Generated_Source\PSoC6\pdl\drivers/peripheral/gpio/cy_gpio.h **** ***************************************/
 212:Generated_Source\PSoC6\pdl\drivers/peripheral/gpio/cy_gpio.h **** 
 213:Generated_Source\PSoC6\pdl\drivers/peripheral/gpio/cy_gpio.h **** /** \cond INTERNAL */
 214:Generated_Source\PSoC6\pdl\drivers/peripheral/gpio/cy_gpio.h **** 
 215:Generated_Source\PSoC6\pdl\drivers/peripheral/gpio/cy_gpio.h **** /* General Constants */
 216:Generated_Source\PSoC6\pdl\drivers/peripheral/gpio/cy_gpio.h **** #define CY_GPIO_PRT_HALF                       (4UL)      /**< Half-way point of a GPIO port */
 217:Generated_Source\PSoC6\pdl\drivers/peripheral/gpio/cy_gpio.h **** #define CY_GPIO_PRT_DEINIT                     (0UL)      /**< De-init value for port registers */
 218:Generated_Source\PSoC6\pdl\drivers/peripheral/gpio/cy_gpio.h **** 
 219:Generated_Source\PSoC6\pdl\drivers/peripheral/gpio/cy_gpio.h **** /* GPIO Masks */
 220:Generated_Source\PSoC6\pdl\drivers/peripheral/gpio/cy_gpio.h **** #define CY_GPIO_HSIOM_MASK                     (0x1FUL)   /**< HSIOM selection mask */
 221:Generated_Source\PSoC6\pdl\drivers/peripheral/gpio/cy_gpio.h **** #define CY_GPIO_OUT_MASK                       (0x01UL)   /**< Single pin mask for OUT register */
 222:Generated_Source\PSoC6\pdl\drivers/peripheral/gpio/cy_gpio.h **** #define CY_GPIO_IN_MASK                        (0x01UL)   /**< Single pin mask for IN register */
 223:Generated_Source\PSoC6\pdl\drivers/peripheral/gpio/cy_gpio.h **** #define CY_GPIO_CFG_DM_MASK                    (0x0FUL)   /**< Single pin mask for drive mode in CF
 224:Generated_Source\PSoC6\pdl\drivers/peripheral/gpio/cy_gpio.h **** #define CY_GPIO_CFG_IN_VTRIP_SEL_MASK          (0x01UL)   /**< Single pin mask for VTRIP selection 
 225:Generated_Source\PSoC6\pdl\drivers/peripheral/gpio/cy_gpio.h **** #define CY_GPIO_CFG_OUT_SLOW_MASK              (0x01UL)   /**< Single pin mask for slew rate in CFG
 226:Generated_Source\PSoC6\pdl\drivers/peripheral/gpio/cy_gpio.h **** #define CY_GPIO_CFG_OUT_DRIVE_SEL_MASK         (0x03UL)   /**< Single pin mask for drive strength i
 227:Generated_Source\PSoC6\pdl\drivers/peripheral/gpio/cy_gpio.h **** #define CY_GPIO_INTR_STATUS_MASK               (0x01UL)   /**< Single pin mask for interrupt status
 228:Generated_Source\PSoC6\pdl\drivers/peripheral/gpio/cy_gpio.h **** #define CY_GPIO_INTR_EN_MASK                   (0x01UL)   /**< Single pin mask for interrupt status
 229:Generated_Source\PSoC6\pdl\drivers/peripheral/gpio/cy_gpio.h **** #define CY_GPIO_INTR_MASKED_MASK               (0x01UL)   /**< Single pin mask for masked interrupt
 230:Generated_Source\PSoC6\pdl\drivers/peripheral/gpio/cy_gpio.h **** #define CY_GPIO_INTR_SET_MASK                  (0x01UL)   /**< Single pin mask for setting the inte
 231:Generated_Source\PSoC6\pdl\drivers/peripheral/gpio/cy_gpio.h **** #define CY_GPIO_INTR_EDGE_MASK                 (0x03UL)   /**< Single pin mask for interrupt edge t
ARM GAS  C:\Users\User\AppData\Local\Temp\ccsn8eRz.s 			page 8


 232:Generated_Source\PSoC6\pdl\drivers/peripheral/gpio/cy_gpio.h **** #define CY_GPIO_INTR_FLT_EDGE_MASK             (0x07UL)   /**< Single pin mask for setting filtered
 233:Generated_Source\PSoC6\pdl\drivers/peripheral/gpio/cy_gpio.h **** 
 234:Generated_Source\PSoC6\pdl\drivers/peripheral/gpio/cy_gpio.h **** /* SIO Masks */
 235:Generated_Source\PSoC6\pdl\drivers/peripheral/gpio/cy_gpio.h **** #define CY_GPIO_VREG_EN_MASK                   (0x01UL)   /**< Single SIO pin mask for voltage regu
 236:Generated_Source\PSoC6\pdl\drivers/peripheral/gpio/cy_gpio.h **** #define CY_GPIO_IBUF_MASK                      (0x01UL)   /**< Single SIO pin mask for input buffer
 237:Generated_Source\PSoC6\pdl\drivers/peripheral/gpio/cy_gpio.h **** #define CY_GPIO_IBUF_SHIFT                     (0x01UL)   /**< Single SIO pin shift for input buffe
 238:Generated_Source\PSoC6\pdl\drivers/peripheral/gpio/cy_gpio.h **** #define CY_GPIO_VTRIP_SEL_MASK                 (0x01UL)   /**< Single SIO pin mask for the input bu
 239:Generated_Source\PSoC6\pdl\drivers/peripheral/gpio/cy_gpio.h **** #define CY_GPIO_VTRIP_SEL_SHIFT                (0x02UL)   /**< Single SIO pin shift for the input b
 240:Generated_Source\PSoC6\pdl\drivers/peripheral/gpio/cy_gpio.h **** #define CY_GPIO_VREF_SEL_MASK                  (0x03UL)   /**< Single SIO pin mask for voltage refe
 241:Generated_Source\PSoC6\pdl\drivers/peripheral/gpio/cy_gpio.h **** #define CY_GPIO_VREF_SEL_SHIFT                 (0x03UL)   /**< Single SIO pin shift for voltage ref
 242:Generated_Source\PSoC6\pdl\drivers/peripheral/gpio/cy_gpio.h **** #define CY_GPIO_VOH_SEL_MASK                   (0x07UL)   /**< Single SIO pin mask for VOH */
 243:Generated_Source\PSoC6\pdl\drivers/peripheral/gpio/cy_gpio.h **** #define CY_GPIO_VOH_SEL_SHIFT                  (0x05UL)   /**< Single SIO pin shift for VOH */
 244:Generated_Source\PSoC6\pdl\drivers/peripheral/gpio/cy_gpio.h **** 
 245:Generated_Source\PSoC6\pdl\drivers/peripheral/gpio/cy_gpio.h **** /* Special mask for SIO pin pair setting */
 246:Generated_Source\PSoC6\pdl\drivers/peripheral/gpio/cy_gpio.h **** #define CY_GPIO_SIO_ODD_PIN_MASK               (0x00FEUL) /**< SIO pin pair selection mask */
 247:Generated_Source\PSoC6\pdl\drivers/peripheral/gpio/cy_gpio.h **** #define CY_GPIO_SIO_PIN_MASK                   (0x00FFUL) /**< SIO pin pair mask */
 248:Generated_Source\PSoC6\pdl\drivers/peripheral/gpio/cy_gpio.h **** 
 249:Generated_Source\PSoC6\pdl\drivers/peripheral/gpio/cy_gpio.h **** /* Offsets */
 250:Generated_Source\PSoC6\pdl\drivers/peripheral/gpio/cy_gpio.h **** #define CY_GPIO_HSIOM_OFFSET                   (3UL)      /**< Offset for HSIOM */
 251:Generated_Source\PSoC6\pdl\drivers/peripheral/gpio/cy_gpio.h **** #define CY_GPIO_DRIVE_MODE_OFFSET              (2UL)      /**< Offset for Drive mode */
 252:Generated_Source\PSoC6\pdl\drivers/peripheral/gpio/cy_gpio.h **** #define CY_GPIO_INBUF_OFFSET                   (3UL)      /**< Offset for input buffer */
 253:Generated_Source\PSoC6\pdl\drivers/peripheral/gpio/cy_gpio.h **** #define CY_GPIO_CFG_OUT_DRIVE_OFFSET           (16UL)     /**< Offset for drive strength */
 254:Generated_Source\PSoC6\pdl\drivers/peripheral/gpio/cy_gpio.h **** #define CY_GPIO_INTR_CFG_OFFSET                (1UL)      /**< Offset for interrupt config */
 255:Generated_Source\PSoC6\pdl\drivers/peripheral/gpio/cy_gpio.h **** #define CY_GPIO_INTR_FILT_OFFSET               (18UL)     /**< Offset for filtered interrupt config
 256:Generated_Source\PSoC6\pdl\drivers/peripheral/gpio/cy_gpio.h **** #define CY_GPIO_CFG_SIO_OFFSET                 (2UL)      /**< Offset for SIO config */
 257:Generated_Source\PSoC6\pdl\drivers/peripheral/gpio/cy_gpio.h **** 
 258:Generated_Source\PSoC6\pdl\drivers/peripheral/gpio/cy_gpio.h **** /* Parameter validation constants */
 259:Generated_Source\PSoC6\pdl\drivers/peripheral/gpio/cy_gpio.h **** #define CY_GPIO_PINS_MAX                       (8UL)      /**< Number of pins in the port */
 260:Generated_Source\PSoC6\pdl\drivers/peripheral/gpio/cy_gpio.h **** #define CY_GPIO_PRT_PINS_MASK                  (0x0000000FFUL)
 261:Generated_Source\PSoC6\pdl\drivers/peripheral/gpio/cy_gpio.h **** #define CY_GPIO_PRT_INTR_CFG_EDGE_SEL_MASK     (GPIO_PRT_INTR_CFG_EDGE0_SEL_Msk | \
 262:Generated_Source\PSoC6\pdl\drivers/peripheral/gpio/cy_gpio.h ****                                                 GPIO_PRT_INTR_CFG_EDGE1_SEL_Msk | \
 263:Generated_Source\PSoC6\pdl\drivers/peripheral/gpio/cy_gpio.h ****                                                 GPIO_PRT_INTR_CFG_EDGE2_SEL_Msk | \
 264:Generated_Source\PSoC6\pdl\drivers/peripheral/gpio/cy_gpio.h ****                                                 GPIO_PRT_INTR_CFG_EDGE3_SEL_Msk | \
 265:Generated_Source\PSoC6\pdl\drivers/peripheral/gpio/cy_gpio.h ****                                                 GPIO_PRT_INTR_CFG_EDGE4_SEL_Msk | \
 266:Generated_Source\PSoC6\pdl\drivers/peripheral/gpio/cy_gpio.h ****                                                 GPIO_PRT_INTR_CFG_EDGE5_SEL_Msk | \
 267:Generated_Source\PSoC6\pdl\drivers/peripheral/gpio/cy_gpio.h ****                                                 GPIO_PRT_INTR_CFG_EDGE6_SEL_Msk | \
 268:Generated_Source\PSoC6\pdl\drivers/peripheral/gpio/cy_gpio.h ****                                                 GPIO_PRT_INTR_CFG_EDGE7_SEL_Msk)            
 269:Generated_Source\PSoC6\pdl\drivers/peripheral/gpio/cy_gpio.h **** #define CY_GPIO_PRT_INTR_CFG_RANGE_MASK        (CY_GPIO_PRT_INTR_CFG_EDGE_SEL_MASK | \
 270:Generated_Source\PSoC6\pdl\drivers/peripheral/gpio/cy_gpio.h ****                                                 GPIO_PRT_INTR_CFG_FLT_EDGE_SEL_Msk | \
 271:Generated_Source\PSoC6\pdl\drivers/peripheral/gpio/cy_gpio.h ****                                                 GPIO_PRT_INTR_CFG_FLT_SEL_Msk)
 272:Generated_Source\PSoC6\pdl\drivers/peripheral/gpio/cy_gpio.h **** #define CY_GPIO_PRT_INT_MASK_MASK              (0x0000001FFUL)
 273:Generated_Source\PSoC6\pdl\drivers/peripheral/gpio/cy_gpio.h **** #define CY_GPIO_PRT_SEL_ACTIVE_MASK            (0x1FFFFFFFUL)
 274:Generated_Source\PSoC6\pdl\drivers/peripheral/gpio/cy_gpio.h **** 
 275:Generated_Source\PSoC6\pdl\drivers/peripheral/gpio/cy_gpio.h **** /* Parameter validation macros */
 276:Generated_Source\PSoC6\pdl\drivers/peripheral/gpio/cy_gpio.h **** #define CY_GPIO_IS_PIN_VALID(pinNum)           (CY_GPIO_PINS_MAX > (pinNum))
 277:Generated_Source\PSoC6\pdl\drivers/peripheral/gpio/cy_gpio.h **** #define CY_GPIO_IS_FILTER_PIN_VALID(pinNum)    (CY_GPIO_PINS_MAX >= (pinNum))
 278:Generated_Source\PSoC6\pdl\drivers/peripheral/gpio/cy_gpio.h **** #define CY_GPIO_IS_VALUE_VALID(outVal)         (1UL >= (outVal))
 279:Generated_Source\PSoC6\pdl\drivers/peripheral/gpio/cy_gpio.h **** #define CY_GPIO_IS_DM_VALID(driveMode)         (0U == ((driveMode) & (uint32_t)~CY_GPIO_CFG_DM_MASK
 280:Generated_Source\PSoC6\pdl\drivers/peripheral/gpio/cy_gpio.h **** 
 281:Generated_Source\PSoC6\pdl\drivers/peripheral/gpio/cy_gpio.h **** #define CY_GPIO_IS_HSIOM_VALID(hsiom)          (0U == ((hsiom) & (uint32_t)~CY_GPIO_HSIOM_MASK))
 282:Generated_Source\PSoC6\pdl\drivers/peripheral/gpio/cy_gpio.h **** 
 283:Generated_Source\PSoC6\pdl\drivers/peripheral/gpio/cy_gpio.h **** #define CY_GPIO_IS_INT_EDGE_VALID(intEdge)     ((CY_GPIO_INTR_DISABLE  == (intEdge)) || \
 284:Generated_Source\PSoC6\pdl\drivers/peripheral/gpio/cy_gpio.h ****                                                 (CY_GPIO_INTR_RISING   == (intEdge)) || \
 285:Generated_Source\PSoC6\pdl\drivers/peripheral/gpio/cy_gpio.h ****                                                 (CY_GPIO_INTR_FALLING  == (intEdge)) || \
 286:Generated_Source\PSoC6\pdl\drivers/peripheral/gpio/cy_gpio.h ****                                                 (CY_GPIO_INTR_BOTH     == (intEdge)))
 287:Generated_Source\PSoC6\pdl\drivers/peripheral/gpio/cy_gpio.h **** 
 288:Generated_Source\PSoC6\pdl\drivers/peripheral/gpio/cy_gpio.h **** #define CY_GPIO_IS_DRIVE_SEL_VALID(driveSel)   ((CY_GPIO_DRIVE_FULL    == (driveSel)) || \
ARM GAS  C:\Users\User\AppData\Local\Temp\ccsn8eRz.s 			page 9


 289:Generated_Source\PSoC6\pdl\drivers/peripheral/gpio/cy_gpio.h ****                                                 (CY_GPIO_DRIVE_1_2     == (driveSel)) || \
 290:Generated_Source\PSoC6\pdl\drivers/peripheral/gpio/cy_gpio.h ****                                                 (CY_GPIO_DRIVE_1_4     == (driveSel)) || \
 291:Generated_Source\PSoC6\pdl\drivers/peripheral/gpio/cy_gpio.h ****                                                 (CY_GPIO_DRIVE_1_8     == (driveSel)))
 292:Generated_Source\PSoC6\pdl\drivers/peripheral/gpio/cy_gpio.h **** 
 293:Generated_Source\PSoC6\pdl\drivers/peripheral/gpio/cy_gpio.h **** #define CY_GPIO_IS_VREF_SEL_VALID(vrefSel)     ((CY_SIO_VREF_PINREF    == (vrefSel)) || \
 294:Generated_Source\PSoC6\pdl\drivers/peripheral/gpio/cy_gpio.h ****                                                 (CY_SIO_VREF_1_2V      == (vrefSel)) || \
 295:Generated_Source\PSoC6\pdl\drivers/peripheral/gpio/cy_gpio.h ****                                                 (CY_SIO_VREF_AMUX_A    == (vrefSel)) || \
 296:Generated_Source\PSoC6\pdl\drivers/peripheral/gpio/cy_gpio.h ****                                                 (CY_SIO_VREF_AMUX_B    == (vrefSel)))
 297:Generated_Source\PSoC6\pdl\drivers/peripheral/gpio/cy_gpio.h **** 
 298:Generated_Source\PSoC6\pdl\drivers/peripheral/gpio/cy_gpio.h **** #define CY_GPIO_IS_VOH_SEL_VALID(vrefSel)      ((CY_SIO_VOH_1_00       == (vrefSel)) || \
 299:Generated_Source\PSoC6\pdl\drivers/peripheral/gpio/cy_gpio.h ****                                                 (CY_SIO_VOH_1_25       == (vrefSel)) || \
 300:Generated_Source\PSoC6\pdl\drivers/peripheral/gpio/cy_gpio.h ****                                                 (CY_SIO_VOH_1_49       == (vrefSel)) || \
 301:Generated_Source\PSoC6\pdl\drivers/peripheral/gpio/cy_gpio.h ****                                                 (CY_SIO_VOH_1_67       == (vrefSel)) || \
 302:Generated_Source\PSoC6\pdl\drivers/peripheral/gpio/cy_gpio.h ****                                                 (CY_SIO_VOH_2_08       == (vrefSel)) || \
 303:Generated_Source\PSoC6\pdl\drivers/peripheral/gpio/cy_gpio.h ****                                                 (CY_SIO_VOH_2_50       == (vrefSel)) || \
 304:Generated_Source\PSoC6\pdl\drivers/peripheral/gpio/cy_gpio.h ****                                                 (CY_SIO_VOH_2_78       == (vrefSel)) || \
 305:Generated_Source\PSoC6\pdl\drivers/peripheral/gpio/cy_gpio.h ****                                                 (CY_SIO_VOH_4_16       == (vrefSel)))
 306:Generated_Source\PSoC6\pdl\drivers/peripheral/gpio/cy_gpio.h ****                    
 307:Generated_Source\PSoC6\pdl\drivers/peripheral/gpio/cy_gpio.h **** #define CY_GPIO_IS_PIN_BIT_VALID(pinBit)       (0U == ((pinBit) & (uint32_t)~CY_GPIO_PRT_PINS_MASK)
 308:Generated_Source\PSoC6\pdl\drivers/peripheral/gpio/cy_gpio.h **** #define CY_GPIO_IS_INTR_CFG_VALID(intrCfg)     (0U == ((intrCfg) & (uint32_t)~CY_GPIO_PRT_INTR_CFG_
 309:Generated_Source\PSoC6\pdl\drivers/peripheral/gpio/cy_gpio.h **** #define CY_GPIO_IS_INTR_MASK_VALID(intrMask)   (0U == ((intrMask) & (uint32_t)~CY_GPIO_PRT_INT_MASK
 310:Generated_Source\PSoC6\pdl\drivers/peripheral/gpio/cy_gpio.h **** #define CY_GPIO_IS_SEL_ACT_VALID(selActive)    (0U == ((selActive) & (uint32_t)~CY_GPIO_PRT_SEL_ACT
 311:Generated_Source\PSoC6\pdl\drivers/peripheral/gpio/cy_gpio.h **** 
 312:Generated_Source\PSoC6\pdl\drivers/peripheral/gpio/cy_gpio.h **** /** \endcond */
 313:Generated_Source\PSoC6\pdl\drivers/peripheral/gpio/cy_gpio.h **** 
 314:Generated_Source\PSoC6\pdl\drivers/peripheral/gpio/cy_gpio.h **** 
 315:Generated_Source\PSoC6\pdl\drivers/peripheral/gpio/cy_gpio.h **** /***************************************
 316:Generated_Source\PSoC6\pdl\drivers/peripheral/gpio/cy_gpio.h **** *        Function Constants
 317:Generated_Source\PSoC6\pdl\drivers/peripheral/gpio/cy_gpio.h **** ***************************************/
 318:Generated_Source\PSoC6\pdl\drivers/peripheral/gpio/cy_gpio.h **** 
 319:Generated_Source\PSoC6\pdl\drivers/peripheral/gpio/cy_gpio.h **** /**
 320:Generated_Source\PSoC6\pdl\drivers/peripheral/gpio/cy_gpio.h **** * \addtogroup group_gpio_macros
 321:Generated_Source\PSoC6\pdl\drivers/peripheral/gpio/cy_gpio.h **** * \{
 322:Generated_Source\PSoC6\pdl\drivers/peripheral/gpio/cy_gpio.h **** */
 323:Generated_Source\PSoC6\pdl\drivers/peripheral/gpio/cy_gpio.h **** 
 324:Generated_Source\PSoC6\pdl\drivers/peripheral/gpio/cy_gpio.h **** /**
 325:Generated_Source\PSoC6\pdl\drivers/peripheral/gpio/cy_gpio.h **** * \defgroup group_gpio_driveModes Pin drive mode
 326:Generated_Source\PSoC6\pdl\drivers/peripheral/gpio/cy_gpio.h **** * \{
 327:Generated_Source\PSoC6\pdl\drivers/peripheral/gpio/cy_gpio.h **** * Constants to be used for setting the drive mode of the pin.
 328:Generated_Source\PSoC6\pdl\drivers/peripheral/gpio/cy_gpio.h **** */
 329:Generated_Source\PSoC6\pdl\drivers/peripheral/gpio/cy_gpio.h **** #define CY_GPIO_DM_ANALOG                      (0x00UL) /**< \brief Analog High-Z. Input buffer off
 330:Generated_Source\PSoC6\pdl\drivers/peripheral/gpio/cy_gpio.h **** #define CY_GPIO_DM_PULLUP_IN_OFF               (0x02UL) /**< \brief Resistive Pull-Up. Input buffer
 331:Generated_Source\PSoC6\pdl\drivers/peripheral/gpio/cy_gpio.h **** #define CY_GPIO_DM_PULLDOWN_IN_OFF             (0x03UL) /**< \brief Resistive Pull-Down. Input buff
 332:Generated_Source\PSoC6\pdl\drivers/peripheral/gpio/cy_gpio.h **** #define CY_GPIO_DM_OD_DRIVESLOW_IN_OFF         (0x04UL) /**< \brief Open Drain, Drives Low. Input b
 333:Generated_Source\PSoC6\pdl\drivers/peripheral/gpio/cy_gpio.h **** #define CY_GPIO_DM_OD_DRIVESHIGH_IN_OFF        (0x05UL) /**< \brief Open Drain, Drives High. Input 
 334:Generated_Source\PSoC6\pdl\drivers/peripheral/gpio/cy_gpio.h **** #define CY_GPIO_DM_STRONG_IN_OFF               (0x06UL) /**< \brief Strong Drive. Input buffer off 
 335:Generated_Source\PSoC6\pdl\drivers/peripheral/gpio/cy_gpio.h **** #define CY_GPIO_DM_PULLUP_DOWN_IN_OFF          (0x07UL) /**< \brief Resistive Pull-Up/Down. Input b
 336:Generated_Source\PSoC6\pdl\drivers/peripheral/gpio/cy_gpio.h **** #define CY_GPIO_DM_HIGHZ                       (0x08UL) /**< \brief Digital High-Z. Input buffer on
 337:Generated_Source\PSoC6\pdl\drivers/peripheral/gpio/cy_gpio.h **** #define CY_GPIO_DM_PULLUP                      (0x0AUL) /**< \brief Resistive Pull-Up. Input buffer
 338:Generated_Source\PSoC6\pdl\drivers/peripheral/gpio/cy_gpio.h **** #define CY_GPIO_DM_PULLDOWN                    (0x0BUL) /**< \brief Resistive Pull-Down. Input buff
 339:Generated_Source\PSoC6\pdl\drivers/peripheral/gpio/cy_gpio.h **** #define CY_GPIO_DM_OD_DRIVESLOW                (0x0CUL) /**< \brief Open Drain, Drives Low. Input b
 340:Generated_Source\PSoC6\pdl\drivers/peripheral/gpio/cy_gpio.h **** #define CY_GPIO_DM_OD_DRIVESHIGH               (0x0DUL) /**< \brief Open Drain, Drives High. Input 
 341:Generated_Source\PSoC6\pdl\drivers/peripheral/gpio/cy_gpio.h **** #define CY_GPIO_DM_STRONG                      (0x0EUL) /**< \brief Strong Drive. Input buffer on *
 342:Generated_Source\PSoC6\pdl\drivers/peripheral/gpio/cy_gpio.h **** #define CY_GPIO_DM_PULLUP_DOWN                 (0x0FUL) /**< \brief Resistive Pull-Up/Down. Input b
 343:Generated_Source\PSoC6\pdl\drivers/peripheral/gpio/cy_gpio.h **** /** \} */
 344:Generated_Source\PSoC6\pdl\drivers/peripheral/gpio/cy_gpio.h **** 
 345:Generated_Source\PSoC6\pdl\drivers/peripheral/gpio/cy_gpio.h **** /**
ARM GAS  C:\Users\User\AppData\Local\Temp\ccsn8eRz.s 			page 10


 346:Generated_Source\PSoC6\pdl\drivers/peripheral/gpio/cy_gpio.h **** * \defgroup group_gpio_vtrip Voltage trip mode
 347:Generated_Source\PSoC6\pdl\drivers/peripheral/gpio/cy_gpio.h **** * \{
 348:Generated_Source\PSoC6\pdl\drivers/peripheral/gpio/cy_gpio.h **** * Constants to be used for setting the voltage trip type on the pin.
 349:Generated_Source\PSoC6\pdl\drivers/peripheral/gpio/cy_gpio.h **** */
 350:Generated_Source\PSoC6\pdl\drivers/peripheral/gpio/cy_gpio.h **** #define CY_GPIO_VTRIP_CMOS                     (0x00UL) /**< \brief Input buffer compatible with CM
 351:Generated_Source\PSoC6\pdl\drivers/peripheral/gpio/cy_gpio.h **** #define CY_GPIO_VTRIP_TTL                      (0x01UL) /**< \brief Input buffer compatible with TT
 352:Generated_Source\PSoC6\pdl\drivers/peripheral/gpio/cy_gpio.h **** /** \} */
 353:Generated_Source\PSoC6\pdl\drivers/peripheral/gpio/cy_gpio.h **** 
 354:Generated_Source\PSoC6\pdl\drivers/peripheral/gpio/cy_gpio.h **** /**
 355:Generated_Source\PSoC6\pdl\drivers/peripheral/gpio/cy_gpio.h **** * \defgroup group_gpio_slewRate Slew Rate Mode
 356:Generated_Source\PSoC6\pdl\drivers/peripheral/gpio/cy_gpio.h **** * \{
 357:Generated_Source\PSoC6\pdl\drivers/peripheral/gpio/cy_gpio.h **** * Constants to be used for setting the slew rate of the pin.
 358:Generated_Source\PSoC6\pdl\drivers/peripheral/gpio/cy_gpio.h **** */
 359:Generated_Source\PSoC6\pdl\drivers/peripheral/gpio/cy_gpio.h **** #define CY_GPIO_SLEW_FAST                      (0x00UL) /**< \brief Fast slew rate */
 360:Generated_Source\PSoC6\pdl\drivers/peripheral/gpio/cy_gpio.h **** #define CY_GPIO_SLEW_SLOW                      (0x01UL) /**< \brief Slow slew rate */
 361:Generated_Source\PSoC6\pdl\drivers/peripheral/gpio/cy_gpio.h **** /** \} */
 362:Generated_Source\PSoC6\pdl\drivers/peripheral/gpio/cy_gpio.h **** 
 363:Generated_Source\PSoC6\pdl\drivers/peripheral/gpio/cy_gpio.h **** /**
 364:Generated_Source\PSoC6\pdl\drivers/peripheral/gpio/cy_gpio.h **** * \defgroup group_gpio_driveStrength Pin drive strength
 365:Generated_Source\PSoC6\pdl\drivers/peripheral/gpio/cy_gpio.h **** * \{
 366:Generated_Source\PSoC6\pdl\drivers/peripheral/gpio/cy_gpio.h **** * Constants to be used for setting the drive strength of the pin.
 367:Generated_Source\PSoC6\pdl\drivers/peripheral/gpio/cy_gpio.h **** */
 368:Generated_Source\PSoC6\pdl\drivers/peripheral/gpio/cy_gpio.h **** #define CY_GPIO_DRIVE_FULL                     (0x00UL) /**< \brief Full drive strength: Max drive 
 369:Generated_Source\PSoC6\pdl\drivers/peripheral/gpio/cy_gpio.h **** #define CY_GPIO_DRIVE_1_2                      (0x01UL) /**< \brief 1/2 drive strength: 1/2 drive c
 370:Generated_Source\PSoC6\pdl\drivers/peripheral/gpio/cy_gpio.h **** #define CY_GPIO_DRIVE_1_4                      (0x02UL) /**< \brief 1/4 drive strength: 1/4 drive c
 371:Generated_Source\PSoC6\pdl\drivers/peripheral/gpio/cy_gpio.h **** #define CY_GPIO_DRIVE_1_8                      (0x03UL) /**< \brief 1/8 drive strength: 1/8 drive c
 372:Generated_Source\PSoC6\pdl\drivers/peripheral/gpio/cy_gpio.h **** /** \} */
 373:Generated_Source\PSoC6\pdl\drivers/peripheral/gpio/cy_gpio.h **** 
 374:Generated_Source\PSoC6\pdl\drivers/peripheral/gpio/cy_gpio.h **** /**
 375:Generated_Source\PSoC6\pdl\drivers/peripheral/gpio/cy_gpio.h **** * \defgroup group_gpio_interruptTrigger Interrupt trigger type
 376:Generated_Source\PSoC6\pdl\drivers/peripheral/gpio/cy_gpio.h **** * \{
 377:Generated_Source\PSoC6\pdl\drivers/peripheral/gpio/cy_gpio.h **** * Constants to be used for setting the interrupt trigger type on the pin.
 378:Generated_Source\PSoC6\pdl\drivers/peripheral/gpio/cy_gpio.h **** */
 379:Generated_Source\PSoC6\pdl\drivers/peripheral/gpio/cy_gpio.h **** #define CY_GPIO_INTR_DISABLE                   (0x00UL) /**< \brief Disable the pin interrupt gener
 380:Generated_Source\PSoC6\pdl\drivers/peripheral/gpio/cy_gpio.h **** #define CY_GPIO_INTR_RISING                    (0x01UL) /**< \brief Rising-Edge interrupt */
 381:Generated_Source\PSoC6\pdl\drivers/peripheral/gpio/cy_gpio.h **** #define CY_GPIO_INTR_FALLING                   (0x02UL) /**< \brief Falling-Edge interrupt */
 382:Generated_Source\PSoC6\pdl\drivers/peripheral/gpio/cy_gpio.h **** #define CY_GPIO_INTR_BOTH                      (0x03UL) /**< \brief Both-Edge interrupt */
 383:Generated_Source\PSoC6\pdl\drivers/peripheral/gpio/cy_gpio.h **** /** \} */
 384:Generated_Source\PSoC6\pdl\drivers/peripheral/gpio/cy_gpio.h **** 
 385:Generated_Source\PSoC6\pdl\drivers/peripheral/gpio/cy_gpio.h **** /**
 386:Generated_Source\PSoC6\pdl\drivers/peripheral/gpio/cy_gpio.h **** * \defgroup group_gpio_sioVreg SIO output buffer mode
 387:Generated_Source\PSoC6\pdl\drivers/peripheral/gpio/cy_gpio.h **** * \{
 388:Generated_Source\PSoC6\pdl\drivers/peripheral/gpio/cy_gpio.h **** * Constants to be used for setting the SIO output buffer mode on the pin.
 389:Generated_Source\PSoC6\pdl\drivers/peripheral/gpio/cy_gpio.h **** */
 390:Generated_Source\PSoC6\pdl\drivers/peripheral/gpio/cy_gpio.h **** #define CY_SIO_VREG_UNREGULATED                (0x00UL) /**< \brief Unregulated output buffer */
 391:Generated_Source\PSoC6\pdl\drivers/peripheral/gpio/cy_gpio.h **** #define CY_SIO_VREG_REGULATED                  (0x01UL) /**< \brief Regulated output buffer */
 392:Generated_Source\PSoC6\pdl\drivers/peripheral/gpio/cy_gpio.h **** /** \} */
 393:Generated_Source\PSoC6\pdl\drivers/peripheral/gpio/cy_gpio.h **** 
 394:Generated_Source\PSoC6\pdl\drivers/peripheral/gpio/cy_gpio.h **** /**
 395:Generated_Source\PSoC6\pdl\drivers/peripheral/gpio/cy_gpio.h **** * \defgroup group_gpio_sioIbuf SIO input buffer mode
 396:Generated_Source\PSoC6\pdl\drivers/peripheral/gpio/cy_gpio.h **** * \{
 397:Generated_Source\PSoC6\pdl\drivers/peripheral/gpio/cy_gpio.h **** * Constants to be used for setting the SIO input buffer mode on the pin.
 398:Generated_Source\PSoC6\pdl\drivers/peripheral/gpio/cy_gpio.h **** */
 399:Generated_Source\PSoC6\pdl\drivers/peripheral/gpio/cy_gpio.h **** #define CY_SIO_IBUF_SINGLEENDED                (0x00UL) /**< \brief Single ended input buffer */
 400:Generated_Source\PSoC6\pdl\drivers/peripheral/gpio/cy_gpio.h **** #define CY_SIO_IBUF_DIFFERENTIAL               (0x01UL) /**< \brief Differential input buffer */
 401:Generated_Source\PSoC6\pdl\drivers/peripheral/gpio/cy_gpio.h **** /** \} */
 402:Generated_Source\PSoC6\pdl\drivers/peripheral/gpio/cy_gpio.h **** 
ARM GAS  C:\Users\User\AppData\Local\Temp\ccsn8eRz.s 			page 11


 403:Generated_Source\PSoC6\pdl\drivers/peripheral/gpio/cy_gpio.h **** /**
 404:Generated_Source\PSoC6\pdl\drivers/peripheral/gpio/cy_gpio.h **** * \defgroup group_gpio_sioVtrip SIO input buffer trip-point
 405:Generated_Source\PSoC6\pdl\drivers/peripheral/gpio/cy_gpio.h **** * \{
 406:Generated_Source\PSoC6\pdl\drivers/peripheral/gpio/cy_gpio.h **** * Constants to be used for setting the SIO input buffer trip-point of the pin.
 407:Generated_Source\PSoC6\pdl\drivers/peripheral/gpio/cy_gpio.h **** */
 408:Generated_Source\PSoC6\pdl\drivers/peripheral/gpio/cy_gpio.h **** #define CY_SIO_VTRIP_CMOS                      (0x00UL) /**< \brief CMOS input buffer (single-ended
 409:Generated_Source\PSoC6\pdl\drivers/peripheral/gpio/cy_gpio.h **** #define CY_SIO_VTRIP_TTL                       (0x01UL) /**< \brief TTL input buffer (single-ended)
 410:Generated_Source\PSoC6\pdl\drivers/peripheral/gpio/cy_gpio.h **** #define CY_SIO_VTRIP_0_5VDDIO_0_5VOH           (0x00UL) /**< \brief 0.5xVddio or 0.5xVoh (different
 411:Generated_Source\PSoC6\pdl\drivers/peripheral/gpio/cy_gpio.h **** #define CY_SIO_VTRIP_0_4VDDIO_1_0VREF          (0x01UL) /**< \brief 0.4xVddio or 0.4xVoh (different
 412:Generated_Source\PSoC6\pdl\drivers/peripheral/gpio/cy_gpio.h **** /** \} */
 413:Generated_Source\PSoC6\pdl\drivers/peripheral/gpio/cy_gpio.h **** 
 414:Generated_Source\PSoC6\pdl\drivers/peripheral/gpio/cy_gpio.h **** /**
 415:Generated_Source\PSoC6\pdl\drivers/peripheral/gpio/cy_gpio.h **** * \defgroup group_gpio_sioVref SIO reference voltage for input buffer trip-point
 416:Generated_Source\PSoC6\pdl\drivers/peripheral/gpio/cy_gpio.h **** * \{
 417:Generated_Source\PSoC6\pdl\drivers/peripheral/gpio/cy_gpio.h **** * Constants to be used for setting the reference voltage of SIO input buffer trip-point.
 418:Generated_Source\PSoC6\pdl\drivers/peripheral/gpio/cy_gpio.h **** */
 419:Generated_Source\PSoC6\pdl\drivers/peripheral/gpio/cy_gpio.h **** #define CY_SIO_VREF_PINREF                     (0x00UL) /**< \brief Vref from analog pin */
 420:Generated_Source\PSoC6\pdl\drivers/peripheral/gpio/cy_gpio.h **** #define CY_SIO_VREF_1_2V                       (0x01UL) /**< \brief Vref from internal 1.2V referen
 421:Generated_Source\PSoC6\pdl\drivers/peripheral/gpio/cy_gpio.h **** #define CY_SIO_VREF_AMUX_A                     (0x02UL) /**< \brief Vref from AMUXBUS_A */
 422:Generated_Source\PSoC6\pdl\drivers/peripheral/gpio/cy_gpio.h **** #define CY_SIO_VREF_AMUX_B                     (0x03UL) /**< \brief Vref from AMUXBUS_B */
 423:Generated_Source\PSoC6\pdl\drivers/peripheral/gpio/cy_gpio.h **** /** \} */
 424:Generated_Source\PSoC6\pdl\drivers/peripheral/gpio/cy_gpio.h **** 
 425:Generated_Source\PSoC6\pdl\drivers/peripheral/gpio/cy_gpio.h **** /**
 426:Generated_Source\PSoC6\pdl\drivers/peripheral/gpio/cy_gpio.h **** * \defgroup group_gpio_sioVoh Regulated output voltage level (Voh) and input buffer trip-point of a
 427:Generated_Source\PSoC6\pdl\drivers/peripheral/gpio/cy_gpio.h **** * \{
 428:Generated_Source\PSoC6\pdl\drivers/peripheral/gpio/cy_gpio.h **** * Constants to be used for setting the Voh and input buffer trip-point of an SIO pair
 429:Generated_Source\PSoC6\pdl\drivers/peripheral/gpio/cy_gpio.h **** */
 430:Generated_Source\PSoC6\pdl\drivers/peripheral/gpio/cy_gpio.h **** #define CY_SIO_VOH_1_00                        (0x00UL) /**< \brief Voh = 1 x Reference */
 431:Generated_Source\PSoC6\pdl\drivers/peripheral/gpio/cy_gpio.h **** #define CY_SIO_VOH_1_25                        (0x01UL) /**< \brief Voh = 1.25 x Reference */
 432:Generated_Source\PSoC6\pdl\drivers/peripheral/gpio/cy_gpio.h **** #define CY_SIO_VOH_1_49                        (0x02UL) /**< \brief Voh = 1.49 x Reference */
 433:Generated_Source\PSoC6\pdl\drivers/peripheral/gpio/cy_gpio.h **** #define CY_SIO_VOH_1_67                        (0x03UL) /**< \brief Voh = 1.67 x Reference */
 434:Generated_Source\PSoC6\pdl\drivers/peripheral/gpio/cy_gpio.h **** #define CY_SIO_VOH_2_08                        (0x04UL) /**< \brief Voh = 2.08 x Reference */
 435:Generated_Source\PSoC6\pdl\drivers/peripheral/gpio/cy_gpio.h **** #define CY_SIO_VOH_2_50                        (0x05UL) /**< \brief Voh = 2.50 x Reference */
 436:Generated_Source\PSoC6\pdl\drivers/peripheral/gpio/cy_gpio.h **** #define CY_SIO_VOH_2_78                        (0x06UL) /**< \brief Voh = 2.78 x Reference */
 437:Generated_Source\PSoC6\pdl\drivers/peripheral/gpio/cy_gpio.h **** #define CY_SIO_VOH_4_16                        (0x07UL) /**< \brief Voh = 4.16 x Reference */
 438:Generated_Source\PSoC6\pdl\drivers/peripheral/gpio/cy_gpio.h **** /** \} */
 439:Generated_Source\PSoC6\pdl\drivers/peripheral/gpio/cy_gpio.h **** 
 440:Generated_Source\PSoC6\pdl\drivers/peripheral/gpio/cy_gpio.h **** /** \} group_gpio_macros */
 441:Generated_Source\PSoC6\pdl\drivers/peripheral/gpio/cy_gpio.h **** 
 442:Generated_Source\PSoC6\pdl\drivers/peripheral/gpio/cy_gpio.h **** /***************************************
 443:Generated_Source\PSoC6\pdl\drivers/peripheral/gpio/cy_gpio.h **** *        Function Prototypes
 444:Generated_Source\PSoC6\pdl\drivers/peripheral/gpio/cy_gpio.h **** ***************************************/
 445:Generated_Source\PSoC6\pdl\drivers/peripheral/gpio/cy_gpio.h **** 
 446:Generated_Source\PSoC6\pdl\drivers/peripheral/gpio/cy_gpio.h **** /**
 447:Generated_Source\PSoC6\pdl\drivers/peripheral/gpio/cy_gpio.h **** * \addtogroup group_gpio_functions
 448:Generated_Source\PSoC6\pdl\drivers/peripheral/gpio/cy_gpio.h **** * \{
 449:Generated_Source\PSoC6\pdl\drivers/peripheral/gpio/cy_gpio.h **** */
 450:Generated_Source\PSoC6\pdl\drivers/peripheral/gpio/cy_gpio.h **** 
 451:Generated_Source\PSoC6\pdl\drivers/peripheral/gpio/cy_gpio.h **** /**
 452:Generated_Source\PSoC6\pdl\drivers/peripheral/gpio/cy_gpio.h **** * \addtogroup group_gpio_functions_init
 453:Generated_Source\PSoC6\pdl\drivers/peripheral/gpio/cy_gpio.h **** * \{
 454:Generated_Source\PSoC6\pdl\drivers/peripheral/gpio/cy_gpio.h **** */
 455:Generated_Source\PSoC6\pdl\drivers/peripheral/gpio/cy_gpio.h **** 
 456:Generated_Source\PSoC6\pdl\drivers/peripheral/gpio/cy_gpio.h **** cy_en_gpio_status_t Cy_GPIO_Pin_Init(GPIO_PRT_Type* base, uint32_t pinNum, const cy_stc_gpio_pin_co
 457:Generated_Source\PSoC6\pdl\drivers/peripheral/gpio/cy_gpio.h **** cy_en_gpio_status_t Cy_GPIO_Port_Init(GPIO_PRT_Type* base, const cy_stc_gpio_prt_config_t *config);
 458:Generated_Source\PSoC6\pdl\drivers/peripheral/gpio/cy_gpio.h **** void Cy_GPIO_Pin_FastInit(GPIO_PRT_Type* base, uint32_t pinNum, uint32_t driveMode, uint32_t outVal
 459:Generated_Source\PSoC6\pdl\drivers/peripheral/gpio/cy_gpio.h **** void Cy_GPIO_Port_Deinit(GPIO_PRT_Type* base);
ARM GAS  C:\Users\User\AppData\Local\Temp\ccsn8eRz.s 			page 12


 460:Generated_Source\PSoC6\pdl\drivers/peripheral/gpio/cy_gpio.h **** __STATIC_INLINE void Cy_GPIO_SetHSIOM(GPIO_PRT_Type* base, uint32_t pinNum, en_hsiom_sel_t value);
 461:Generated_Source\PSoC6\pdl\drivers/peripheral/gpio/cy_gpio.h **** __STATIC_INLINE en_hsiom_sel_t Cy_GPIO_GetHSIOM(GPIO_PRT_Type* base, uint32_t pinNum);
 462:Generated_Source\PSoC6\pdl\drivers/peripheral/gpio/cy_gpio.h **** __STATIC_INLINE GPIO_PRT_Type* Cy_GPIO_PortToAddr(uint32_t portNum);
 463:Generated_Source\PSoC6\pdl\drivers/peripheral/gpio/cy_gpio.h **** 
 464:Generated_Source\PSoC6\pdl\drivers/peripheral/gpio/cy_gpio.h **** /** \} group_gpio_functions_init */
 465:Generated_Source\PSoC6\pdl\drivers/peripheral/gpio/cy_gpio.h **** 
 466:Generated_Source\PSoC6\pdl\drivers/peripheral/gpio/cy_gpio.h **** /**
 467:Generated_Source\PSoC6\pdl\drivers/peripheral/gpio/cy_gpio.h **** * \addtogroup group_gpio_functions_gpio
 468:Generated_Source\PSoC6\pdl\drivers/peripheral/gpio/cy_gpio.h **** * \{
 469:Generated_Source\PSoC6\pdl\drivers/peripheral/gpio/cy_gpio.h **** */
 470:Generated_Source\PSoC6\pdl\drivers/peripheral/gpio/cy_gpio.h **** 
 471:Generated_Source\PSoC6\pdl\drivers/peripheral/gpio/cy_gpio.h **** __STATIC_INLINE uint32_t Cy_GPIO_Read(GPIO_PRT_Type* base, uint32_t pinNum);
 472:Generated_Source\PSoC6\pdl\drivers/peripheral/gpio/cy_gpio.h **** __STATIC_INLINE void Cy_GPIO_Write(GPIO_PRT_Type* base, uint32_t pinNum, uint32_t value);
 473:Generated_Source\PSoC6\pdl\drivers/peripheral/gpio/cy_gpio.h **** __STATIC_INLINE uint32_t Cy_GPIO_ReadOut(GPIO_PRT_Type* base, uint32_t pinNum);
 474:Generated_Source\PSoC6\pdl\drivers/peripheral/gpio/cy_gpio.h **** __STATIC_INLINE void Cy_GPIO_Set(GPIO_PRT_Type* base, uint32_t pinNum);
 475:Generated_Source\PSoC6\pdl\drivers/peripheral/gpio/cy_gpio.h **** __STATIC_INLINE void Cy_GPIO_Clr(GPIO_PRT_Type* base, uint32_t pinNum);
 476:Generated_Source\PSoC6\pdl\drivers/peripheral/gpio/cy_gpio.h **** __STATIC_INLINE void Cy_GPIO_Inv(GPIO_PRT_Type* base, uint32_t pinNum);
 477:Generated_Source\PSoC6\pdl\drivers/peripheral/gpio/cy_gpio.h **** __STATIC_INLINE void Cy_GPIO_SetDrivemode(GPIO_PRT_Type* base, uint32_t pinNum, uint32_t value);
 478:Generated_Source\PSoC6\pdl\drivers/peripheral/gpio/cy_gpio.h **** __STATIC_INLINE uint32_t Cy_GPIO_GetDrivemode(GPIO_PRT_Type* base, uint32_t pinNum);
 479:Generated_Source\PSoC6\pdl\drivers/peripheral/gpio/cy_gpio.h **** __STATIC_INLINE void Cy_GPIO_SetVtrip(GPIO_PRT_Type* base, uint32_t pinNum, uint32_t value);
 480:Generated_Source\PSoC6\pdl\drivers/peripheral/gpio/cy_gpio.h **** __STATIC_INLINE uint32_t Cy_GPIO_GetVtrip(GPIO_PRT_Type* base, uint32_t pinNum);
 481:Generated_Source\PSoC6\pdl\drivers/peripheral/gpio/cy_gpio.h **** __STATIC_INLINE void Cy_GPIO_SetSlewRate(GPIO_PRT_Type* base, uint32_t pinNum, uint32_t value);
 482:Generated_Source\PSoC6\pdl\drivers/peripheral/gpio/cy_gpio.h **** __STATIC_INLINE uint32_t Cy_GPIO_GetSlewRate(GPIO_PRT_Type* base, uint32_t pinNum);
 483:Generated_Source\PSoC6\pdl\drivers/peripheral/gpio/cy_gpio.h **** __STATIC_INLINE void Cy_GPIO_SetDriveSel(GPIO_PRT_Type* base, uint32_t pinNum, uint32_t value);
 484:Generated_Source\PSoC6\pdl\drivers/peripheral/gpio/cy_gpio.h **** __STATIC_INLINE uint32_t Cy_GPIO_GetDriveSel(GPIO_PRT_Type* base, uint32_t pinNum);
 485:Generated_Source\PSoC6\pdl\drivers/peripheral/gpio/cy_gpio.h **** 
 486:Generated_Source\PSoC6\pdl\drivers/peripheral/gpio/cy_gpio.h **** /** \} group_gpio_functions_gpio */
 487:Generated_Source\PSoC6\pdl\drivers/peripheral/gpio/cy_gpio.h **** 
 488:Generated_Source\PSoC6\pdl\drivers/peripheral/gpio/cy_gpio.h **** /**
 489:Generated_Source\PSoC6\pdl\drivers/peripheral/gpio/cy_gpio.h **** * \addtogroup group_gpio_functions_sio
 490:Generated_Source\PSoC6\pdl\drivers/peripheral/gpio/cy_gpio.h **** * \{
 491:Generated_Source\PSoC6\pdl\drivers/peripheral/gpio/cy_gpio.h **** */
 492:Generated_Source\PSoC6\pdl\drivers/peripheral/gpio/cy_gpio.h **** 
 493:Generated_Source\PSoC6\pdl\drivers/peripheral/gpio/cy_gpio.h **** __STATIC_INLINE void Cy_GPIO_SetVregEn(GPIO_PRT_Type* base, uint32_t pinNum, uint32_t value);
 494:Generated_Source\PSoC6\pdl\drivers/peripheral/gpio/cy_gpio.h **** __STATIC_INLINE uint32_t Cy_GPIO_GetVregEn(GPIO_PRT_Type* base, uint32_t pinNum);
 495:Generated_Source\PSoC6\pdl\drivers/peripheral/gpio/cy_gpio.h **** __STATIC_INLINE void Cy_GPIO_SetIbufMode(GPIO_PRT_Type* base, uint32_t pinNum, uint32_t value);
 496:Generated_Source\PSoC6\pdl\drivers/peripheral/gpio/cy_gpio.h **** __STATIC_INLINE uint32_t Cy_GPIO_GetIbufMode(GPIO_PRT_Type* base, uint32_t pinNum);
 497:Generated_Source\PSoC6\pdl\drivers/peripheral/gpio/cy_gpio.h **** __STATIC_INLINE void Cy_GPIO_SetVtripSel(GPIO_PRT_Type* base, uint32_t pinNum, uint32_t value);
 498:Generated_Source\PSoC6\pdl\drivers/peripheral/gpio/cy_gpio.h **** __STATIC_INLINE uint32_t Cy_GPIO_GetVtripSel(GPIO_PRT_Type* base, uint32_t pinNum);
 499:Generated_Source\PSoC6\pdl\drivers/peripheral/gpio/cy_gpio.h **** __STATIC_INLINE void Cy_GPIO_SetVrefSel(GPIO_PRT_Type* base, uint32_t pinNum, uint32_t value);
 500:Generated_Source\PSoC6\pdl\drivers/peripheral/gpio/cy_gpio.h **** __STATIC_INLINE uint32_t Cy_GPIO_GetVrefSel(GPIO_PRT_Type* base, uint32_t pinNum);
 501:Generated_Source\PSoC6\pdl\drivers/peripheral/gpio/cy_gpio.h **** __STATIC_INLINE void Cy_GPIO_SetVohSel(GPIO_PRT_Type* base, uint32_t pinNum, uint32_t value);
 502:Generated_Source\PSoC6\pdl\drivers/peripheral/gpio/cy_gpio.h **** __STATIC_INLINE uint32_t Cy_GPIO_GetVohSel(GPIO_PRT_Type* base, uint32_t pinNum);
 503:Generated_Source\PSoC6\pdl\drivers/peripheral/gpio/cy_gpio.h **** 
 504:Generated_Source\PSoC6\pdl\drivers/peripheral/gpio/cy_gpio.h **** /** \} group_gpio_functions_sio */
 505:Generated_Source\PSoC6\pdl\drivers/peripheral/gpio/cy_gpio.h **** 
 506:Generated_Source\PSoC6\pdl\drivers/peripheral/gpio/cy_gpio.h **** /**
 507:Generated_Source\PSoC6\pdl\drivers/peripheral/gpio/cy_gpio.h **** * \addtogroup group_gpio_functions_interrupt
 508:Generated_Source\PSoC6\pdl\drivers/peripheral/gpio/cy_gpio.h **** * \{
 509:Generated_Source\PSoC6\pdl\drivers/peripheral/gpio/cy_gpio.h **** */
 510:Generated_Source\PSoC6\pdl\drivers/peripheral/gpio/cy_gpio.h **** 
 511:Generated_Source\PSoC6\pdl\drivers/peripheral/gpio/cy_gpio.h **** __STATIC_INLINE uint32_t Cy_GPIO_GetInterruptStatus(GPIO_PRT_Type* base, uint32_t pinNum);
 512:Generated_Source\PSoC6\pdl\drivers/peripheral/gpio/cy_gpio.h **** __STATIC_INLINE void Cy_GPIO_ClearInterrupt(GPIO_PRT_Type* base, uint32_t pinNum);
 513:Generated_Source\PSoC6\pdl\drivers/peripheral/gpio/cy_gpio.h **** __STATIC_INLINE void Cy_GPIO_SetInterruptMask(GPIO_PRT_Type* base, uint32_t pinNum, uint32_t value)
 514:Generated_Source\PSoC6\pdl\drivers/peripheral/gpio/cy_gpio.h **** __STATIC_INLINE uint32_t Cy_GPIO_GetInterruptMask(GPIO_PRT_Type* base, uint32_t pinNum);
 515:Generated_Source\PSoC6\pdl\drivers/peripheral/gpio/cy_gpio.h **** __STATIC_INLINE uint32_t Cy_GPIO_GetInterruptStatusMasked(GPIO_PRT_Type* base, uint32_t pinNum);
 516:Generated_Source\PSoC6\pdl\drivers/peripheral/gpio/cy_gpio.h **** __STATIC_INLINE void Cy_GPIO_SetSwInterrupt(GPIO_PRT_Type* base, uint32_t pinNum);
ARM GAS  C:\Users\User\AppData\Local\Temp\ccsn8eRz.s 			page 13


 517:Generated_Source\PSoC6\pdl\drivers/peripheral/gpio/cy_gpio.h **** __STATIC_INLINE void Cy_GPIO_SetInterruptEdge(GPIO_PRT_Type* base, uint32_t pinNum, uint32_t value)
 518:Generated_Source\PSoC6\pdl\drivers/peripheral/gpio/cy_gpio.h **** __STATIC_INLINE uint32_t Cy_GPIO_GetInterruptEdge(GPIO_PRT_Type* base, uint32_t pinNum);
 519:Generated_Source\PSoC6\pdl\drivers/peripheral/gpio/cy_gpio.h **** __STATIC_INLINE void Cy_GPIO_SetFilter(GPIO_PRT_Type* base, uint32_t value);
 520:Generated_Source\PSoC6\pdl\drivers/peripheral/gpio/cy_gpio.h **** __STATIC_INLINE uint32_t Cy_GPIO_GetFilter(GPIO_PRT_Type* base);
 521:Generated_Source\PSoC6\pdl\drivers/peripheral/gpio/cy_gpio.h **** 
 522:Generated_Source\PSoC6\pdl\drivers/peripheral/gpio/cy_gpio.h **** #if (IOSS_GPIO_GPIO_PORT_NR_0_31 != 0) || defined (CY_DOXYGEN)
 523:Generated_Source\PSoC6\pdl\drivers/peripheral/gpio/cy_gpio.h **** __STATIC_INLINE uint32_t Cy_GPIO_GetInterruptCause0(void);
 524:Generated_Source\PSoC6\pdl\drivers/peripheral/gpio/cy_gpio.h **** #endif /* (IOSS_GPIO_GPIO_PORT_NR_0_31 != 0) */
 525:Generated_Source\PSoC6\pdl\drivers/peripheral/gpio/cy_gpio.h **** 
 526:Generated_Source\PSoC6\pdl\drivers/peripheral/gpio/cy_gpio.h **** #if (IOSS_GPIO_GPIO_PORT_NR_32_63 != 0) || defined (CY_DOXYGEN)
 527:Generated_Source\PSoC6\pdl\drivers/peripheral/gpio/cy_gpio.h **** __STATIC_INLINE uint32_t Cy_GPIO_GetInterruptCause1(void);
 528:Generated_Source\PSoC6\pdl\drivers/peripheral/gpio/cy_gpio.h **** #endif /* (IOSS_GPIO_GPIO_PORT_NR_32_63 != 0) */
 529:Generated_Source\PSoC6\pdl\drivers/peripheral/gpio/cy_gpio.h **** 
 530:Generated_Source\PSoC6\pdl\drivers/peripheral/gpio/cy_gpio.h **** #if (IOSS_GPIO_GPIO_PORT_NR_64_95 != 0) || defined (CY_DOXYGEN)
 531:Generated_Source\PSoC6\pdl\drivers/peripheral/gpio/cy_gpio.h **** __STATIC_INLINE uint32_t Cy_GPIO_GetInterruptCause2(void);
 532:Generated_Source\PSoC6\pdl\drivers/peripheral/gpio/cy_gpio.h **** #endif /* (IOSS_GPIO_GPIO_PORT_NR_64_95 != 0) */
 533:Generated_Source\PSoC6\pdl\drivers/peripheral/gpio/cy_gpio.h **** 
 534:Generated_Source\PSoC6\pdl\drivers/peripheral/gpio/cy_gpio.h **** #if (IOSS_GPIO_GPIO_PORT_NR_96_127 != 0) || defined (CY_DOXYGEN)
 535:Generated_Source\PSoC6\pdl\drivers/peripheral/gpio/cy_gpio.h **** __STATIC_INLINE uint32_t Cy_GPIO_GetInterruptCause3(void);
 536:Generated_Source\PSoC6\pdl\drivers/peripheral/gpio/cy_gpio.h **** #endif /* (IOSS_GPIO_GPIO_PORT_NR_96_127 != 0) */
 537:Generated_Source\PSoC6\pdl\drivers/peripheral/gpio/cy_gpio.h **** 
 538:Generated_Source\PSoC6\pdl\drivers/peripheral/gpio/cy_gpio.h **** /** \} group_gpio_functions_interrupt */
 539:Generated_Source\PSoC6\pdl\drivers/peripheral/gpio/cy_gpio.h **** 
 540:Generated_Source\PSoC6\pdl\drivers/peripheral/gpio/cy_gpio.h **** 
 541:Generated_Source\PSoC6\pdl\drivers/peripheral/gpio/cy_gpio.h **** /**
 542:Generated_Source\PSoC6\pdl\drivers/peripheral/gpio/cy_gpio.h **** * \addtogroup group_gpio_functions_init
 543:Generated_Source\PSoC6\pdl\drivers/peripheral/gpio/cy_gpio.h **** * \{
 544:Generated_Source\PSoC6\pdl\drivers/peripheral/gpio/cy_gpio.h **** */
 545:Generated_Source\PSoC6\pdl\drivers/peripheral/gpio/cy_gpio.h **** 
 546:Generated_Source\PSoC6\pdl\drivers/peripheral/gpio/cy_gpio.h **** /*******************************************************************************
 547:Generated_Source\PSoC6\pdl\drivers/peripheral/gpio/cy_gpio.h **** * Function Name: Cy_GPIO_SetHSIOM
 548:Generated_Source\PSoC6\pdl\drivers/peripheral/gpio/cy_gpio.h **** ****************************************************************************//**
 549:Generated_Source\PSoC6\pdl\drivers/peripheral/gpio/cy_gpio.h **** *
 550:Generated_Source\PSoC6\pdl\drivers/peripheral/gpio/cy_gpio.h **** * \brief Configures the HSIOM connection to the pin.
 551:Generated_Source\PSoC6\pdl\drivers/peripheral/gpio/cy_gpio.h **** *
 552:Generated_Source\PSoC6\pdl\drivers/peripheral/gpio/cy_gpio.h **** * Connects the specified High-Speed Input Output Multiplexer (HSIOM) selection
 553:Generated_Source\PSoC6\pdl\drivers/peripheral/gpio/cy_gpio.h **** * to the pin.
 554:Generated_Source\PSoC6\pdl\drivers/peripheral/gpio/cy_gpio.h **** *
 555:Generated_Source\PSoC6\pdl\drivers/peripheral/gpio/cy_gpio.h **** * \param base
 556:Generated_Source\PSoC6\pdl\drivers/peripheral/gpio/cy_gpio.h **** * Pointer to the pin's port register base address
 557:Generated_Source\PSoC6\pdl\drivers/peripheral/gpio/cy_gpio.h **** *
 558:Generated_Source\PSoC6\pdl\drivers/peripheral/gpio/cy_gpio.h **** * \param pinNum
 559:Generated_Source\PSoC6\pdl\drivers/peripheral/gpio/cy_gpio.h **** * Position of the pin bit-field within the port register
 560:Generated_Source\PSoC6\pdl\drivers/peripheral/gpio/cy_gpio.h **** *
 561:Generated_Source\PSoC6\pdl\drivers/peripheral/gpio/cy_gpio.h **** * \param value
 562:Generated_Source\PSoC6\pdl\drivers/peripheral/gpio/cy_gpio.h **** * HSIOM input selection
 563:Generated_Source\PSoC6\pdl\drivers/peripheral/gpio/cy_gpio.h **** *
 564:Generated_Source\PSoC6\pdl\drivers/peripheral/gpio/cy_gpio.h **** * \return
 565:Generated_Source\PSoC6\pdl\drivers/peripheral/gpio/cy_gpio.h **** * void
 566:Generated_Source\PSoC6\pdl\drivers/peripheral/gpio/cy_gpio.h **** *
 567:Generated_Source\PSoC6\pdl\drivers/peripheral/gpio/cy_gpio.h **** * \note 
 568:Generated_Source\PSoC6\pdl\drivers/peripheral/gpio/cy_gpio.h **** * This function modifies a port register in a read-modify-write operation. It is
 569:Generated_Source\PSoC6\pdl\drivers/peripheral/gpio/cy_gpio.h **** * not thread safe as the resource is shared among multiple pins on a port.
 570:Generated_Source\PSoC6\pdl\drivers/peripheral/gpio/cy_gpio.h **** *
 571:Generated_Source\PSoC6\pdl\drivers/peripheral/gpio/cy_gpio.h **** * \funcusage
 572:Generated_Source\PSoC6\pdl\drivers/peripheral/gpio/cy_gpio.h **** * \snippet gpio/gpio_v1_10_sut_01.cydsn/main_cm4.c snippet_Cy_GPIO_SetHSIOM
 573:Generated_Source\PSoC6\pdl\drivers/peripheral/gpio/cy_gpio.h **** *
ARM GAS  C:\Users\User\AppData\Local\Temp\ccsn8eRz.s 			page 14


 574:Generated_Source\PSoC6\pdl\drivers/peripheral/gpio/cy_gpio.h **** *******************************************************************************/
 575:Generated_Source\PSoC6\pdl\drivers/peripheral/gpio/cy_gpio.h **** __STATIC_INLINE void Cy_GPIO_SetHSIOM(GPIO_PRT_Type* base, uint32_t pinNum, en_hsiom_sel_t value)
 576:Generated_Source\PSoC6\pdl\drivers/peripheral/gpio/cy_gpio.h **** {
 577:Generated_Source\PSoC6\pdl\drivers/peripheral/gpio/cy_gpio.h ****     uint32_t portNum;
 578:Generated_Source\PSoC6\pdl\drivers/peripheral/gpio/cy_gpio.h ****     uint32_t tempReg;
 579:Generated_Source\PSoC6\pdl\drivers/peripheral/gpio/cy_gpio.h ****     HSIOM_PRT_Type* portAddrHSIOM;
 580:Generated_Source\PSoC6\pdl\drivers/peripheral/gpio/cy_gpio.h **** 
 581:Generated_Source\PSoC6\pdl\drivers/peripheral/gpio/cy_gpio.h ****     CY_ASSERT_L2(CY_GPIO_IS_PIN_VALID(pinNum));
 582:Generated_Source\PSoC6\pdl\drivers/peripheral/gpio/cy_gpio.h ****     CY_ASSERT_L2(CY_GPIO_IS_HSIOM_VALID(value));
 583:Generated_Source\PSoC6\pdl\drivers/peripheral/gpio/cy_gpio.h **** 
 584:Generated_Source\PSoC6\pdl\drivers/peripheral/gpio/cy_gpio.h ****     portNum = ((uint32_t)(base) - GPIO_BASE) / GPIO_PRT_SECTION_SIZE;
 585:Generated_Source\PSoC6\pdl\drivers/peripheral/gpio/cy_gpio.h ****     portAddrHSIOM = (HSIOM_PRT_Type*)(HSIOM_BASE + (HSIOM_PRT_SECTION_SIZE * portNum));
 586:Generated_Source\PSoC6\pdl\drivers/peripheral/gpio/cy_gpio.h **** 
 587:Generated_Source\PSoC6\pdl\drivers/peripheral/gpio/cy_gpio.h ****     if(pinNum < CY_GPIO_PRT_HALF)
 588:Generated_Source\PSoC6\pdl\drivers/peripheral/gpio/cy_gpio.h ****     {
 589:Generated_Source\PSoC6\pdl\drivers/peripheral/gpio/cy_gpio.h ****         tempReg = portAddrHSIOM->PORT_SEL0 & ~(CY_GPIO_HSIOM_MASK << (pinNum << CY_GPIO_HSIOM_OFFSE
 590:Generated_Source\PSoC6\pdl\drivers/peripheral/gpio/cy_gpio.h ****         portAddrHSIOM->PORT_SEL0 = tempReg | ((value & CY_GPIO_HSIOM_MASK) << (pinNum << CY_GPIO_HS
 591:Generated_Source\PSoC6\pdl\drivers/peripheral/gpio/cy_gpio.h ****     }
 592:Generated_Source\PSoC6\pdl\drivers/peripheral/gpio/cy_gpio.h ****     else
 593:Generated_Source\PSoC6\pdl\drivers/peripheral/gpio/cy_gpio.h ****     {
 594:Generated_Source\PSoC6\pdl\drivers/peripheral/gpio/cy_gpio.h ****         pinNum -= CY_GPIO_PRT_HALF;
 595:Generated_Source\PSoC6\pdl\drivers/peripheral/gpio/cy_gpio.h ****         tempReg = portAddrHSIOM->PORT_SEL1 & ~(CY_GPIO_HSIOM_MASK << (pinNum << CY_GPIO_HSIOM_OFFSE
 596:Generated_Source\PSoC6\pdl\drivers/peripheral/gpio/cy_gpio.h ****         portAddrHSIOM->PORT_SEL1 = tempReg | ((value & CY_GPIO_HSIOM_MASK) << (pinNum << CY_GPIO_HS
 597:Generated_Source\PSoC6\pdl\drivers/peripheral/gpio/cy_gpio.h ****     }
 598:Generated_Source\PSoC6\pdl\drivers/peripheral/gpio/cy_gpio.h **** }
 599:Generated_Source\PSoC6\pdl\drivers/peripheral/gpio/cy_gpio.h **** 
 600:Generated_Source\PSoC6\pdl\drivers/peripheral/gpio/cy_gpio.h **** 
 601:Generated_Source\PSoC6\pdl\drivers/peripheral/gpio/cy_gpio.h **** /*******************************************************************************
 602:Generated_Source\PSoC6\pdl\drivers/peripheral/gpio/cy_gpio.h **** * Function Name: Cy_GPIO_GetHSIOM
 603:Generated_Source\PSoC6\pdl\drivers/peripheral/gpio/cy_gpio.h **** ****************************************************************************//**
 604:Generated_Source\PSoC6\pdl\drivers/peripheral/gpio/cy_gpio.h **** *
 605:Generated_Source\PSoC6\pdl\drivers/peripheral/gpio/cy_gpio.h **** * \brief Returns the current HSIOM multiplexer connection to the pin.
 606:Generated_Source\PSoC6\pdl\drivers/peripheral/gpio/cy_gpio.h **** *
 607:Generated_Source\PSoC6\pdl\drivers/peripheral/gpio/cy_gpio.h **** * \param base
 608:Generated_Source\PSoC6\pdl\drivers/peripheral/gpio/cy_gpio.h **** * Pointer to the pin's port register base address
 609:Generated_Source\PSoC6\pdl\drivers/peripheral/gpio/cy_gpio.h **** *
 610:Generated_Source\PSoC6\pdl\drivers/peripheral/gpio/cy_gpio.h **** * \param pinNum
 611:Generated_Source\PSoC6\pdl\drivers/peripheral/gpio/cy_gpio.h **** * Position of the pin bit-field within the port register
 612:Generated_Source\PSoC6\pdl\drivers/peripheral/gpio/cy_gpio.h **** *
 613:Generated_Source\PSoC6\pdl\drivers/peripheral/gpio/cy_gpio.h **** * \return
 614:Generated_Source\PSoC6\pdl\drivers/peripheral/gpio/cy_gpio.h **** * HSIOM input selection
 615:Generated_Source\PSoC6\pdl\drivers/peripheral/gpio/cy_gpio.h **** *
 616:Generated_Source\PSoC6\pdl\drivers/peripheral/gpio/cy_gpio.h **** * \funcusage
 617:Generated_Source\PSoC6\pdl\drivers/peripheral/gpio/cy_gpio.h **** * \snippet gpio/gpio_v1_10_sut_01.cydsn/main_cm4.c snippet_Cy_GPIO_SetHSIOM
 618:Generated_Source\PSoC6\pdl\drivers/peripheral/gpio/cy_gpio.h **** *
 619:Generated_Source\PSoC6\pdl\drivers/peripheral/gpio/cy_gpio.h **** *******************************************************************************/
 620:Generated_Source\PSoC6\pdl\drivers/peripheral/gpio/cy_gpio.h **** __STATIC_INLINE en_hsiom_sel_t Cy_GPIO_GetHSIOM(GPIO_PRT_Type* base, uint32_t pinNum)
 621:Generated_Source\PSoC6\pdl\drivers/peripheral/gpio/cy_gpio.h **** {
 622:Generated_Source\PSoC6\pdl\drivers/peripheral/gpio/cy_gpio.h ****     uint32_t returnValue;
 623:Generated_Source\PSoC6\pdl\drivers/peripheral/gpio/cy_gpio.h ****     uint32_t portNum;
 624:Generated_Source\PSoC6\pdl\drivers/peripheral/gpio/cy_gpio.h ****     HSIOM_PRT_Type* portAddrHSIOM;
 625:Generated_Source\PSoC6\pdl\drivers/peripheral/gpio/cy_gpio.h ****     
 626:Generated_Source\PSoC6\pdl\drivers/peripheral/gpio/cy_gpio.h ****     CY_ASSERT_L2(CY_GPIO_IS_PIN_VALID(pinNum));
 627:Generated_Source\PSoC6\pdl\drivers/peripheral/gpio/cy_gpio.h **** 
 628:Generated_Source\PSoC6\pdl\drivers/peripheral/gpio/cy_gpio.h ****     portNum = ((uint32_t)(base) - GPIO_BASE) / GPIO_PRT_SECTION_SIZE;
 629:Generated_Source\PSoC6\pdl\drivers/peripheral/gpio/cy_gpio.h ****     portAddrHSIOM = (HSIOM_PRT_Type*)(HSIOM_BASE + (HSIOM_PRT_SECTION_SIZE * portNum));
 630:Generated_Source\PSoC6\pdl\drivers/peripheral/gpio/cy_gpio.h **** 
ARM GAS  C:\Users\User\AppData\Local\Temp\ccsn8eRz.s 			page 15


 631:Generated_Source\PSoC6\pdl\drivers/peripheral/gpio/cy_gpio.h ****     if(pinNum < CY_GPIO_PRT_HALF)
 632:Generated_Source\PSoC6\pdl\drivers/peripheral/gpio/cy_gpio.h ****     {
 633:Generated_Source\PSoC6\pdl\drivers/peripheral/gpio/cy_gpio.h ****         returnValue = (portAddrHSIOM->PORT_SEL0 >> (pinNum << CY_GPIO_HSIOM_OFFSET)) & CY_GPIO_HSIO
 634:Generated_Source\PSoC6\pdl\drivers/peripheral/gpio/cy_gpio.h ****     }
 635:Generated_Source\PSoC6\pdl\drivers/peripheral/gpio/cy_gpio.h ****     else
 636:Generated_Source\PSoC6\pdl\drivers/peripheral/gpio/cy_gpio.h ****     {
 637:Generated_Source\PSoC6\pdl\drivers/peripheral/gpio/cy_gpio.h ****         pinNum -= CY_GPIO_PRT_HALF;
 638:Generated_Source\PSoC6\pdl\drivers/peripheral/gpio/cy_gpio.h ****         returnValue = (portAddrHSIOM->PORT_SEL1 >> (pinNum << CY_GPIO_HSIOM_OFFSET)) & CY_GPIO_HSIO
 639:Generated_Source\PSoC6\pdl\drivers/peripheral/gpio/cy_gpio.h ****     }
 640:Generated_Source\PSoC6\pdl\drivers/peripheral/gpio/cy_gpio.h **** 
 641:Generated_Source\PSoC6\pdl\drivers/peripheral/gpio/cy_gpio.h ****     return (en_hsiom_sel_t)returnValue;
 642:Generated_Source\PSoC6\pdl\drivers/peripheral/gpio/cy_gpio.h **** }
 643:Generated_Source\PSoC6\pdl\drivers/peripheral/gpio/cy_gpio.h **** 
 644:Generated_Source\PSoC6\pdl\drivers/peripheral/gpio/cy_gpio.h **** 
 645:Generated_Source\PSoC6\pdl\drivers/peripheral/gpio/cy_gpio.h **** /*******************************************************************************
 646:Generated_Source\PSoC6\pdl\drivers/peripheral/gpio/cy_gpio.h **** * Function Name: Cy_GPIO_PortToAddr
 647:Generated_Source\PSoC6\pdl\drivers/peripheral/gpio/cy_gpio.h **** ****************************************************************************//**
 648:Generated_Source\PSoC6\pdl\drivers/peripheral/gpio/cy_gpio.h **** *
 649:Generated_Source\PSoC6\pdl\drivers/peripheral/gpio/cy_gpio.h **** * \brief Retrieves the port address based on the given port number.
 650:Generated_Source\PSoC6\pdl\drivers/peripheral/gpio/cy_gpio.h **** *
 651:Generated_Source\PSoC6\pdl\drivers/peripheral/gpio/cy_gpio.h **** * This is a helper function to calculate the port base address when given a port
 652:Generated_Source\PSoC6\pdl\drivers/peripheral/gpio/cy_gpio.h **** * number. It is to be used when pin access needs to be calculated at runtime.
 653:Generated_Source\PSoC6\pdl\drivers/peripheral/gpio/cy_gpio.h **** *
 654:Generated_Source\PSoC6\pdl\drivers/peripheral/gpio/cy_gpio.h **** * \param portNum
 655:Generated_Source\PSoC6\pdl\drivers/peripheral/gpio/cy_gpio.h **** * Port number
 656:Generated_Source\PSoC6\pdl\drivers/peripheral/gpio/cy_gpio.h **** *
 657:Generated_Source\PSoC6\pdl\drivers/peripheral/gpio/cy_gpio.h **** * \return
 658:Generated_Source\PSoC6\pdl\drivers/peripheral/gpio/cy_gpio.h **** * Base address of the port register structure
 659:Generated_Source\PSoC6\pdl\drivers/peripheral/gpio/cy_gpio.h **** *
 660:Generated_Source\PSoC6\pdl\drivers/peripheral/gpio/cy_gpio.h **** * \funcusage
 661:Generated_Source\PSoC6\pdl\drivers/peripheral/gpio/cy_gpio.h **** * \snippet gpio/gpio_v1_10_sut_01.cydsn/main_cm4.c snippet_Cy_GPIO_PortToAddr
 662:Generated_Source\PSoC6\pdl\drivers/peripheral/gpio/cy_gpio.h **** *
 663:Generated_Source\PSoC6\pdl\drivers/peripheral/gpio/cy_gpio.h **** *******************************************************************************/
 664:Generated_Source\PSoC6\pdl\drivers/peripheral/gpio/cy_gpio.h **** __STATIC_INLINE GPIO_PRT_Type* Cy_GPIO_PortToAddr(uint32_t portNum)
 665:Generated_Source\PSoC6\pdl\drivers/peripheral/gpio/cy_gpio.h **** {
 666:Generated_Source\PSoC6\pdl\drivers/peripheral/gpio/cy_gpio.h ****     GPIO_PRT_Type* base;
 667:Generated_Source\PSoC6\pdl\drivers/peripheral/gpio/cy_gpio.h ****     
 668:Generated_Source\PSoC6\pdl\drivers/peripheral/gpio/cy_gpio.h ****     if(portNum < (uint32_t)IOSS_GPIO_GPIO_PORT_NR)
 669:Generated_Source\PSoC6\pdl\drivers/peripheral/gpio/cy_gpio.h ****     {
 670:Generated_Source\PSoC6\pdl\drivers/peripheral/gpio/cy_gpio.h ****          base = (GPIO_PRT_Type *)(GPIO_BASE + (GPIO_PRT_SECTION_SIZE * portNum));
 671:Generated_Source\PSoC6\pdl\drivers/peripheral/gpio/cy_gpio.h ****     }
 672:Generated_Source\PSoC6\pdl\drivers/peripheral/gpio/cy_gpio.h ****     else
 673:Generated_Source\PSoC6\pdl\drivers/peripheral/gpio/cy_gpio.h ****     {
 674:Generated_Source\PSoC6\pdl\drivers/peripheral/gpio/cy_gpio.h ****         /* Error: Return default base address */
 675:Generated_Source\PSoC6\pdl\drivers/peripheral/gpio/cy_gpio.h ****         base = (GPIO_PRT_Type *)(GPIO_BASE);
 676:Generated_Source\PSoC6\pdl\drivers/peripheral/gpio/cy_gpio.h ****     }
 677:Generated_Source\PSoC6\pdl\drivers/peripheral/gpio/cy_gpio.h **** 
 678:Generated_Source\PSoC6\pdl\drivers/peripheral/gpio/cy_gpio.h ****     return (base);
 679:Generated_Source\PSoC6\pdl\drivers/peripheral/gpio/cy_gpio.h **** }
 680:Generated_Source\PSoC6\pdl\drivers/peripheral/gpio/cy_gpio.h **** 
 681:Generated_Source\PSoC6\pdl\drivers/peripheral/gpio/cy_gpio.h **** /** \} group_gpio_functions_init */
 682:Generated_Source\PSoC6\pdl\drivers/peripheral/gpio/cy_gpio.h **** 
 683:Generated_Source\PSoC6\pdl\drivers/peripheral/gpio/cy_gpio.h **** /**
 684:Generated_Source\PSoC6\pdl\drivers/peripheral/gpio/cy_gpio.h **** * \addtogroup group_gpio_functions_gpio
 685:Generated_Source\PSoC6\pdl\drivers/peripheral/gpio/cy_gpio.h **** * \{
 686:Generated_Source\PSoC6\pdl\drivers/peripheral/gpio/cy_gpio.h **** */
 687:Generated_Source\PSoC6\pdl\drivers/peripheral/gpio/cy_gpio.h **** 
ARM GAS  C:\Users\User\AppData\Local\Temp\ccsn8eRz.s 			page 16


 688:Generated_Source\PSoC6\pdl\drivers/peripheral/gpio/cy_gpio.h **** /*******************************************************************************
 689:Generated_Source\PSoC6\pdl\drivers/peripheral/gpio/cy_gpio.h **** * Function Name: Cy_GPIO_Read
 690:Generated_Source\PSoC6\pdl\drivers/peripheral/gpio/cy_gpio.h **** ****************************************************************************//**
 691:Generated_Source\PSoC6\pdl\drivers/peripheral/gpio/cy_gpio.h **** *
 692:Generated_Source\PSoC6\pdl\drivers/peripheral/gpio/cy_gpio.h **** * \brief Reads the current logic level on the input buffer of the pin.
 693:Generated_Source\PSoC6\pdl\drivers/peripheral/gpio/cy_gpio.h **** *
 694:Generated_Source\PSoC6\pdl\drivers/peripheral/gpio/cy_gpio.h **** * \param base
 695:Generated_Source\PSoC6\pdl\drivers/peripheral/gpio/cy_gpio.h **** * Pointer to the pin's port register base address
 696:Generated_Source\PSoC6\pdl\drivers/peripheral/gpio/cy_gpio.h **** *
 697:Generated_Source\PSoC6\pdl\drivers/peripheral/gpio/cy_gpio.h **** * \param pinNum
 698:Generated_Source\PSoC6\pdl\drivers/peripheral/gpio/cy_gpio.h **** * Position of the pin bit-field within the port register.
 699:Generated_Source\PSoC6\pdl\drivers/peripheral/gpio/cy_gpio.h **** * Bit position 8 is the routed pin through the port glitch filter.
 700:Generated_Source\PSoC6\pdl\drivers/peripheral/gpio/cy_gpio.h **** *
 701:Generated_Source\PSoC6\pdl\drivers/peripheral/gpio/cy_gpio.h **** * \return
 702:Generated_Source\PSoC6\pdl\drivers/peripheral/gpio/cy_gpio.h **** * Logic level present on the pin
 703:Generated_Source\PSoC6\pdl\drivers/peripheral/gpio/cy_gpio.h **** *
 704:Generated_Source\PSoC6\pdl\drivers/peripheral/gpio/cy_gpio.h **** * \funcusage
 705:Generated_Source\PSoC6\pdl\drivers/peripheral/gpio/cy_gpio.h **** * \snippet gpio/gpio_v1_10_sut_01.cydsn/main_cm4.c snippet_Cy_GPIO_Read
 706:Generated_Source\PSoC6\pdl\drivers/peripheral/gpio/cy_gpio.h **** *
 707:Generated_Source\PSoC6\pdl\drivers/peripheral/gpio/cy_gpio.h **** *******************************************************************************/
 708:Generated_Source\PSoC6\pdl\drivers/peripheral/gpio/cy_gpio.h **** __STATIC_INLINE uint32_t Cy_GPIO_Read(GPIO_PRT_Type* base, uint32_t pinNum)
 709:Generated_Source\PSoC6\pdl\drivers/peripheral/gpio/cy_gpio.h **** {
 710:Generated_Source\PSoC6\pdl\drivers/peripheral/gpio/cy_gpio.h ****     CY_ASSERT_L2(CY_GPIO_IS_FILTER_PIN_VALID(pinNum));
 711:Generated_Source\PSoC6\pdl\drivers/peripheral/gpio/cy_gpio.h ****     
 712:Generated_Source\PSoC6\pdl\drivers/peripheral/gpio/cy_gpio.h ****     return (base->IN >> (pinNum)) & CY_GPIO_IN_MASK;
 713:Generated_Source\PSoC6\pdl\drivers/peripheral/gpio/cy_gpio.h **** }
 714:Generated_Source\PSoC6\pdl\drivers/peripheral/gpio/cy_gpio.h **** 
 715:Generated_Source\PSoC6\pdl\drivers/peripheral/gpio/cy_gpio.h **** 
 716:Generated_Source\PSoC6\pdl\drivers/peripheral/gpio/cy_gpio.h **** /*******************************************************************************
 717:Generated_Source\PSoC6\pdl\drivers/peripheral/gpio/cy_gpio.h **** * Function Name: Cy_GPIO_Write
 718:Generated_Source\PSoC6\pdl\drivers/peripheral/gpio/cy_gpio.h **** ****************************************************************************//**
 719:Generated_Source\PSoC6\pdl\drivers/peripheral/gpio/cy_gpio.h **** *
 720:Generated_Source\PSoC6\pdl\drivers/peripheral/gpio/cy_gpio.h **** * \brief Write a logic 0 or logic 1 state to the output driver.
 721:Generated_Source\PSoC6\pdl\drivers/peripheral/gpio/cy_gpio.h **** *
 722:Generated_Source\PSoC6\pdl\drivers/peripheral/gpio/cy_gpio.h **** * This function should be used only for software driven pins. It does not have
 723:Generated_Source\PSoC6\pdl\drivers/peripheral/gpio/cy_gpio.h **** * any effect on peripheral driven pins.
 724:Generated_Source\PSoC6\pdl\drivers/peripheral/gpio/cy_gpio.h **** *
 725:Generated_Source\PSoC6\pdl\drivers/peripheral/gpio/cy_gpio.h **** * \param base
 726:Generated_Source\PSoC6\pdl\drivers/peripheral/gpio/cy_gpio.h **** * Pointer to the pin's port register base address
 727:Generated_Source\PSoC6\pdl\drivers/peripheral/gpio/cy_gpio.h **** *
 728:Generated_Source\PSoC6\pdl\drivers/peripheral/gpio/cy_gpio.h **** * \param pinNum
 729:Generated_Source\PSoC6\pdl\drivers/peripheral/gpio/cy_gpio.h **** * Position of the pin bit-field within the port register
 730:Generated_Source\PSoC6\pdl\drivers/peripheral/gpio/cy_gpio.h **** *
 731:Generated_Source\PSoC6\pdl\drivers/peripheral/gpio/cy_gpio.h **** * \param value
 732:Generated_Source\PSoC6\pdl\drivers/peripheral/gpio/cy_gpio.h **** * Logic level to drive out on the pin
 733:Generated_Source\PSoC6\pdl\drivers/peripheral/gpio/cy_gpio.h **** *
 734:Generated_Source\PSoC6\pdl\drivers/peripheral/gpio/cy_gpio.h **** * \return
 735:Generated_Source\PSoC6\pdl\drivers/peripheral/gpio/cy_gpio.h **** * void
 736:Generated_Source\PSoC6\pdl\drivers/peripheral/gpio/cy_gpio.h **** *
 737:Generated_Source\PSoC6\pdl\drivers/peripheral/gpio/cy_gpio.h **** * \funcusage
 738:Generated_Source\PSoC6\pdl\drivers/peripheral/gpio/cy_gpio.h **** * \snippet gpio/gpio_v1_10_sut_01.cydsn/main_cm4.c snippet_Cy_GPIO_Write
 739:Generated_Source\PSoC6\pdl\drivers/peripheral/gpio/cy_gpio.h **** *
 740:Generated_Source\PSoC6\pdl\drivers/peripheral/gpio/cy_gpio.h **** *******************************************************************************/
 741:Generated_Source\PSoC6\pdl\drivers/peripheral/gpio/cy_gpio.h **** __STATIC_INLINE void Cy_GPIO_Write(GPIO_PRT_Type* base, uint32_t pinNum, uint32_t value)
 742:Generated_Source\PSoC6\pdl\drivers/peripheral/gpio/cy_gpio.h **** {
 743:Generated_Source\PSoC6\pdl\drivers/peripheral/gpio/cy_gpio.h ****     CY_ASSERT_L2(CY_GPIO_IS_PIN_VALID(pinNum));
 744:Generated_Source\PSoC6\pdl\drivers/peripheral/gpio/cy_gpio.h ****     CY_ASSERT_L2(CY_GPIO_IS_VALUE_VALID(value));
ARM GAS  C:\Users\User\AppData\Local\Temp\ccsn8eRz.s 			page 17


 745:Generated_Source\PSoC6\pdl\drivers/peripheral/gpio/cy_gpio.h **** 
 746:Generated_Source\PSoC6\pdl\drivers/peripheral/gpio/cy_gpio.h ****     /* Thread-safe: Directly access the pin registers instead of base->OUT */
 747:Generated_Source\PSoC6\pdl\drivers/peripheral/gpio/cy_gpio.h ****     if(0UL == value)
 748:Generated_Source\PSoC6\pdl\drivers/peripheral/gpio/cy_gpio.h ****     {
 749:Generated_Source\PSoC6\pdl\drivers/peripheral/gpio/cy_gpio.h ****         base->OUT_CLR = CY_GPIO_OUT_MASK << pinNum;
  49              		.loc 2 749 0
  50 000a 0F4C     		ldr	r4, .L5
  51 000c 0827     		movs	r7, #8
  52 000e 6760     		str	r7, [r4, #4]
  53              	.LVL2:
  54              	.LBE59:
  55              	.LBE58:
 121:pervasive_eink_hardware_driver.c ****     /* Pull the chip select line LOW to begin communication */
 122:pervasive_eink_hardware_driver.c ****     CY_EINK_CsLow;
 123:pervasive_eink_hardware_driver.c ****     /* Send the header of register address index */
 124:pervasive_eink_hardware_driver.c ****     Cy_EINK_WriteSPI(PV_EINK_REG_INDEX_HEADER);
  56              		.loc 1 124 0
  57 0010 7020     		movs	r0, #112
  58              	.LVL3:
  59 0012 FFF7FEFF 		bl	Cy_EINK_WriteSPI
  60              	.LVL4:
 125:pervasive_eink_hardware_driver.c ****     /* Send the register address */
 126:pervasive_eink_hardware_driver.c ****     Cy_EINK_WriteSPI(regAddr);
  61              		.loc 1 126 0
  62 0016 4046     		mov	r0, r8
  63 0018 FFF7FEFF 		bl	Cy_EINK_WriteSPI
  64              	.LVL5:
  65              	.LBB60:
  66              	.LBB61:
 750:Generated_Source\PSoC6\pdl\drivers/peripheral/gpio/cy_gpio.h ****     }
 751:Generated_Source\PSoC6\pdl\drivers/peripheral/gpio/cy_gpio.h ****     else
 752:Generated_Source\PSoC6\pdl\drivers/peripheral/gpio/cy_gpio.h ****     {
 753:Generated_Source\PSoC6\pdl\drivers/peripheral/gpio/cy_gpio.h ****         base->OUT_SET = CY_GPIO_OUT_MASK << pinNum;
  67              		.loc 2 753 0
  68 001c A760     		str	r7, [r4, #8]
  69              	.LVL6:
  70              	.LBE61:
  71              	.LBE60:
  72              	.LBB62:
  73              	.LBB63:
 749:Generated_Source\PSoC6\pdl\drivers/peripheral/gpio/cy_gpio.h ****     }
  74              		.loc 2 749 0
  75 001e 6760     		str	r7, [r4, #4]
  76              	.LVL7:
  77              	.LBE63:
  78              	.LBE62:
 127:pervasive_eink_hardware_driver.c ****     /* Push the chip select line HIGH to end communication */
 128:pervasive_eink_hardware_driver.c ****     CY_EINK_CsHigh;
 129:pervasive_eink_hardware_driver.c ****     
 130:pervasive_eink_hardware_driver.c ****     /* Wait for 10uS before the next transmission */
 131:pervasive_eink_hardware_driver.c ****     CY_EINK_Wait10uS;
 132:pervasive_eink_hardware_driver.c ****     
 133:pervasive_eink_hardware_driver.c ****     /* Pull the chip select line LOW to begin communication */
 134:pervasive_eink_hardware_driver.c ****     CY_EINK_CsLow;
 135:pervasive_eink_hardware_driver.c ****     /* Send the header of data write index */
 136:pervasive_eink_hardware_driver.c ****     Cy_EINK_WriteSPI(PV_EINK_REG_DATA_WRITE);
  79              		.loc 1 136 0
ARM GAS  C:\Users\User\AppData\Local\Temp\ccsn8eRz.s 			page 18


  80 0020 7220     		movs	r0, #114
  81 0022 FFF7FEFF 		bl	Cy_EINK_WriteSPI
  82              	.LVL8:
 137:pervasive_eink_hardware_driver.c ****     /* Send the array of data */
 138:pervasive_eink_hardware_driver.c ****     while (dataLength--)
  83              		.loc 1 138 0
  84 0026 05E0     		b	.L2
  85              	.LVL9:
  86              	.L3:
 139:pervasive_eink_hardware_driver.c ****     {
 140:pervasive_eink_hardware_driver.c ****         Cy_EINK_WriteSPI(*data++);
  87              		.loc 1 140 0
  88 0028 771C     		adds	r7, r6, #1
  89              	.LVL10:
  90 002a 3078     		ldrb	r0, [r6]	@ zero_extendqisi2
  91 002c FFF7FEFF 		bl	Cy_EINK_WriteSPI
  92              	.LVL11:
 138:pervasive_eink_hardware_driver.c ****     {
  93              		.loc 1 138 0
  94 0030 2546     		mov	r5, r4
  95              		.loc 1 140 0
  96 0032 3E46     		mov	r6, r7
  97              	.LVL12:
  98              	.L2:
 138:pervasive_eink_hardware_driver.c ****     {
  99              		.loc 1 138 0
 100 0034 6B1E     		subs	r3, r5, #1
 101 0036 9CB2     		uxth	r4, r3
 102              	.LVL13:
 103 0038 002D     		cmp	r5, #0
 104 003a F5D1     		bne	.L3
 105              	.LVL14:
 106              	.LBB64:
 107              	.LBB65:
 108              		.loc 2 753 0
 109 003c 0822     		movs	r2, #8
 110 003e 024B     		ldr	r3, .L5
 111 0040 9A60     		str	r2, [r3, #8]
 112              	.LVL15:
 113 0042 BDE8F081 		pop	{r4, r5, r6, r7, r8, pc}
 114              	.LVL16:
 115              	.L6:
 116 0046 00BF     		.align	2
 117              	.L5:
 118 0048 00063240 		.word	1077020160
 119              	.LBE65:
 120              	.LBE64:
 121              		.cfi_endproc
 122              	.LFE647:
 123              		.size	Pv_EINK_SendData, .-Pv_EINK_SendData
 124              		.section	.text.Pv_EINK_SendByte,"ax",%progbits
 125              		.align	2
 126              		.global	Pv_EINK_SendByte
 127              		.thumb
 128              		.thumb_func
 129              		.type	Pv_EINK_SendByte, %function
 130              	Pv_EINK_SendByte:
ARM GAS  C:\Users\User\AppData\Local\Temp\ccsn8eRz.s 			page 19


 131              	.LFB648:
 141:pervasive_eink_hardware_driver.c ****     }
 142:pervasive_eink_hardware_driver.c ****     /* Push the chip select line HIGH to end communication */
 143:pervasive_eink_hardware_driver.c ****     CY_EINK_CsHigh;
 144:pervasive_eink_hardware_driver.c **** }
 145:pervasive_eink_hardware_driver.c **** 
 146:pervasive_eink_hardware_driver.c **** /*******************************************************************************
 147:pervasive_eink_hardware_driver.c **** * Function Name: void Pv_EINK_SendByte(uint8_t regAddr, uint8_t data)
 148:pervasive_eink_hardware_driver.c **** ********************************************************************************
 149:pervasive_eink_hardware_driver.c **** *
 150:pervasive_eink_hardware_driver.c **** * Summary: Sends a byte of data to the E-INK driver.
 151:pervasive_eink_hardware_driver.c **** *
 152:pervasive_eink_hardware_driver.c **** * Parameters:
 153:pervasive_eink_hardware_driver.c **** *  uint8_t regAddr: Display driver register address
 154:pervasive_eink_hardware_driver.c **** *  uint8_t data   : Data byte that will be sent to the driver
 155:pervasive_eink_hardware_driver.c **** *
 156:pervasive_eink_hardware_driver.c **** * Return:
 157:pervasive_eink_hardware_driver.c **** *  None
 158:pervasive_eink_hardware_driver.c **** *
 159:pervasive_eink_hardware_driver.c **** * Side Effects:
 160:pervasive_eink_hardware_driver.c **** *  None
 161:pervasive_eink_hardware_driver.c **** *******************************************************************************/
 162:pervasive_eink_hardware_driver.c **** void Pv_EINK_SendByte(uint8_t regAddr, uint8_t data)
 163:pervasive_eink_hardware_driver.c **** {
 132              		.loc 1 163 0
 133              		.cfi_startproc
 134              		@ args = 0, pretend = 0, frame = 8
 135              		@ frame_needed = 0, uses_anonymous_args = 0
 136              	.LVL17:
 137 0000 00B5     		push	{lr}
 138              		.cfi_def_cfa_offset 4
 139              		.cfi_offset 14, -4
 140 0002 83B0     		sub	sp, sp, #12
 141              		.cfi_def_cfa_offset 16
 142 0004 02AB     		add	r3, sp, #8
 143 0006 03F8011D 		strb	r1, [r3, #-1]!
 164:pervasive_eink_hardware_driver.c ****     /* Send a single byte of data */
 165:pervasive_eink_hardware_driver.c ****     Pv_EINK_SendData(regAddr, &data, CY_EINK_SINGLE_BYTE);
 144              		.loc 1 165 0
 145 000a 0122     		movs	r2, #1
 146 000c 1946     		mov	r1, r3
 147              	.LVL18:
 148 000e FFF7FEFF 		bl	Pv_EINK_SendData
 149              	.LVL19:
 166:pervasive_eink_hardware_driver.c **** }
 150              		.loc 1 166 0
 151 0012 03B0     		add	sp, sp, #12
 152              		.cfi_def_cfa_offset 4
 153              		@ sp needed
 154 0014 5DF804FB 		ldr	pc, [sp], #4
 155              		.cfi_endproc
 156              	.LFE648:
 157              		.size	Pv_EINK_SendByte, .-Pv_EINK_SendByte
 158              		.section	.text.Pv_EINK_ReadByte,"ax",%progbits
 159              		.align	2
 160              		.global	Pv_EINK_ReadByte
 161              		.thumb
ARM GAS  C:\Users\User\AppData\Local\Temp\ccsn8eRz.s 			page 20


 162              		.thumb_func
 163              		.type	Pv_EINK_ReadByte, %function
 164              	Pv_EINK_ReadByte:
 165              	.LFB649:
 167:pervasive_eink_hardware_driver.c **** 
 168:pervasive_eink_hardware_driver.c **** /*******************************************************************************
 169:pervasive_eink_hardware_driver.c **** * Function Name: uint8_t Pv_EINK_ReadByte(uint8_t regAddr, uint8_t data)
 170:pervasive_eink_hardware_driver.c **** ********************************************************************************
 171:pervasive_eink_hardware_driver.c **** *
 172:pervasive_eink_hardware_driver.c **** * Summary: Sends a read command to the E-INK driver and receives a byte of data
 173:pervasive_eink_hardware_driver.c **** *  from the driver.
 174:pervasive_eink_hardware_driver.c **** *
 175:pervasive_eink_hardware_driver.c **** * Parameters:
 176:pervasive_eink_hardware_driver.c **** *  uint8_t regAddr: Display driver register address
 177:pervasive_eink_hardware_driver.c **** *  uint8_t data   : Data command that will be sent to the driver
 178:pervasive_eink_hardware_driver.c **** *
 179:pervasive_eink_hardware_driver.c **** * Return:
 180:pervasive_eink_hardware_driver.c **** *  uint8_t :  Data received from the display driver
 181:pervasive_eink_hardware_driver.c **** *
 182:pervasive_eink_hardware_driver.c **** * Side Effects:
 183:pervasive_eink_hardware_driver.c **** *  None
 184:pervasive_eink_hardware_driver.c **** *******************************************************************************/
 185:pervasive_eink_hardware_driver.c **** uint8_t Pv_EINK_ReadByte(uint8_t regAddr, uint8_t data)
 186:pervasive_eink_hardware_driver.c **** {
 166              		.loc 1 186 0
 167              		.cfi_startproc
 168              		@ args = 0, pretend = 0, frame = 0
 169              		@ frame_needed = 0, uses_anonymous_args = 0
 170              	.LVL20:
 171 0000 F8B5     		push	{r3, r4, r5, r6, r7, lr}
 172              		.cfi_def_cfa_offset 24
 173              		.cfi_offset 3, -24
 174              		.cfi_offset 4, -20
 175              		.cfi_offset 5, -16
 176              		.cfi_offset 6, -12
 177              		.cfi_offset 7, -8
 178              		.cfi_offset 14, -4
 179 0002 0746     		mov	r7, r0
 180 0004 0E46     		mov	r6, r1
 181              	.LVL21:
 182              	.LBB66:
 183              	.LBB67:
 749:Generated_Source\PSoC6\pdl\drivers/peripheral/gpio/cy_gpio.h ****     }
 184              		.loc 2 749 0
 185 0006 094C     		ldr	r4, .L11
 186 0008 0825     		movs	r5, #8
 187 000a 6560     		str	r5, [r4, #4]
 188              	.LVL22:
 189              	.LBE67:
 190              	.LBE66:
 187:pervasive_eink_hardware_driver.c ****     /* Variable that stores received data */
 188:pervasive_eink_hardware_driver.c ****     uint8_t dataRead;
 189:pervasive_eink_hardware_driver.c ****     
 190:pervasive_eink_hardware_driver.c ****     /* Pull the chip select line LOW to begin communication */
 191:pervasive_eink_hardware_driver.c ****     CY_EINK_CsLow;
 192:pervasive_eink_hardware_driver.c ****     /* Send the header of register address index */
 193:pervasive_eink_hardware_driver.c ****     Cy_EINK_WriteSPI(PV_EINK_REG_INDEX_HEADER);
ARM GAS  C:\Users\User\AppData\Local\Temp\ccsn8eRz.s 			page 21


 191              		.loc 1 193 0
 192 000c 7020     		movs	r0, #112
 193              	.LVL23:
 194 000e FFF7FEFF 		bl	Cy_EINK_WriteSPI
 195              	.LVL24:
 194:pervasive_eink_hardware_driver.c ****     /* Send the register address */
 195:pervasive_eink_hardware_driver.c ****     Cy_EINK_WriteSPI(regAddr);
 196              		.loc 1 195 0
 197 0012 3846     		mov	r0, r7
 198 0014 FFF7FEFF 		bl	Cy_EINK_WriteSPI
 199              	.LVL25:
 200              	.LBB68:
 201              	.LBB69:
 202              		.loc 2 753 0
 203 0018 A560     		str	r5, [r4, #8]
 204              	.LVL26:
 205              	.LBE69:
 206              	.LBE68:
 207              	.LBB70:
 208              	.LBB71:
 749:Generated_Source\PSoC6\pdl\drivers/peripheral/gpio/cy_gpio.h ****     }
 209              		.loc 2 749 0
 210 001a 6560     		str	r5, [r4, #4]
 211              	.LVL27:
 212              	.LBE71:
 213              	.LBE70:
 196:pervasive_eink_hardware_driver.c ****     /* Push the chip select line HIGH to end communication */
 197:pervasive_eink_hardware_driver.c ****     CY_EINK_CsHigh;
 198:pervasive_eink_hardware_driver.c ****     
 199:pervasive_eink_hardware_driver.c ****     /* Wait for 10uS before the next transmission */
 200:pervasive_eink_hardware_driver.c ****     CY_EINK_Wait10uS;
 201:pervasive_eink_hardware_driver.c ****     
 202:pervasive_eink_hardware_driver.c ****     /* Pull the chip select line LOW to begin communication */
 203:pervasive_eink_hardware_driver.c ****     CY_EINK_CsLow;
 204:pervasive_eink_hardware_driver.c ****     /* Send the header of data read index */
 205:pervasive_eink_hardware_driver.c ****     Cy_EINK_WriteSPI(PV_EINK_REG_DATA_READ);
 214              		.loc 1 205 0
 215 001c 7320     		movs	r0, #115
 216 001e FFF7FEFF 		bl	Cy_EINK_WriteSPI
 217              	.LVL28:
 206:pervasive_eink_hardware_driver.c ****     /* Send the command to receive a byte of data */
 207:pervasive_eink_hardware_driver.c ****     dataRead = Cy_EINK_ReadSPI(data);
 218              		.loc 1 207 0
 219 0022 3046     		mov	r0, r6
 220 0024 FFF7FEFF 		bl	Cy_EINK_ReadSPI
 221              	.LVL29:
 222              	.LBB72:
 223              	.LBB73:
 224              		.loc 2 753 0
 225 0028 A560     		str	r5, [r4, #8]
 226              	.LVL30:
 227              	.LBE73:
 228              	.LBE72:
 208:pervasive_eink_hardware_driver.c ****     /* Push the chip select line HIGH to end communication*/
 209:pervasive_eink_hardware_driver.c ****     CY_EINK_CsHigh;
 210:pervasive_eink_hardware_driver.c ****     
 211:pervasive_eink_hardware_driver.c ****     /* Return the received data */
ARM GAS  C:\Users\User\AppData\Local\Temp\ccsn8eRz.s 			page 22


 212:pervasive_eink_hardware_driver.c ****     return(dataRead);
 213:pervasive_eink_hardware_driver.c **** }
 229              		.loc 1 213 0
 230 002a F8BD     		pop	{r3, r4, r5, r6, r7, pc}
 231              	.L12:
 232              		.align	2
 233              	.L11:
 234 002c 00063240 		.word	1077020160
 235              		.cfi_endproc
 236              	.LFE649:
 237              		.size	Pv_EINK_ReadByte, .-Pv_EINK_ReadByte
 238              		.section	.text.Pv_EINK_Init,"ax",%progbits
 239              		.align	2
 240              		.global	Pv_EINK_Init
 241              		.thumb
 242              		.thumb_func
 243              		.type	Pv_EINK_Init, %function
 244              	Pv_EINK_Init:
 245              	.LFB650:
 214:pervasive_eink_hardware_driver.c **** 
 215:pervasive_eink_hardware_driver.c **** /*******************************************************************************
 216:pervasive_eink_hardware_driver.c **** * Function Name: void  Pv_EINK_Init()
 217:pervasive_eink_hardware_driver.c **** ********************************************************************************
 218:pervasive_eink_hardware_driver.c **** *
 219:pervasive_eink_hardware_driver.c **** * Summary: Initialize the E-INK display hardware and associated PSoC components.
 220:pervasive_eink_hardware_driver.c **** *
 221:pervasive_eink_hardware_driver.c **** * Parameters:
 222:pervasive_eink_hardware_driver.c **** *  None
 223:pervasive_eink_hardware_driver.c **** *
 224:pervasive_eink_hardware_driver.c **** * Return:
 225:pervasive_eink_hardware_driver.c **** *  None
 226:pervasive_eink_hardware_driver.c **** *
 227:pervasive_eink_hardware_driver.c **** * Side Effects:
 228:pervasive_eink_hardware_driver.c **** *  None
 229:pervasive_eink_hardware_driver.c **** *******************************************************************************/
 230:pervasive_eink_hardware_driver.c **** void Pv_EINK_Init(void)
 231:pervasive_eink_hardware_driver.c **** {
 246              		.loc 1 231 0
 247              		.cfi_startproc
 248              		@ args = 0, pretend = 0, frame = 0
 249              		@ frame_needed = 0, uses_anonymous_args = 0
 250 0000 38B5     		push	{r3, r4, r5, lr}
 251              		.cfi_def_cfa_offset 16
 252              		.cfi_offset 3, -16
 253              		.cfi_offset 4, -12
 254              		.cfi_offset 5, -8
 255              		.cfi_offset 14, -4
 256              	.LVL31:
 257              	.LBB74:
 258              	.LBB75:
 749:Generated_Source\PSoC6\pdl\drivers/peripheral/gpio/cy_gpio.h ****     }
 259              		.loc 2 749 0
 260 0002 0425     		movs	r5, #4
 261 0004 084B     		ldr	r3, .L15
 262 0006 5D60     		str	r5, [r3, #4]
 263              	.LVL32:
 264              	.LBE75:
ARM GAS  C:\Users\User\AppData\Local\Temp\ccsn8eRz.s 			page 23


 265              	.LBE74:
 266              	.LBB76:
 267              	.LBB77:
 268 0008 084C     		ldr	r4, .L15+4
 269 000a 4023     		movs	r3, #64
 270 000c 6360     		str	r3, [r4, #4]
 271              	.LVL33:
 272              	.LBE77:
 273              	.LBE76:
 274              	.LBB78:
 275              	.LBB79:
 276 000e 1023     		movs	r3, #16
 277 0010 6360     		str	r3, [r4, #4]
 278              	.LVL34:
 279              	.LBE79:
 280              	.LBE78:
 232:pervasive_eink_hardware_driver.c ****     /* Enable the level translator located between PSoC and the E-INK display */
 233:pervasive_eink_hardware_driver.c ****     CY_EINK_EnableIO;
 234:pervasive_eink_hardware_driver.c ****     /* Pull the Border pin to LOW */
 235:pervasive_eink_hardware_driver.c ****     CY_EINK_BorderLow;
 236:pervasive_eink_hardware_driver.c ****     /* Disable the load switch connected to E-INK display's Vcc */
 237:pervasive_eink_hardware_driver.c ****     CY_EINK_TurnOffVcc;
 238:pervasive_eink_hardware_driver.c ****     
 239:pervasive_eink_hardware_driver.c ****     /* Initialize the PSoC SPI */
 240:pervasive_eink_hardware_driver.c ****     Cy_EINK_InitSPI();
 281              		.loc 1 240 0
 282 0012 FFF7FEFF 		bl	Cy_EINK_InitSPI
 283              	.LVL35:
 284              	.LBB80:
 285              	.LBB81:
 749:Generated_Source\PSoC6\pdl\drivers/peripheral/gpio/cy_gpio.h ****     }
 286              		.loc 2 749 0
 287 0016 0822     		movs	r2, #8
 288 0018 054B     		ldr	r3, .L15+8
 289 001a 5A60     		str	r2, [r3, #4]
 290              	.LVL36:
 291              	.LBE81:
 292              	.LBE80:
 293              	.LBB82:
 294              	.LBB83:
 295 001c 6560     		str	r5, [r4, #4]
 296              	.LVL37:
 297              	.LBE83:
 298              	.LBE82:
 299              	.LBB84:
 300              	.LBB85:
 301 001e 2023     		movs	r3, #32
 302 0020 6360     		str	r3, [r4, #4]
 303              	.LVL38:
 304              	.LBE85:
 305              	.LBE84:
 241:pervasive_eink_hardware_driver.c ****     /* Pull the chip select, reset and discharge pins to LOW */
 242:pervasive_eink_hardware_driver.c ****     CY_EINK_CsLow;
 243:pervasive_eink_hardware_driver.c ****     CY_EINK_RstLow;
 244:pervasive_eink_hardware_driver.c ****     CY_EINK_DischargeLow;
 245:pervasive_eink_hardware_driver.c ****     
 246:pervasive_eink_hardware_driver.c ****     /* Initialize the E-INK display Timer */
ARM GAS  C:\Users\User\AppData\Local\Temp\ccsn8eRz.s 			page 24


 247:pervasive_eink_hardware_driver.c ****     Cy_EINK_TimerInit();
 306              		.loc 1 247 0
 307 0022 FFF7FEFF 		bl	Cy_EINK_TimerInit
 308              	.LVL39:
 309 0026 38BD     		pop	{r3, r4, r5, pc}
 310              	.L16:
 311              		.align	2
 312              	.L15:
 313 0028 00003240 		.word	1077018624
 314 002c 80023240 		.word	1077019264
 315 0030 00063240 		.word	1077020160
 316              		.cfi_endproc
 317              	.LFE650:
 318              		.size	Pv_EINK_Init, .-Pv_EINK_Init
 319              		.section	.text.Pv_EINK_InitDriver,"ax",%progbits
 320              		.align	2
 321              		.global	Pv_EINK_InitDriver
 322              		.thumb
 323              		.thumb_func
 324              		.type	Pv_EINK_InitDriver, %function
 325              	Pv_EINK_InitDriver:
 326              	.LFB651:
 248:pervasive_eink_hardware_driver.c **** }
 249:pervasive_eink_hardware_driver.c **** 
 250:pervasive_eink_hardware_driver.c **** /*******************************************************************************
 251:pervasive_eink_hardware_driver.c **** * Function Name: Cy_EINK_Status PV_EINK_InitDriver(void)
 252:pervasive_eink_hardware_driver.c **** ********************************************************************************
 253:pervasive_eink_hardware_driver.c **** *
 254:pervasive_eink_hardware_driver.c **** * Summary: Initialize E-INK Driver. For detailed flow and description, please 
 255:pervasive_eink_hardware_driver.c **** * refer to the driver G2 document Section 4.
 256:pervasive_eink_hardware_driver.c **** *
 257:pervasive_eink_hardware_driver.c **** * Parameters:
 258:pervasive_eink_hardware_driver.c **** *  None
 259:pervasive_eink_hardware_driver.c **** *
 260:pervasive_eink_hardware_driver.c **** * Return:
 261:pervasive_eink_hardware_driver.c **** *  pv_eink_status_t: Status of the initialization
 262:pervasive_eink_hardware_driver.c **** *
 263:pervasive_eink_hardware_driver.c **** * Side Effects:
 264:pervasive_eink_hardware_driver.c **** *  None
 265:pervasive_eink_hardware_driver.c **** *******************************************************************************/
 266:pervasive_eink_hardware_driver.c **** pv_eink_status_t Pv_EINK_InitDriver(void)
 267:pervasive_eink_hardware_driver.c **** {
 327              		.loc 1 267 0
 328              		.cfi_startproc
 329              		@ args = 0, pretend = 0, frame = 0
 330              		@ frame_needed = 0, uses_anonymous_args = 0
 331 0000 10B5     		push	{r4, lr}
 332              		.cfi_def_cfa_offset 8
 333              		.cfi_offset 4, -8
 334              		.cfi_offset 14, -4
 335              	.LVL40:
 268:pervasive_eink_hardware_driver.c ****     /* Variable used to count the number of loops */
 269:pervasive_eink_hardware_driver.c ****     uint16_t    loopCounter = 0;
 270:pervasive_eink_hardware_driver.c ****     
 271:pervasive_eink_hardware_driver.c ****     /* Clear the line buffer with all zeros */
 272:pervasive_eink_hardware_driver.c ****     memset(&driverPacket.lineBuffer, 0, sizeof(driverPacket.lineBuffer)) ;
 336              		.loc 1 272 0
ARM GAS  C:\Users\User\AppData\Local\Temp\ccsn8eRz.s 			page 25


 337 0002 434C     		ldr	r4, .L30
 338 0004 6F22     		movs	r2, #111
 339 0006 0021     		movs	r1, #0
 340 0008 2046     		mov	r0, r4
 341 000a FFF7FEFF 		bl	memset
 342              	.LVL41:
 273:pervasive_eink_hardware_driver.c ****     
 274:pervasive_eink_hardware_driver.c ****     /* Initialize the even data, odd data and scan data pointers */
 275:pervasive_eink_hardware_driver.c ****     dataLineEven = &driverPacket.lineDataBySize.even[0];
 343              		.loc 1 275 0
 344 000e 631C     		adds	r3, r4, #1
 345 0010 2367     		str	r3, [r4, #112]
 276:pervasive_eink_hardware_driver.c ****     dataLineOdd  = &driverPacket.lineDataBySize.odd[0];
 346              		.loc 1 276 0
 347 0012 04F14E03 		add	r3, r4, #78
 348 0016 6367     		str	r3, [r4, #116]
 277:pervasive_eink_hardware_driver.c ****     dataLineScan = &driverPacket.lineDataBySize.scan[0];
 349              		.loc 1 277 0
 350 0018 04F12203 		add	r3, r4, #34
 351 001c A367     		str	r3, [r4, #120]
 278:pervasive_eink_hardware_driver.c ****     
 279:pervasive_eink_hardware_driver.c ****     /* Initialize and start the E-INK Timer   */
 280:pervasive_eink_hardware_driver.c ****     Cy_EINK_TimerInit();
 352              		.loc 1 280 0
 353 001e FFF7FEFF 		bl	Cy_EINK_TimerInit
 354              	.LVL42:
 281:pervasive_eink_hardware_driver.c ****         
 282:pervasive_eink_hardware_driver.c ****     /* Check if E-INK driver is busy */
 283:pervasive_eink_hardware_driver.c ****     while (Cy_EINK_IsBusy())
 355              		.loc 1 283 0
 356 0022 03E0     		b	.L18
 357              	.L20:
 284:pervasive_eink_hardware_driver.c ****     {
 285:pervasive_eink_hardware_driver.c ****         /* If the E-INK driver is busy for more than maximum allowed time,
 286:pervasive_eink_hardware_driver.c ****            return an error message */
 287:pervasive_eink_hardware_driver.c ****         if (Cy_EINK_GetTimeTick() == PV_EINK_MAX_PV_EINK_BUSY_TIME)
 358              		.loc 1 287 0
 359 0024 FFF7FEFF 		bl	Cy_EINK_GetTimeTick
 360              	.LVL43:
 361 0028 0428     		cmp	r0, #4
 362 002a 68D0     		beq	.L24
 363              	.L18:
 283:pervasive_eink_hardware_driver.c ****     {
 364              		.loc 1 283 0
 365 002c FFF7FEFF 		bl	Cy_EINK_IsBusy
 366              	.LVL44:
 367 0030 0028     		cmp	r0, #0
 368 0032 F7D1     		bne	.L20
 288:pervasive_eink_hardware_driver.c ****         {
 289:pervasive_eink_hardware_driver.c ****             return(PV_EINK_ERROR_BUSY);
 290:pervasive_eink_hardware_driver.c ****         }
 291:pervasive_eink_hardware_driver.c ****     }
 292:pervasive_eink_hardware_driver.c ****     
 293:pervasive_eink_hardware_driver.c ****     /* Stop the E-INK Timer */
 294:pervasive_eink_hardware_driver.c ****     Cy_EINK_TimerStop();
 369              		.loc 1 294 0
 370 0034 FFF7FEFF 		bl	Cy_EINK_TimerStop
ARM GAS  C:\Users\User\AppData\Local\Temp\ccsn8eRz.s 			page 26


 371              	.LVL45:
 295:pervasive_eink_hardware_driver.c ****     
 296:pervasive_eink_hardware_driver.c ****     /* Check the driver ID */
 297:pervasive_eink_hardware_driver.c ****     if ((Pv_EINK_ReadByte(PV_EINK_DRIVER_ID_COMMAND_INDEX, 
 372              		.loc 1 297 0
 373 0038 0021     		movs	r1, #0
 374 003a 7220     		movs	r0, #114
 375 003c FFF7FEFF 		bl	Pv_EINK_ReadByte
 376              	.LVL46:
 377 0040 00F00F00 		and	r0, r0, #15
 378 0044 0228     		cmp	r0, #2
 379 0046 5CD1     		bne	.L25
 298:pervasive_eink_hardware_driver.c ****                           PV_EINK_DRIVER_ID_COMMAND_DATA)
 299:pervasive_eink_hardware_driver.c ****                           & PV_EINK_DRIVER_ID_MASK)
 300:pervasive_eink_hardware_driver.c ****                           != PV_EINK_DRIVER_ID_CHECK)
 301:pervasive_eink_hardware_driver.c ****     {
 302:pervasive_eink_hardware_driver.c ****         /* Return an error message if incorrect driver ID is received */
 303:pervasive_eink_hardware_driver.c ****         return(PV_EINK_ERROR_ID);
 304:pervasive_eink_hardware_driver.c ****     }
 305:pervasive_eink_hardware_driver.c ****     /* Disable OE */
 306:pervasive_eink_hardware_driver.c ****     Pv_EINK_SendByte(PV_EINK_DISABLE_OE_COMMAND_INDEX, 
 380              		.loc 1 306 0
 381 0048 4021     		movs	r1, #64
 382 004a FFF7FEFF 		bl	Pv_EINK_SendByte
 383              	.LVL47:
 307:pervasive_eink_hardware_driver.c ****                      PV_EINK_DISABLE_OE_COMMAND_DATA);
 308:pervasive_eink_hardware_driver.c ****     
 309:pervasive_eink_hardware_driver.c ****     /* Check Breakage */
 310:pervasive_eink_hardware_driver.c ****     if ((Pv_EINK_ReadByte(PV_EINK_TEST_BREAKAGE_COMMAND_INDEX,
 384              		.loc 1 310 0
 385 004e 0021     		movs	r1, #0
 386 0050 0F20     		movs	r0, #15
 387 0052 FFF7FEFF 		bl	Pv_EINK_ReadByte
 388              	.LVL48:
 389 0056 10F0800F 		tst	r0, #128
 390 005a 54D0     		beq	.L26
 311:pervasive_eink_hardware_driver.c ****                           PV_EINK_TEST_BREAKAGE_COMMAND_DATA) & 
 312:pervasive_eink_hardware_driver.c ****                           PV_EINK_TEST_BREAKAGE_MASK)
 313:pervasive_eink_hardware_driver.c ****                           != PV_EINK_TEST_BREAKAGE_CHECK)
 314:pervasive_eink_hardware_driver.c ****     {
 315:pervasive_eink_hardware_driver.c ****         /* Send the error message for breakage */
 316:pervasive_eink_hardware_driver.c ****         return(PV_EINK_ERROR_BREAKAGE);
 317:pervasive_eink_hardware_driver.c ****     }
 318:pervasive_eink_hardware_driver.c ****     /* Power Saving Mode */
 319:pervasive_eink_hardware_driver.c ****     Pv_EINK_SendByte(PV_EINK_PWR_SAVING_COMMAND_INDEX, 
 391              		.loc 1 319 0
 392 005c 0221     		movs	r1, #2
 393 005e 0B20     		movs	r0, #11
 394 0060 FFF7FEFF 		bl	Pv_EINK_SendByte
 395              	.LVL49:
 320:pervasive_eink_hardware_driver.c ****                   PV_EINK_PWR1_SAVING_COMMAND_DATA);
 321:pervasive_eink_hardware_driver.c ****     
 322:pervasive_eink_hardware_driver.c ****     /* Channel Select */
 323:pervasive_eink_hardware_driver.c ****     Pv_EINK_SendData(PV_EINK_CHANNEL_SEL_COMMAND_INDEX, 
 396              		.loc 1 323 0
 397 0064 0822     		movs	r2, #8
 398 0066 2B49     		ldr	r1, .L30+4
ARM GAS  C:\Users\User\AppData\Local\Temp\ccsn8eRz.s 			page 27


 399 0068 0120     		movs	r0, #1
 400 006a FFF7FEFF 		bl	Pv_EINK_SendData
 401              	.LVL50:
 324:pervasive_eink_hardware_driver.c ****                     (uint8_t*) &channelSelect,
 325:pervasive_eink_hardware_driver.c ****                      PV_EINK_CHANNEL_SEL_SIZE);
 326:pervasive_eink_hardware_driver.c ****     
 327:pervasive_eink_hardware_driver.c ****     /* High Power Mode Oscillator Setting */
 328:pervasive_eink_hardware_driver.c ****     Pv_EINK_SendByte(PV_EINK_OSC_SETTING_COMMAND_INDEX, 
 402              		.loc 1 328 0
 403 006e D121     		movs	r1, #209
 404 0070 0720     		movs	r0, #7
 405 0072 FFF7FEFF 		bl	Pv_EINK_SendByte
 406              	.LVL51:
 329:pervasive_eink_hardware_driver.c ****                      PV_EINK_OSC_SETTING_COMMAND_DATA);
 330:pervasive_eink_hardware_driver.c ****     /* Power Setting */
 331:pervasive_eink_hardware_driver.c ****     Pv_EINK_SendByte(PV_EINK_PWR1_SETTING_COMMAND_INDEX,
 407              		.loc 1 331 0
 408 0076 0221     		movs	r1, #2
 409 0078 0820     		movs	r0, #8
 410 007a FFF7FEFF 		bl	Pv_EINK_SendByte
 411              	.LVL52:
 332:pervasive_eink_hardware_driver.c ****                      PV_EINK_PWR1_SETTING_COMMAND_DATA);
 333:pervasive_eink_hardware_driver.c ****     /* Set Vcom level */
 334:pervasive_eink_hardware_driver.c ****     Pv_EINK_SendByte(PV_EINK_VCOM1_LEVEL_COMMAND_INDEX, 
 412              		.loc 1 334 0
 413 007e C221     		movs	r1, #194
 414 0080 0920     		movs	r0, #9
 415 0082 FFF7FEFF 		bl	Pv_EINK_SendByte
 416              	.LVL53:
 335:pervasive_eink_hardware_driver.c ****                      PV_EINK_VCOM1_LEVEL_COMMAND_DATA);
 336:pervasive_eink_hardware_driver.c ****     /* Power Setting */
 337:pervasive_eink_hardware_driver.c ****     Pv_EINK_SendByte(PV_EINK_PWR2_SETTING_COMMAND_INDEX,
 417              		.loc 1 337 0
 418 0086 0321     		movs	r1, #3
 419 0088 0420     		movs	r0, #4
 420 008a FFF7FEFF 		bl	Pv_EINK_SendByte
 421              	.LVL54:
 338:pervasive_eink_hardware_driver.c ****                      PV_EINK_PWR2_SETTING_COMMAND_DATA);
 339:pervasive_eink_hardware_driver.c ****                   
 340:pervasive_eink_hardware_driver.c ****     /* Driver latch on */
 341:pervasive_eink_hardware_driver.c ****     Pv_EINK_SendByte(PV_EINK_LATCH_OFF_COMMAND_INDEX,
 422              		.loc 1 341 0
 423 008e 0121     		movs	r1, #1
 424 0090 0320     		movs	r0, #3
 425 0092 FFF7FEFF 		bl	Pv_EINK_SendByte
 426              	.LVL55:
 342:pervasive_eink_hardware_driver.c ****                      PV_EINK_LATCH_ON_COMMAND_DATA);
 343:pervasive_eink_hardware_driver.c ****     /* Driver latch off */
 344:pervasive_eink_hardware_driver.c ****     Pv_EINK_SendByte(PV_EINK_LATCH_OFF_COMMAND_INDEX, 
 427              		.loc 1 344 0
 428 0096 0021     		movs	r1, #0
 429 0098 0320     		movs	r0, #3
 430 009a FFF7FEFF 		bl	Pv_EINK_SendByte
 431              	.LVL56:
 345:pervasive_eink_hardware_driver.c ****                      PV_EINK_LATCH_OFF_COMMAND_DATA);
 346:pervasive_eink_hardware_driver.c ****     CY_EINK_Delay(PV_EINK_PIN_DELAY);
 432              		.loc 1 346 0
ARM GAS  C:\Users\User\AppData\Local\Temp\ccsn8eRz.s 			page 28


 433 009e 0A20     		movs	r0, #10
 434 00a0 FFF7FEFF 		bl	Cy_SysLib_Delay
 435              	.LVL57:
 269:pervasive_eink_hardware_driver.c ****     
 436              		.loc 1 269 0
 437 00a4 0024     		movs	r4, #0
 438 00a6 00E0     		b	.L23
 439              	.LVL58:
 440              	.L27:
 347:pervasive_eink_hardware_driver.c ****     
 348:pervasive_eink_hardware_driver.c ****     /* Start the charge pump */
 349:pervasive_eink_hardware_driver.c ****     do
 350:pervasive_eink_hardware_driver.c ****     {
 351:pervasive_eink_hardware_driver.c ****         /* Start charge pump positive voltage (VGH & VDH on) */
 352:pervasive_eink_hardware_driver.c ****         Pv_EINK_SendByte(PV_EINK_VGH_VDH_ON_COMMAND_INDEX,
 353:pervasive_eink_hardware_driver.c ****                       PV_EINK_VGH_VDH_ON_COMMAND_DATA);
 354:pervasive_eink_hardware_driver.c ****         CY_EINK_Delay(PV_EINK_POSITIVE_V_DELAY);
 355:pervasive_eink_hardware_driver.c ****         
 356:pervasive_eink_hardware_driver.c ****         /* Start charge pump negative voltage (VGL & VDL on) */
 357:pervasive_eink_hardware_driver.c ****         Pv_EINK_SendByte(PV_EINK_VGH_VDH_ON_COMMAND_INDEX,
 358:pervasive_eink_hardware_driver.c ****                       PV_EINK_VGL_VDL_ON_COMMAND_DATA);
 359:pervasive_eink_hardware_driver.c ****         CY_EINK_Delay(PV_EINK_PWR_CTRL_DELAY);
 360:pervasive_eink_hardware_driver.c ****         
 361:pervasive_eink_hardware_driver.c ****         /* Set charge pump (Vcom_Driver on) */
 362:pervasive_eink_hardware_driver.c ****         Pv_EINK_SendByte(PV_EINK_VCOM_DRIVE_ON_COMMAND_INDEX,
 363:pervasive_eink_hardware_driver.c ****                       PV_EINK_VCOM_DRIVE_ON_COMMAND_DATA);
 364:pervasive_eink_hardware_driver.c ****         CY_EINK_Delay(PV_EINK_PWR_CTRL_DELAY);
 365:pervasive_eink_hardware_driver.c ****         
 366:pervasive_eink_hardware_driver.c ****         /* Check DC level */
 367:pervasive_eink_hardware_driver.c ****         if ((Pv_EINK_ReadByte(PV_EINK_DC_LEVEL_READ_COMMAND_INDEX,
 368:pervasive_eink_hardware_driver.c ****                            PV_EINK_DC_LEVEL_READ_COMMAND_DATA) & 
 369:pervasive_eink_hardware_driver.c ****                            PV_EINK_DC_LEVEL_MASK)
 370:pervasive_eink_hardware_driver.c ****                            != PV_EINK_DC_LEVEL_CHECK)
 371:pervasive_eink_hardware_driver.c ****         {
 372:pervasive_eink_hardware_driver.c ****             /* Disable OLE */
 373:pervasive_eink_hardware_driver.c ****             Pv_EINK_SendByte(PV_EINK_DISABLE_OE_COMMAND_INDEX,
 374:pervasive_eink_hardware_driver.c ****                           PV_EINK_DISABLE_OE_COMMAND_DATA);
 375:pervasive_eink_hardware_driver.c ****             break;
 376:pervasive_eink_hardware_driver.c ****         }
 377:pervasive_eink_hardware_driver.c ****     }
 378:pervasive_eink_hardware_driver.c ****     /* Perform this operation for required charge pump write cycles */
 379:pervasive_eink_hardware_driver.c ****     while ((loopCounter++) != PV_EINK_CHARGE_PUMP_MAX_WRITE);
 441              		.loc 1 379 0
 442 00a8 1C46     		mov	r4, r3
 443              	.LVL59:
 444              	.L23:
 352:pervasive_eink_hardware_driver.c ****                       PV_EINK_VGH_VDH_ON_COMMAND_DATA);
 445              		.loc 1 352 0
 446 00aa 0121     		movs	r1, #1
 447 00ac 0520     		movs	r0, #5
 448 00ae FFF7FEFF 		bl	Pv_EINK_SendByte
 449              	.LVL60:
 354:pervasive_eink_hardware_driver.c ****         
 450              		.loc 1 354 0
 451 00b2 6420     		movs	r0, #100
 452 00b4 FFF7FEFF 		bl	Cy_SysLib_Delay
 453              	.LVL61:
ARM GAS  C:\Users\User\AppData\Local\Temp\ccsn8eRz.s 			page 29


 357:pervasive_eink_hardware_driver.c ****                       PV_EINK_VGL_VDL_ON_COMMAND_DATA);
 454              		.loc 1 357 0
 455 00b8 0321     		movs	r1, #3
 456 00ba 0520     		movs	r0, #5
 457 00bc FFF7FEFF 		bl	Pv_EINK_SendByte
 458              	.LVL62:
 359:pervasive_eink_hardware_driver.c ****         
 459              		.loc 1 359 0
 460 00c0 3220     		movs	r0, #50
 461 00c2 FFF7FEFF 		bl	Cy_SysLib_Delay
 462              	.LVL63:
 362:pervasive_eink_hardware_driver.c ****                       PV_EINK_VCOM_DRIVE_ON_COMMAND_DATA);
 463              		.loc 1 362 0
 464 00c6 0F21     		movs	r1, #15
 465 00c8 0520     		movs	r0, #5
 466 00ca FFF7FEFF 		bl	Pv_EINK_SendByte
 467              	.LVL64:
 364:pervasive_eink_hardware_driver.c ****         
 468              		.loc 1 364 0
 469 00ce 3220     		movs	r0, #50
 470 00d0 FFF7FEFF 		bl	Cy_SysLib_Delay
 471              	.LVL65:
 367:pervasive_eink_hardware_driver.c ****                            PV_EINK_DC_LEVEL_READ_COMMAND_DATA) & 
 472              		.loc 1 367 0
 473 00d4 0021     		movs	r1, #0
 474 00d6 0F20     		movs	r0, #15
 475 00d8 FFF7FEFF 		bl	Pv_EINK_ReadByte
 476              	.LVL66:
 477 00dc 10F0400F 		tst	r0, #64
 478 00e0 05D0     		beq	.L21
 373:pervasive_eink_hardware_driver.c ****                           PV_EINK_DISABLE_OE_COMMAND_DATA);
 479              		.loc 1 373 0
 480 00e2 4021     		movs	r1, #64
 481 00e4 0220     		movs	r0, #2
 482 00e6 FFF7FEFF 		bl	Pv_EINK_SendByte
 483              	.LVL67:
 375:pervasive_eink_hardware_driver.c ****         }
 484              		.loc 1 375 0
 485 00ea 2346     		mov	r3, r4
 486 00ec 03E0     		b	.L22
 487              	.L21:
 488              		.loc 1 379 0
 489 00ee 631C     		adds	r3, r4, #1
 490 00f0 9BB2     		uxth	r3, r3
 491              	.LVL68:
 492 00f2 042C     		cmp	r4, #4
 493 00f4 D8D1     		bne	.L27
 494              	.LVL69:
 495              	.L22:
 380:pervasive_eink_hardware_driver.c ****     
 381:pervasive_eink_hardware_driver.c ****     /* If the operation not completed within the required write cycles, send an 
 382:pervasive_eink_hardware_driver.c ****        error message */
 383:pervasive_eink_hardware_driver.c ****     if (loopCounter >= PV_EINK_CHARGE_PUMP_MAX_WRITE)
 496              		.loc 1 383 0
 497 00f6 032B     		cmp	r3, #3
 498 00f8 07D9     		bls	.L28
 384:pervasive_eink_hardware_driver.c ****     {
ARM GAS  C:\Users\User\AppData\Local\Temp\ccsn8eRz.s 			page 30


 385:pervasive_eink_hardware_driver.c ****         CY_EINK_Wait10uS;
 386:pervasive_eink_hardware_driver.c ****         return(PV_EINK_ERROR_CHARGEPUMP);
 499              		.loc 1 386 0
 500 00fa 0520     		movs	r0, #5
 501 00fc 10BD     		pop	{r4, pc}
 502              	.LVL70:
 503              	.L24:
 289:pervasive_eink_hardware_driver.c ****         }
 504              		.loc 1 289 0
 505 00fe 0120     		movs	r0, #1
 506 0100 10BD     		pop	{r4, pc}
 507              	.L25:
 303:pervasive_eink_hardware_driver.c ****     }
 508              		.loc 1 303 0
 509 0102 0220     		movs	r0, #2
 510 0104 10BD     		pop	{r4, pc}
 511              	.L26:
 316:pervasive_eink_hardware_driver.c ****     }
 512              		.loc 1 316 0
 513 0106 0320     		movs	r0, #3
 514 0108 10BD     		pop	{r4, pc}
 515              	.LVL71:
 516              	.L28:
 387:pervasive_eink_hardware_driver.c ****     }
 388:pervasive_eink_hardware_driver.c ****     /* If all operations completed successfully, send the corresponding status 
 389:pervasive_eink_hardware_driver.c ****        message */
 390:pervasive_eink_hardware_driver.c ****     return(PV_EINK_RES_OK);
 517              		.loc 1 390 0
 518 010a 0020     		movs	r0, #0
 391:pervasive_eink_hardware_driver.c **** }
 519              		.loc 1 391 0
 520 010c 10BD     		pop	{r4, pc}
 521              	.L31:
 522 010e 00BF     		.align	2
 523              	.L30:
 524 0110 00000000 		.word	.LANCHOR0
 525 0114 00000000 		.word	.LANCHOR1
 526              		.cfi_endproc
 527              	.LFE651:
 528              		.size	Pv_EINK_InitDriver, .-Pv_EINK_InitDriver
 529              		.section	.text.Pv_EINK_SetTempFactor,"ax",%progbits
 530              		.align	2
 531              		.global	Pv_EINK_SetTempFactor
 532              		.thumb
 533              		.thumb_func
 534              		.type	Pv_EINK_SetTempFactor, %function
 535              	Pv_EINK_SetTempFactor:
 536              	.LFB652:
 392:pervasive_eink_hardware_driver.c **** 
 393:pervasive_eink_hardware_driver.c **** /*******************************************************************************
 394:pervasive_eink_hardware_driver.c **** * Function Name: void Pv_EINK_SetTempFactor(int8_t temperature)
 395:pervasive_eink_hardware_driver.c **** ********************************************************************************
 396:pervasive_eink_hardware_driver.c **** *
 397:pervasive_eink_hardware_driver.c **** * Summary: Set the E-INK update times per the ambient temperature. For detailed
 398:pervasive_eink_hardware_driver.c **** * flow and description, please refer to the driver G2 document Section 5.4.
 399:pervasive_eink_hardware_driver.c **** *
 400:pervasive_eink_hardware_driver.c **** * Parameters:
ARM GAS  C:\Users\User\AppData\Local\Temp\ccsn8eRz.s 			page 31


 401:pervasive_eink_hardware_driver.c **** * int8_t temperature: Ambient temperature in degree Celsius
 402:pervasive_eink_hardware_driver.c **** *
 403:pervasive_eink_hardware_driver.c **** * Return:
 404:pervasive_eink_hardware_driver.c **** *  None
 405:pervasive_eink_hardware_driver.c **** *
 406:pervasive_eink_hardware_driver.c **** * Side Effects:
 407:pervasive_eink_hardware_driver.c **** *  None
 408:pervasive_eink_hardware_driver.c **** *******************************************************************************/
 409:pervasive_eink_hardware_driver.c **** void Pv_EINK_SetTempFactor(int8_t temperature)
 410:pervasive_eink_hardware_driver.c **** {
 537              		.loc 1 410 0
 538              		.cfi_startproc
 539              		@ args = 0, pretend = 0, frame = 0
 540              		@ frame_needed = 0, uses_anonymous_args = 0
 541              		@ link register save eliminated.
 542              	.LVL72:
 411:pervasive_eink_hardware_driver.c ****     /* Variable used to store the update time */
 412:pervasive_eink_hardware_driver.c ****     uint16_t    updateTime;
 413:pervasive_eink_hardware_driver.c ****     /* Set the update time per the temperature table */
 414:pervasive_eink_hardware_driver.c ****     if (PV_EINK_TEMP_DEG_M10 >= temperature)
 543              		.loc 1 414 0
 544 0000 10F1090F 		cmn	r0, #9
 545 0004 0EDB     		blt	.L34
 415:pervasive_eink_hardware_driver.c ****     {
 416:pervasive_eink_hardware_driver.c ****         updateTime = PV_EINK_TEMP_SEL0;
 417:pervasive_eink_hardware_driver.c ****     }
 418:pervasive_eink_hardware_driver.c ****     else if (PV_EINK_TEMP_DEG_M5 >= temperature)
 546              		.loc 1 418 0
 547 0006 10F1040F 		cmn	r0, #4
 548 000a 0EDB     		blt	.L35
 419:pervasive_eink_hardware_driver.c ****     {
 420:pervasive_eink_hardware_driver.c ****         updateTime = PV_EINK_TEMP_SEL1;
 421:pervasive_eink_hardware_driver.c ****     }
 422:pervasive_eink_hardware_driver.c ****     else if (PV_EINK_TEMP_DEG_5 >= temperature)
 549              		.loc 1 422 0
 550 000c 0528     		cmp	r0, #5
 551 000e 0FDD     		ble	.L36
 423:pervasive_eink_hardware_driver.c ****     {
 424:pervasive_eink_hardware_driver.c ****         updateTime = PV_EINK_TEMP_SEL2;
 425:pervasive_eink_hardware_driver.c ****     }
 426:pervasive_eink_hardware_driver.c ****     else if (PV_EINK_TEMP_DEG_10 >= temperature)
 552              		.loc 1 426 0
 553 0010 0A28     		cmp	r0, #10
 554 0012 10DD     		ble	.L37
 427:pervasive_eink_hardware_driver.c ****     {
 428:pervasive_eink_hardware_driver.c ****         updateTime = PV_EINK_TEMP_SEL3;
 429:pervasive_eink_hardware_driver.c ****     }
 430:pervasive_eink_hardware_driver.c ****     else if (PV_EINK_TEMP_DEG_15 >= temperature)
 555              		.loc 1 430 0
 556 0014 0F28     		cmp	r0, #15
 557 0016 11DD     		ble	.L38
 431:pervasive_eink_hardware_driver.c ****     {
 432:pervasive_eink_hardware_driver.c ****         updateTime = PV_EINK_TEMP_SEL4;
 433:pervasive_eink_hardware_driver.c ****     }
 434:pervasive_eink_hardware_driver.c ****     else if (PV_EINK_TEMP_DEG_20 >= temperature)
 558              		.loc 1 434 0
 559 0018 1428     		cmp	r0, #20
ARM GAS  C:\Users\User\AppData\Local\Temp\ccsn8eRz.s 			page 32


 560 001a 11DD     		ble	.L39
 435:pervasive_eink_hardware_driver.c ****     {
 436:pervasive_eink_hardware_driver.c ****         updateTime = PV_EINK_TEMP_SEL5;
 437:pervasive_eink_hardware_driver.c ****     }
 438:pervasive_eink_hardware_driver.c ****     else if (PV_EINK_TEMP_DEG_40 >= temperature)
 561              		.loc 1 438 0
 562 001c 2828     		cmp	r0, #40
 563 001e 11DC     		bgt	.L40
 439:pervasive_eink_hardware_driver.c ****     {
 440:pervasive_eink_hardware_driver.c ****         updateTime = PV_EINK_TEMP_SEL6;
 564              		.loc 1 440 0
 565 0020 5A22     		movs	r2, #90
 566 0022 10E0     		b	.L33
 567              	.L34:
 416:pervasive_eink_hardware_driver.c ****     }
 568              		.loc 1 416 0
 569 0024 4FF49662 		mov	r2, #1200
 570 0028 0DE0     		b	.L33
 571              	.L35:
 420:pervasive_eink_hardware_driver.c ****     }
 572              		.loc 1 420 0
 573 002a 4FF46172 		mov	r2, #900
 574 002e 0AE0     		b	.L33
 575              	.L36:
 424:pervasive_eink_hardware_driver.c ****     }
 576              		.loc 1 424 0
 577 0030 4FF41672 		mov	r2, #600
 578 0034 07E0     		b	.L33
 579              	.L37:
 428:pervasive_eink_hardware_driver.c ****     }
 580              		.loc 1 428 0
 581 0036 4FF4A572 		mov	r2, #330
 582 003a 04E0     		b	.L33
 583              	.L38:
 432:pervasive_eink_hardware_driver.c ****     }
 584              		.loc 1 432 0
 585 003c DC22     		movs	r2, #220
 586 003e 02E0     		b	.L33
 587              	.L39:
 436:pervasive_eink_hardware_driver.c ****     }
 588              		.loc 1 436 0
 589 0040 B422     		movs	r2, #180
 590 0042 00E0     		b	.L33
 591              	.L40:
 441:pervasive_eink_hardware_driver.c ****     }
 442:pervasive_eink_hardware_driver.c ****     else
 443:pervasive_eink_hardware_driver.c ****     {
 444:pervasive_eink_hardware_driver.c ****         updateTime = PV_EINK_TEMP_SEL7;
 592              		.loc 1 444 0
 593 0044 3C22     		movs	r2, #60
 594              	.L33:
 595              	.LVL73:
 445:pervasive_eink_hardware_driver.c ****     }
 446:pervasive_eink_hardware_driver.c ****     /* Scale the update times : this is a speed-contrast trade-off */
 447:pervasive_eink_hardware_driver.c ****     fullUpdateTime = updateTime * PV_EINK_SCALING_FULL;
 596              		.loc 1 447 0
 597 0046 034B     		ldr	r3, .L41
ARM GAS  C:\Users\User\AppData\Local\Temp\ccsn8eRz.s 			page 33


 598 0048 A3F87C20 		strh	r2, [r3, #124]	@ movhi
 448:pervasive_eink_hardware_driver.c ****     partialUpdateTime = updateTime * PV_EINK_SCALING_PARTIAL;
 599              		.loc 1 448 0
 600 004c A3F87E20 		strh	r2, [r3, #126]	@ movhi
 601 0050 7047     		bx	lr
 602              	.L42:
 603 0052 00BF     		.align	2
 604              	.L41:
 605 0054 00000000 		.word	.LANCHOR0
 606              		.cfi_endproc
 607              	.LFE652:
 608              		.size	Pv_EINK_SetTempFactor, .-Pv_EINK_SetTempFactor
 609              		.section	.text.Pv_EINK_FullStageHandler,"ax",%progbits
 610              		.align	2
 611              		.global	Pv_EINK_FullStageHandler
 612              		.thumb
 613              		.thumb_func
 614              		.type	Pv_EINK_FullStageHandler, %function
 615              	Pv_EINK_FullStageHandler:
 616              	.LFB653:
 449:pervasive_eink_hardware_driver.c **** }
 450:pervasive_eink_hardware_driver.c **** 
 451:pervasive_eink_hardware_driver.c **** /*******************************************************************************
 452:pervasive_eink_hardware_driver.c **** * Function Name: void Pv_EINK_FullStageHandler(pv_eink_frame_data_t* imagePtr,
 453:pervasive_eink_hardware_driver.c **** *                                              pv_eink_stage_t stageNumber)
 454:pervasive_eink_hardware_driver.c **** ********************************************************************************
 455:pervasive_eink_hardware_driver.c **** *
 456:pervasive_eink_hardware_driver.c **** * Summary: The full update driving stages for getting Odd and Even bytes, and
 457:pervasive_eink_hardware_driver.c **** * then writing the data from memory array to E-INK driver.
 458:pervasive_eink_hardware_driver.c **** *
 459:pervasive_eink_hardware_driver.c **** * One dot/pixel is comprised of 2 bits that can be White(10), Black(11) or 
 460:pervasive_eink_hardware_driver.c **** * Nothing * (01 or 00). The image data bytes must be divided into Odd and Even 
 461:pervasive_eink_hardware_driver.c **** * bytes.
 462:pervasive_eink_hardware_driver.c **** * Line data flow is first half of data bytes -> scan bytes -> second half of data
 463:pervasive_eink_hardware_driver.c **** * bytes. For more details on the driving stages, please refer to the driver G2
 464:pervasive_eink_hardware_driver.c **** * document Section 5.
 465:pervasive_eink_hardware_driver.c **** *
 466:pervasive_eink_hardware_driver.c **** * Parameters:
 467:pervasive_eink_hardware_driver.c **** * pv_eink_frame_data_t* imagePtr    : The pointer to the memory that contains a
 468:pervasive_eink_hardware_driver.c **** *                                     frame
 469:pervasive_eink_hardware_driver.c **** * pv_eink_stage_t stageNumber       : The assigned stage number
 470:pervasive_eink_hardware_driver.c **** *
 471:pervasive_eink_hardware_driver.c **** * Return:
 472:pervasive_eink_hardware_driver.c **** *  None
 473:pervasive_eink_hardware_driver.c **** *
 474:pervasive_eink_hardware_driver.c **** * Side Effects:
 475:pervasive_eink_hardware_driver.c **** *  This is a blocking function. CPU will be busy during the entire operation,
 476:pervasive_eink_hardware_driver.c **** * which can be 1 to 2 seconds.
 477:pervasive_eink_hardware_driver.c **** *******************************************************************************/
 478:pervasive_eink_hardware_driver.c **** void Pv_EINK_FullStageHandler(pv_eink_frame_data_t* imagePtr, 
 479:pervasive_eink_hardware_driver.c ****                               pv_eink_stage_t stageNumber)
 480:pervasive_eink_hardware_driver.c **** {
 617              		.loc 1 480 0
 618              		.cfi_startproc
 619              		@ args = 0, pretend = 0, frame = 0
 620              		@ frame_needed = 0, uses_anonymous_args = 0
 621              	.LVL74:
ARM GAS  C:\Users\User\AppData\Local\Temp\ccsn8eRz.s 			page 34


 622 0000 2DE9F84F 		push	{r3, r4, r5, r6, r7, r8, r9, r10, fp, lr}
 623              		.cfi_def_cfa_offset 40
 624              		.cfi_offset 3, -40
 625              		.cfi_offset 4, -36
 626              		.cfi_offset 5, -32
 627              		.cfi_offset 6, -28
 628              		.cfi_offset 7, -24
 629              		.cfi_offset 8, -20
 630              		.cfi_offset 9, -16
 631              		.cfi_offset 10, -12
 632              		.cfi_offset 11, -8
 633              		.cfi_offset 14, -4
 634 0004 0646     		mov	r6, r0
 635 0006 0D46     		mov	r5, r1
 636              	.LVL75:
 481:pervasive_eink_hardware_driver.c ****     /* Counter variable for the horizontal pixel loop */
 482:pervasive_eink_hardware_driver.c ****     uint16_t    x;
 483:pervasive_eink_hardware_driver.c ****     /* Counter variable for the vertical pixel loop */
 484:pervasive_eink_hardware_driver.c ****     uint16_t    y;
 485:pervasive_eink_hardware_driver.c ****     /* Counter variable for the horizontal byte loop */
 486:pervasive_eink_hardware_driver.c ****     uint16_t    k;
 487:pervasive_eink_hardware_driver.c ****       
 488:pervasive_eink_hardware_driver.c ****     /* Variable for storing the line number under scan */
 489:pervasive_eink_hardware_driver.c ****     int16       scanlineNumber = 0;
 490:pervasive_eink_hardware_driver.c ****     
 491:pervasive_eink_hardware_driver.c ****     /* Temporary storage for image data byte */
 492:pervasive_eink_hardware_driver.c ****     uint8_t     tempByte = *imagePtr;
 637              		.loc 1 492 0
 638 0008 0478     		ldrb	r4, [r0]	@ zero_extendqisi2
 639              	.LVL76:
 493:pervasive_eink_hardware_driver.c ****     
 494:pervasive_eink_hardware_driver.c ****     /* Flag to check if the current pointer is a macro of white/black frame */
 495:pervasive_eink_hardware_driver.c ****     bool        blackOrWhiteFrame;
 496:pervasive_eink_hardware_driver.c ****     
 497:pervasive_eink_hardware_driver.c ****     /* If the current pointer is a macro of the white frame */
 498:pervasive_eink_hardware_driver.c ****     if (imagePtr == PV_EINK_WHITE_FRAME_ADDRESS)
 640              		.loc 1 498 0
 641 000a 28B1     		cbz	r0, .L92
 499:pervasive_eink_hardware_driver.c ****     {
 500:pervasive_eink_hardware_driver.c ****         /* Set the white/black frame flag */
 501:pervasive_eink_hardware_driver.c ****         blackOrWhiteFrame = true;
 502:pervasive_eink_hardware_driver.c ****         /* Set the tempByte to white pixel byte */
 503:pervasive_eink_hardware_driver.c ****         tempByte = PV_EINK_WHITE_PIXEL_BYTE;
 504:pervasive_eink_hardware_driver.c ****         
 505:pervasive_eink_hardware_driver.c ****     }
 506:pervasive_eink_hardware_driver.c ****     /* If the current pointer is a macro of the black frame */
 507:pervasive_eink_hardware_driver.c ****     else if (imagePtr == PV_EINK_BLACK_FRAME_ADDRESS)
 642              		.loc 1 507 0
 643 000c CA4B     		ldr	r3, .L127
 644 000e 9842     		cmp	r0, r3
 645 0010 05D1     		bne	.L93
 508:pervasive_eink_hardware_driver.c ****     {
 509:pervasive_eink_hardware_driver.c ****          /* Set the white/black frame flag */
 510:pervasive_eink_hardware_driver.c ****         blackOrWhiteFrame = true;
 646              		.loc 1 510 0
 647 0012 0127     		movs	r7, #1
 511:pervasive_eink_hardware_driver.c ****         /* set the tempByte to black pixel byte */
ARM GAS  C:\Users\User\AppData\Local\Temp\ccsn8eRz.s 			page 35


 512:pervasive_eink_hardware_driver.c ****         tempByte = PV_EINK_BLACK_PIXEL_BYTE;
 648              		.loc 1 512 0
 649 0014 0024     		movs	r4, #0
 650              	.LVL77:
 651 0016 03E0     		b	.L44
 652              	.LVL78:
 653              	.L92:
 501:pervasive_eink_hardware_driver.c ****         /* Set the tempByte to white pixel byte */
 654              		.loc 1 501 0
 655 0018 0127     		movs	r7, #1
 503:pervasive_eink_hardware_driver.c ****         
 656              		.loc 1 503 0
 657 001a FF24     		movs	r4, #255
 658              	.LVL79:
 659 001c 00E0     		b	.L44
 660              	.LVL80:
 661              	.L93:
 513:pervasive_eink_hardware_driver.c ****     }
 514:pervasive_eink_hardware_driver.c ****     /* If the current pointer is of an image stored in flash */
 515:pervasive_eink_hardware_driver.c ****     else
 516:pervasive_eink_hardware_driver.c ****     {
 517:pervasive_eink_hardware_driver.c ****         /* Clear the white/black frame flag */
 518:pervasive_eink_hardware_driver.c ****         blackOrWhiteFrame = false;
 662              		.loc 1 518 0
 663 001e 0027     		movs	r7, #0
 664              	.LVL81:
 665              	.L44:
 519:pervasive_eink_hardware_driver.c ****     }
 520:pervasive_eink_hardware_driver.c **** 
 521:pervasive_eink_hardware_driver.c ****     /* Re-initialize E-INK timer to ensure the same duration of each stage */
 522:pervasive_eink_hardware_driver.c ****     Cy_EINK_TimerInit();
 666              		.loc 1 522 0
 667 0020 FFF7FEFF 		bl	Cy_EINK_TimerInit
 668              	.LVL82:
 523:pervasive_eink_hardware_driver.c **** 
 524:pervasive_eink_hardware_driver.c ****     /* Vertical pixel loop */
 525:pervasive_eink_hardware_driver.c ****     for (y = 0; y < PV_EINK_VERTICAL_SIZE; y++)
 669              		.loc 1 525 0
 670 0024 4FF00008 		mov	r8, #0
 671 0028 D0E1     		b	.L45
 672              	.LVL83:
 673              	.L88:
 526:pervasive_eink_hardware_driver.c ****     {
 527:pervasive_eink_hardware_driver.c ****         /* Clear the line buffer with all zeros */
 528:pervasive_eink_hardware_driver.c ****         memset(&bulkDriverPacket[y].lineBuffer, 0, 
 674              		.loc 1 528 0
 675 002a C8EBC80A 		rsb	r10, r8, r8, lsl #3
 676 002e C8EB0A1A 		rsb	r10, r8, r10, lsl #4
 677 0032 DFF80C93 		ldr	r9, .L127+8
 678 0036 0AEB090B 		add	fp, r10, r9
 679 003a 6F22     		movs	r2, #111
 680 003c 0021     		movs	r1, #0
 681 003e 5846     		mov	r0, fp
 682 0040 FFF7FEFF 		bl	memset
 683              	.LVL84:
 529:pervasive_eink_hardware_driver.c ****                sizeof(bulkDriverPacket[y].lineBuffer)) ;
 530:pervasive_eink_hardware_driver.c **** 
ARM GAS  C:\Users\User\AppData\Local\Temp\ccsn8eRz.s 			page 36


 531:pervasive_eink_hardware_driver.c ****         /* Initialize the even data, odd data and scan data pointers */
 532:pervasive_eink_hardware_driver.c ****         dataLineEven = &bulkDriverPacket[y].lineDataBySize.even[0];
 684              		.loc 1 532 0
 685 0044 0BF1010E 		add	lr, fp, #1
 686 0048 BC4B     		ldr	r3, .L127+4
 687 004a C3F870E0 		str	lr, [r3, #112]
 533:pervasive_eink_hardware_driver.c ****         dataLineOdd  = &bulkDriverPacket[y].lineDataBySize.odd[0];
 688              		.loc 1 533 0
 689 004e 0AF14800 		add	r0, r10, #72
 690 0052 4844     		add	r0, r0, r9
 691 0054 0630     		adds	r0, r0, #6
 692 0056 5867     		str	r0, [r3, #116]
 534:pervasive_eink_hardware_driver.c ****         dataLineScan = &bulkDriverPacket[y].lineDataBySize.scan[0];
 693              		.loc 1 534 0
 694 0058 0AF1200A 		add	r10, r10, #32
 695 005c D144     		add	r9, r9, r10
 696 005e 09F10209 		add	r9, r9, #2
 697 0062 C3F87890 		str	r9, [r3, #120]
 698              	.LVL85:
 535:pervasive_eink_hardware_driver.c ****         
 536:pervasive_eink_hardware_driver.c ****         /* Horizontal bytes initialization */
 537:pervasive_eink_hardware_driver.c ****         k = PV_EINK_HORIZONTAL_SIZE;
 538:pervasive_eink_hardware_driver.c ****         k--;
 699              		.loc 1 538 0
 700 0066 2022     		movs	r2, #32
 539:pervasive_eink_hardware_driver.c ****         
 540:pervasive_eink_hardware_driver.c ****         /* Horizontal pixel loop */
 541:pervasive_eink_hardware_driver.c ****         for (x = 0; x < PV_EINK_HORIZONTAL_SIZE; x++)
 701              		.loc 1 541 0
 702 0068 0023     		movs	r3, #0
 703 006a 97E1     		b	.L46
 704              	.LVL86:
 705              	.L86:
 542:pervasive_eink_hardware_driver.c ****         {
 543:pervasive_eink_hardware_driver.c ****             /* If the current pointer is of an image stored in flash */
 544:pervasive_eink_hardware_driver.c ****             if(!blackOrWhiteFrame)
 706              		.loc 1 544 0
 707 006c 0FB9     		cbnz	r7, .L47
 708              	.LVL87:
 545:pervasive_eink_hardware_driver.c ****             {
 546:pervasive_eink_hardware_driver.c ****                 /* Fetch successive data bytes */
 547:pervasive_eink_hardware_driver.c ****                 tempByte = *imagePtr++;
 709              		.loc 1 547 0
 710 006e 3478     		ldrb	r4, [r6]	@ zero_extendqisi2
 711              	.LVL88:
 712 0070 0136     		adds	r6, r6, #1
 713              	.LVL89:
 714              	.L47:
 548:pervasive_eink_hardware_driver.c ****             }
 549:pervasive_eink_hardware_driver.c ****             /* Perform one of the four stage operations */
 550:pervasive_eink_hardware_driver.c ****             switch (stageNumber)
 715              		.loc 1 550 0
 716 0072 032D     		cmp	r5, #3
 717 0074 00F29081 		bhi	.L48
 718 0078 DFE815F0 		tbh	[pc, r5, lsl #1]
 719              	.L50:
 720 007c 0400     		.2byte	(.L49-.L50)/2
ARM GAS  C:\Users\User\AppData\Local\Temp\ccsn8eRz.s 			page 37


 721 007e 6500     		.2byte	(.L51-.L50)/2
 722 0080 C600     		.2byte	(.L52-.L50)/2
 723 0082 2701     		.2byte	(.L53-.L50)/2
 724              		.p2align 1
 725              	.L49:
 551:pervasive_eink_hardware_driver.c ****             {
 552:pervasive_eink_hardware_driver.c ****             /* Stage 1: Calculate the inverted Even and Odd bytes of 
 553:pervasive_eink_hardware_driver.c ****                the previous image data */
 554:pervasive_eink_hardware_driver.c ****             case PV_EINK_STAGE1:
 555:pervasive_eink_hardware_driver.c ****                 dataLineOdd[x]       = ((tempByte & PV_EINK_ODD_MASK_A)  ? 
 726              		.loc 1 555 0
 727 0084 00EB030C 		add	ip, r0, r3
 728 0088 14F0400F 		tst	r4, #64
 729 008c 01D0     		beq	.L94
 730 008e C021     		movs	r1, #192
 731 0090 00E0     		b	.L54
 732              	.L94:
 733 0092 8021     		movs	r1, #128
 734              	.L54:
 735              		.loc 1 555 0 is_stmt 0 discriminator 4
 736 0094 8CF80010 		strb	r1, [ip]
 556:pervasive_eink_hardware_driver.c ****                                         PV_EINK_BLACK3 : PV_EINK_WHITE3);
 557:pervasive_eink_hardware_driver.c ****                 dataLineOdd[x]      |= ((tempByte & PV_EINK_ODD_MASK_B)  ? 
 737              		.loc 1 557 0 is_stmt 1 discriminator 4
 738 0098 49B2     		sxtb	r1, r1
 739 009a 14F0100F 		tst	r4, #16
 740 009e 02D0     		beq	.L95
 741              		.loc 1 557 0 is_stmt 0
 742 00a0 4FF0300A 		mov	r10, #48
 743 00a4 01E0     		b	.L55
 744              	.L95:
 745 00a6 4FF0200A 		mov	r10, #32
 746              	.L55:
 747              		.loc 1 557 0 discriminator 4
 748 00aa 4AEA0101 		orr	r1, r10, r1
 749 00ae 8CF80010 		strb	r1, [ip]
 558:pervasive_eink_hardware_driver.c ****                                         PV_EINK_BLACK2 : PV_EINK_WHITE2);
 559:pervasive_eink_hardware_driver.c ****                 dataLineOdd[x]      |= ((tempByte & PV_EINK_ODD_MASK_C)  ? 
 750              		.loc 1 559 0 is_stmt 1 discriminator 4
 751 00b2 14F0040F 		tst	r4, #4
 752 00b6 02D0     		beq	.L96
 753              		.loc 1 559 0 is_stmt 0
 754 00b8 4FF00C0A 		mov	r10, #12
 755 00bc 01E0     		b	.L56
 756              	.L96:
 757 00be 4FF0080A 		mov	r10, #8
 758              	.L56:
 759              		.loc 1 559 0 discriminator 4
 760 00c2 4AEA0101 		orr	r1, r10, r1
 761 00c6 8CF80010 		strb	r1, [ip]
 560:pervasive_eink_hardware_driver.c ****                                         PV_EINK_BLACK1 : PV_EINK_WHITE1);
 561:pervasive_eink_hardware_driver.c ****                 dataLineOdd[x]      |= ((tempByte & PV_EINK_ODD_MASK_D)  ? 
 762              		.loc 1 561 0 is_stmt 1 discriminator 4
 763 00ca 14F0010F 		tst	r4, #1
 764 00ce 02D0     		beq	.L97
 765              		.loc 1 561 0 is_stmt 0
 766 00d0 4FF0030A 		mov	r10, #3
ARM GAS  C:\Users\User\AppData\Local\Temp\ccsn8eRz.s 			page 38


 767 00d4 01E0     		b	.L57
 768              	.L97:
 769 00d6 4FF0020A 		mov	r10, #2
 770              	.L57:
 771              		.loc 1 561 0 discriminator 4
 772 00da 4AEA0101 		orr	r1, r10, r1
 773 00de 8CF80010 		strb	r1, [ip]
 562:pervasive_eink_hardware_driver.c ****                                         PV_EINK_BLACK0 : PV_EINK_WHITE0);
 563:pervasive_eink_hardware_driver.c ****                 dataLineEven[k]      = ((tempByte & PV_EINK_EVEN_MASK_A) ? 
 774              		.loc 1 563 0 is_stmt 1 discriminator 4
 775 00e2 0EEB020C 		add	ip, lr, r2
 776 00e6 14F0800F 		tst	r4, #128
 777 00ea 01D0     		beq	.L98
 778              		.loc 1 563 0 is_stmt 0
 779 00ec 0321     		movs	r1, #3
 780 00ee 00E0     		b	.L58
 781              	.L98:
 782 00f0 0221     		movs	r1, #2
 783              	.L58:
 784              		.loc 1 563 0 discriminator 4
 785 00f2 8CF80010 		strb	r1, [ip]
 564:pervasive_eink_hardware_driver.c ****                                         PV_EINK_BLACK0 : PV_EINK_WHITE0);
 565:pervasive_eink_hardware_driver.c ****                 dataLineEven[k]     |= ((tempByte & PV_EINK_EVEN_MASK_B) ? 
 786              		.loc 1 565 0 is_stmt 1 discriminator 4
 787 00f6 49B2     		sxtb	r1, r1
 788 00f8 14F0200F 		tst	r4, #32
 789 00fc 02D0     		beq	.L99
 790              		.loc 1 565 0 is_stmt 0
 791 00fe 4FF00C0A 		mov	r10, #12
 792 0102 01E0     		b	.L59
 793              	.L99:
 794 0104 4FF0080A 		mov	r10, #8
 795              	.L59:
 796              		.loc 1 565 0 discriminator 4
 797 0108 4AEA0101 		orr	r1, r10, r1
 798 010c 8CF80010 		strb	r1, [ip]
 566:pervasive_eink_hardware_driver.c ****                                         PV_EINK_BLACK1 : PV_EINK_WHITE1);
 567:pervasive_eink_hardware_driver.c ****                 dataLineEven[k]     |= ((tempByte & PV_EINK_EVEN_MASK_C) ? 
 799              		.loc 1 567 0 is_stmt 1 discriminator 4
 800 0110 14F0080F 		tst	r4, #8
 801 0114 02D0     		beq	.L100
 802              		.loc 1 567 0 is_stmt 0
 803 0116 4FF0300A 		mov	r10, #48
 804 011a 01E0     		b	.L60
 805              	.L100:
 806 011c 4FF0200A 		mov	r10, #32
 807              	.L60:
 808              		.loc 1 567 0 discriminator 4
 809 0120 4AEA0101 		orr	r1, r10, r1
 810 0124 8CF80010 		strb	r1, [ip]
 568:pervasive_eink_hardware_driver.c ****                                         PV_EINK_BLACK2 : PV_EINK_WHITE2);
 569:pervasive_eink_hardware_driver.c ****                 dataLineEven[k--]   |= ((tempByte & PV_EINK_EVEN_MASK_D) ? 
 811              		.loc 1 569 0 is_stmt 1 discriminator 4
 812 0128 013A     		subs	r2, r2, #1
 813              	.LVL90:
 814 012a 92B2     		uxth	r2, r2
 815              	.LVL91:
ARM GAS  C:\Users\User\AppData\Local\Temp\ccsn8eRz.s 			page 39


 816 012c 14F0020F 		tst	r4, #2
 817 0130 02D0     		beq	.L101
 818              		.loc 1 569 0 is_stmt 0
 819 0132 6FF03F0A 		mvn	r10, #63
 820 0136 01E0     		b	.L61
 821              	.L101:
 822 0138 6FF07F0A 		mvn	r10, #127
 823              	.L61:
 824              		.loc 1 569 0 discriminator 4
 825 013c 4AEA0101 		orr	r1, r10, r1
 826 0140 8CF80010 		strb	r1, [ip]
 570:pervasive_eink_hardware_driver.c ****                                         PV_EINK_BLACK3 : PV_EINK_WHITE3);
 571:pervasive_eink_hardware_driver.c ****                 break;
 827              		.loc 1 571 0 is_stmt 1 discriminator 4
 828 0144 28E1     		b	.L48
 829              	.L51:
 572:pervasive_eink_hardware_driver.c ****             /* Stage 2: Calculate the Even and Odd bytes of an all-white
 573:pervasive_eink_hardware_driver.c ****                frame */
 574:pervasive_eink_hardware_driver.c ****             case PV_EINK_STAGE2:
 575:pervasive_eink_hardware_driver.c ****                 dataLineOdd[x]       = ((tempByte & PV_EINK_ODD_MASK_A)  ? 
 830              		.loc 1 575 0
 831 0146 00EB030C 		add	ip, r0, r3
 832 014a 14F0400F 		tst	r4, #64
 833 014e 01D0     		beq	.L102
 834 0150 8021     		movs	r1, #128
 835 0152 00E0     		b	.L62
 836              	.L102:
 837 0154 4021     		movs	r1, #64
 838              	.L62:
 839              		.loc 1 575 0 is_stmt 0 discriminator 4
 840 0156 8CF80010 		strb	r1, [ip]
 576:pervasive_eink_hardware_driver.c ****                                         PV_EINK_WHITE3 : PV_EINK_NOTHING3);
 577:pervasive_eink_hardware_driver.c ****                 dataLineOdd[x]      |= ((tempByte & PV_EINK_ODD_MASK_B)  ? 
 841              		.loc 1 577 0 is_stmt 1 discriminator 4
 842 015a 49B2     		sxtb	r1, r1
 843 015c 14F0100F 		tst	r4, #16
 844 0160 02D0     		beq	.L103
 845              		.loc 1 577 0 is_stmt 0
 846 0162 4FF0200A 		mov	r10, #32
 847 0166 01E0     		b	.L63
 848              	.L103:
 849 0168 4FF0100A 		mov	r10, #16
 850              	.L63:
 851              		.loc 1 577 0 discriminator 4
 852 016c 4AEA0101 		orr	r1, r10, r1
 853 0170 8CF80010 		strb	r1, [ip]
 578:pervasive_eink_hardware_driver.c ****                                         PV_EINK_WHITE2 : PV_EINK_NOTHING2);
 579:pervasive_eink_hardware_driver.c ****                 dataLineOdd[x]      |= ((tempByte & PV_EINK_ODD_MASK_C)  ? 
 854              		.loc 1 579 0 is_stmt 1 discriminator 4
 855 0174 14F0040F 		tst	r4, #4
 856 0178 02D0     		beq	.L104
 857              		.loc 1 579 0 is_stmt 0
 858 017a 4FF0080A 		mov	r10, #8
 859 017e 01E0     		b	.L64
 860              	.L104:
 861 0180 4FF0040A 		mov	r10, #4
 862              	.L64:
ARM GAS  C:\Users\User\AppData\Local\Temp\ccsn8eRz.s 			page 40


 863              		.loc 1 579 0 discriminator 4
 864 0184 4AEA0101 		orr	r1, r10, r1
 865 0188 8CF80010 		strb	r1, [ip]
 580:pervasive_eink_hardware_driver.c ****                                         PV_EINK_WHITE1 : PV_EINK_NOTHING1);
 581:pervasive_eink_hardware_driver.c ****                 dataLineOdd[x]      |= ((tempByte & PV_EINK_ODD_MASK_D)  ? 
 866              		.loc 1 581 0 is_stmt 1 discriminator 4
 867 018c 14F0010F 		tst	r4, #1
 868 0190 02D0     		beq	.L105
 869              		.loc 1 581 0 is_stmt 0
 870 0192 4FF0020A 		mov	r10, #2
 871 0196 01E0     		b	.L65
 872              	.L105:
 873 0198 4FF0010A 		mov	r10, #1
 874              	.L65:
 875              		.loc 1 581 0 discriminator 4
 876 019c 4AEA0101 		orr	r1, r10, r1
 877 01a0 8CF80010 		strb	r1, [ip]
 582:pervasive_eink_hardware_driver.c ****                                         PV_EINK_WHITE0 : PV_EINK_NOTHING0);
 583:pervasive_eink_hardware_driver.c ****                 dataLineEven[k]      = ((tempByte & PV_EINK_EVEN_MASK_A) ?
 878              		.loc 1 583 0 is_stmt 1 discriminator 4
 879 01a4 0EEB020C 		add	ip, lr, r2
 880 01a8 14F0800F 		tst	r4, #128
 881 01ac 01D0     		beq	.L106
 882              		.loc 1 583 0 is_stmt 0
 883 01ae 0221     		movs	r1, #2
 884 01b0 00E0     		b	.L66
 885              	.L106:
 886 01b2 0121     		movs	r1, #1
 887              	.L66:
 888              		.loc 1 583 0 discriminator 4
 889 01b4 8CF80010 		strb	r1, [ip]
 584:pervasive_eink_hardware_driver.c ****                                         PV_EINK_WHITE0 : PV_EINK_NOTHING0);
 585:pervasive_eink_hardware_driver.c ****                 dataLineEven[k]     |= ((tempByte & PV_EINK_EVEN_MASK_B) ? 
 890              		.loc 1 585 0 is_stmt 1 discriminator 4
 891 01b8 49B2     		sxtb	r1, r1
 892 01ba 14F0200F 		tst	r4, #32
 893 01be 02D0     		beq	.L107
 894              		.loc 1 585 0 is_stmt 0
 895 01c0 4FF0080A 		mov	r10, #8
 896 01c4 01E0     		b	.L67
 897              	.L107:
 898 01c6 4FF0040A 		mov	r10, #4
 899              	.L67:
 900              		.loc 1 585 0 discriminator 4
 901 01ca 4AEA0101 		orr	r1, r10, r1
 902 01ce 8CF80010 		strb	r1, [ip]
 586:pervasive_eink_hardware_driver.c ****                                         PV_EINK_WHITE1 : PV_EINK_NOTHING1);
 587:pervasive_eink_hardware_driver.c ****                 dataLineEven[k]     |= ((tempByte & PV_EINK_EVEN_MASK_C) ? 
 903              		.loc 1 587 0 is_stmt 1 discriminator 4
 904 01d2 14F0080F 		tst	r4, #8
 905 01d6 02D0     		beq	.L108
 906              		.loc 1 587 0 is_stmt 0
 907 01d8 4FF0200A 		mov	r10, #32
 908 01dc 01E0     		b	.L68
 909              	.L108:
 910 01de 4FF0100A 		mov	r10, #16
 911              	.L68:
ARM GAS  C:\Users\User\AppData\Local\Temp\ccsn8eRz.s 			page 41


 912              		.loc 1 587 0 discriminator 4
 913 01e2 4AEA0101 		orr	r1, r10, r1
 914 01e6 8CF80010 		strb	r1, [ip]
 588:pervasive_eink_hardware_driver.c ****                                         PV_EINK_WHITE2 : PV_EINK_NOTHING2);
 589:pervasive_eink_hardware_driver.c ****                 dataLineEven[k--]   |= ((tempByte & PV_EINK_EVEN_MASK_D) ? 
 915              		.loc 1 589 0 is_stmt 1 discriminator 4
 916 01ea 013A     		subs	r2, r2, #1
 917              	.LVL92:
 918 01ec 92B2     		uxth	r2, r2
 919              	.LVL93:
 920 01ee 14F0020F 		tst	r4, #2
 921 01f2 02D0     		beq	.L109
 922              		.loc 1 589 0 is_stmt 0
 923 01f4 6FF07F0A 		mvn	r10, #127
 924 01f8 01E0     		b	.L69
 925              	.L109:
 926 01fa 4FF0400A 		mov	r10, #64
 927              	.L69:
 928              		.loc 1 589 0 discriminator 4
 929 01fe 4AEA0101 		orr	r1, r10, r1
 930 0202 8CF80010 		strb	r1, [ip]
 590:pervasive_eink_hardware_driver.c ****                                         PV_EINK_WHITE3 : PV_EINK_NOTHING3);
 591:pervasive_eink_hardware_driver.c ****                 break;
 931              		.loc 1 591 0 is_stmt 1 discriminator 4
 932 0206 C7E0     		b	.L48
 933              	.L52:
 592:pervasive_eink_hardware_driver.c ****             /* Stage 3: Calculate the inverted Even and Odd bytes of the
 593:pervasive_eink_hardware_driver.c ****                new image data */
 594:pervasive_eink_hardware_driver.c ****             case PV_EINK_STAGE3:
 595:pervasive_eink_hardware_driver.c ****                 dataLineOdd[x]       = ((tempByte & PV_EINK_ODD_MASK_A)  ? 
 934              		.loc 1 595 0
 935 0208 00EB030C 		add	ip, r0, r3
 936 020c 14F0400F 		tst	r4, #64
 937 0210 01D0     		beq	.L110
 938 0212 C021     		movs	r1, #192
 939 0214 00E0     		b	.L70
 940              	.L110:
 941 0216 4021     		movs	r1, #64
 942              	.L70:
 943              		.loc 1 595 0 is_stmt 0 discriminator 4
 944 0218 8CF80010 		strb	r1, [ip]
 596:pervasive_eink_hardware_driver.c ****                                         PV_EINK_BLACK3 : PV_EINK_NOTHING3);
 597:pervasive_eink_hardware_driver.c ****                 dataLineOdd[x]      |= ((tempByte & PV_EINK_ODD_MASK_B)  ? 
 945              		.loc 1 597 0 is_stmt 1 discriminator 4
 946 021c 49B2     		sxtb	r1, r1
 947 021e 14F0100F 		tst	r4, #16
 948 0222 02D0     		beq	.L111
 949              		.loc 1 597 0 is_stmt 0
 950 0224 4FF0300A 		mov	r10, #48
 951 0228 01E0     		b	.L71
 952              	.L111:
 953 022a 4FF0100A 		mov	r10, #16
 954              	.L71:
 955              		.loc 1 597 0 discriminator 4
 956 022e 4AEA0101 		orr	r1, r10, r1
 957 0232 8CF80010 		strb	r1, [ip]
 598:pervasive_eink_hardware_driver.c ****                                         PV_EINK_BLACK2 : PV_EINK_NOTHING2);
ARM GAS  C:\Users\User\AppData\Local\Temp\ccsn8eRz.s 			page 42


 599:pervasive_eink_hardware_driver.c ****                 dataLineOdd[x]      |= ((tempByte & PV_EINK_ODD_MASK_C)  ?
 958              		.loc 1 599 0 is_stmt 1 discriminator 4
 959 0236 14F0040F 		tst	r4, #4
 960 023a 02D0     		beq	.L112
 961              		.loc 1 599 0 is_stmt 0
 962 023c 4FF00C0A 		mov	r10, #12
 963 0240 01E0     		b	.L72
 964              	.L112:
 965 0242 4FF0040A 		mov	r10, #4
 966              	.L72:
 967              		.loc 1 599 0 discriminator 4
 968 0246 4AEA0101 		orr	r1, r10, r1
 969 024a 8CF80010 		strb	r1, [ip]
 600:pervasive_eink_hardware_driver.c ****                                         PV_EINK_BLACK1 : PV_EINK_NOTHING1);
 601:pervasive_eink_hardware_driver.c ****                 dataLineOdd[x]      |= ((tempByte & PV_EINK_ODD_MASK_D)  ?
 970              		.loc 1 601 0 is_stmt 1 discriminator 4
 971 024e 14F0010F 		tst	r4, #1
 972 0252 02D0     		beq	.L113
 973              		.loc 1 601 0 is_stmt 0
 974 0254 4FF0030A 		mov	r10, #3
 975 0258 01E0     		b	.L73
 976              	.L113:
 977 025a 4FF0010A 		mov	r10, #1
 978              	.L73:
 979              		.loc 1 601 0 discriminator 4
 980 025e 4AEA0101 		orr	r1, r10, r1
 981 0262 8CF80010 		strb	r1, [ip]
 602:pervasive_eink_hardware_driver.c ****                                         PV_EINK_BLACK0 : PV_EINK_NOTHING0);
 603:pervasive_eink_hardware_driver.c ****                 dataLineEven[k]      = ((tempByte & PV_EINK_EVEN_MASK_A) ?
 982              		.loc 1 603 0 is_stmt 1 discriminator 4
 983 0266 0EEB020C 		add	ip, lr, r2
 984 026a 14F0800F 		tst	r4, #128
 985 026e 01D0     		beq	.L114
 986              		.loc 1 603 0 is_stmt 0
 987 0270 0321     		movs	r1, #3
 988 0272 00E0     		b	.L74
 989              	.L114:
 990 0274 0121     		movs	r1, #1
 991              	.L74:
 992              		.loc 1 603 0 discriminator 4
 993 0276 8CF80010 		strb	r1, [ip]
 604:pervasive_eink_hardware_driver.c ****                                         PV_EINK_BLACK0 : PV_EINK_NOTHING0);
 605:pervasive_eink_hardware_driver.c ****                 dataLineEven[k]     |= ((tempByte & PV_EINK_EVEN_MASK_B) ? 
 994              		.loc 1 605 0 is_stmt 1 discriminator 4
 995 027a 49B2     		sxtb	r1, r1
 996 027c 14F0200F 		tst	r4, #32
 997 0280 02D0     		beq	.L115
 998              		.loc 1 605 0 is_stmt 0
 999 0282 4FF00C0A 		mov	r10, #12
 1000 0286 01E0     		b	.L75
 1001              	.L115:
 1002 0288 4FF0040A 		mov	r10, #4
 1003              	.L75:
 1004              		.loc 1 605 0 discriminator 4
 1005 028c 4AEA0101 		orr	r1, r10, r1
 1006 0290 8CF80010 		strb	r1, [ip]
 606:pervasive_eink_hardware_driver.c ****                                         PV_EINK_BLACK1 : PV_EINK_NOTHING1);
ARM GAS  C:\Users\User\AppData\Local\Temp\ccsn8eRz.s 			page 43


 607:pervasive_eink_hardware_driver.c ****                 dataLineEven[k]     |= ((tempByte & PV_EINK_EVEN_MASK_C) ? 
 1007              		.loc 1 607 0 is_stmt 1 discriminator 4
 1008 0294 14F0080F 		tst	r4, #8
 1009 0298 02D0     		beq	.L116
 1010              		.loc 1 607 0 is_stmt 0
 1011 029a 4FF0300A 		mov	r10, #48
 1012 029e 01E0     		b	.L76
 1013              	.L116:
 1014 02a0 4FF0100A 		mov	r10, #16
 1015              	.L76:
 1016              		.loc 1 607 0 discriminator 4
 1017 02a4 4AEA0101 		orr	r1, r10, r1
 1018 02a8 8CF80010 		strb	r1, [ip]
 608:pervasive_eink_hardware_driver.c ****                                         PV_EINK_BLACK2 : PV_EINK_NOTHING2);
 609:pervasive_eink_hardware_driver.c ****                 dataLineEven[k--]   |= ((tempByte & PV_EINK_EVEN_MASK_D) ? 
 1019              		.loc 1 609 0 is_stmt 1 discriminator 4
 1020 02ac 013A     		subs	r2, r2, #1
 1021              	.LVL94:
 1022 02ae 92B2     		uxth	r2, r2
 1023              	.LVL95:
 1024 02b0 14F0020F 		tst	r4, #2
 1025 02b4 02D0     		beq	.L117
 1026              		.loc 1 609 0 is_stmt 0
 1027 02b6 6FF03F0A 		mvn	r10, #63
 1028 02ba 01E0     		b	.L77
 1029              	.L117:
 1030 02bc 4FF0400A 		mov	r10, #64
 1031              	.L77:
 1032              		.loc 1 609 0 discriminator 4
 1033 02c0 4AEA0101 		orr	r1, r10, r1
 1034 02c4 8CF80010 		strb	r1, [ip]
 610:pervasive_eink_hardware_driver.c ****                                         PV_EINK_BLACK3 : PV_EINK_NOTHING3);
 611:pervasive_eink_hardware_driver.c ****                 break;
 1035              		.loc 1 611 0 is_stmt 1 discriminator 4
 1036 02c8 66E0     		b	.L48
 1037              	.L53:
 612:pervasive_eink_hardware_driver.c ****             /* Stage 4: Calculate the Even and Odd bytes of new image 
 613:pervasive_eink_hardware_driver.c ****                data */
 614:pervasive_eink_hardware_driver.c ****             case PV_EINK_STAGE4:
 615:pervasive_eink_hardware_driver.c ****                 dataLineOdd[x]       = ((tempByte & PV_EINK_ODD_MASK_A)  ? 
 1038              		.loc 1 615 0
 1039 02ca 00EB030C 		add	ip, r0, r3
 1040 02ce 14F0400F 		tst	r4, #64
 1041 02d2 01D0     		beq	.L118
 1042 02d4 8021     		movs	r1, #128
 1043 02d6 00E0     		b	.L78
 1044              	.L118:
 1045 02d8 C021     		movs	r1, #192
 1046              	.L78:
 1047              		.loc 1 615 0 is_stmt 0 discriminator 4
 1048 02da 8CF80010 		strb	r1, [ip]
 616:pervasive_eink_hardware_driver.c ****                                         PV_EINK_WHITE3 : PV_EINK_BLACK3);
 617:pervasive_eink_hardware_driver.c ****                 dataLineOdd[x]      |= ((tempByte & PV_EINK_ODD_MASK_B)  ?
 1049              		.loc 1 617 0 is_stmt 1 discriminator 4
 1050 02de 49B2     		sxtb	r1, r1
 1051 02e0 14F0100F 		tst	r4, #16
 1052 02e4 02D0     		beq	.L119
ARM GAS  C:\Users\User\AppData\Local\Temp\ccsn8eRz.s 			page 44


 1053              		.loc 1 617 0 is_stmt 0
 1054 02e6 4FF0200A 		mov	r10, #32
 1055 02ea 01E0     		b	.L79
 1056              	.L119:
 1057 02ec 4FF0300A 		mov	r10, #48
 1058              	.L79:
 1059              		.loc 1 617 0 discriminator 4
 1060 02f0 4AEA0101 		orr	r1, r10, r1
 1061 02f4 8CF80010 		strb	r1, [ip]
 618:pervasive_eink_hardware_driver.c ****                                         PV_EINK_WHITE2 : PV_EINK_BLACK2);
 619:pervasive_eink_hardware_driver.c ****                 dataLineOdd[x]      |= ((tempByte & PV_EINK_ODD_MASK_C)  ? 
 1062              		.loc 1 619 0 is_stmt 1 discriminator 4
 1063 02f8 14F0040F 		tst	r4, #4
 1064 02fc 02D0     		beq	.L120
 1065              		.loc 1 619 0 is_stmt 0
 1066 02fe 4FF0080A 		mov	r10, #8
 1067 0302 01E0     		b	.L80
 1068              	.L120:
 1069 0304 4FF00C0A 		mov	r10, #12
 1070              	.L80:
 1071              		.loc 1 619 0 discriminator 4
 1072 0308 4AEA0101 		orr	r1, r10, r1
 1073 030c 8CF80010 		strb	r1, [ip]
 620:pervasive_eink_hardware_driver.c ****                                         PV_EINK_WHITE1 : PV_EINK_BLACK1);
 621:pervasive_eink_hardware_driver.c ****                 dataLineOdd[x]      |= ((tempByte & PV_EINK_ODD_MASK_D)  ? 
 1074              		.loc 1 621 0 is_stmt 1 discriminator 4
 1075 0310 14F0010F 		tst	r4, #1
 1076 0314 02D0     		beq	.L121
 1077              		.loc 1 621 0 is_stmt 0
 1078 0316 4FF0020A 		mov	r10, #2
 1079 031a 01E0     		b	.L81
 1080              	.L121:
 1081 031c 4FF0030A 		mov	r10, #3
 1082              	.L81:
 1083              		.loc 1 621 0 discriminator 4
 1084 0320 4AEA0101 		orr	r1, r10, r1
 1085 0324 8CF80010 		strb	r1, [ip]
 622:pervasive_eink_hardware_driver.c ****                                         PV_EINK_WHITE0 : PV_EINK_BLACK0);
 623:pervasive_eink_hardware_driver.c ****                 dataLineEven[k]     = ((tempByte & PV_EINK_EVEN_MASK_A)  ? 
 1086              		.loc 1 623 0 is_stmt 1 discriminator 4
 1087 0328 0EEB020C 		add	ip, lr, r2
 1088 032c 14F0800F 		tst	r4, #128
 1089 0330 08D0     		beq	.L122
 1090              		.loc 1 623 0 is_stmt 0
 1091 0332 0221     		movs	r1, #2
 1092 0334 07E0     		b	.L82
 1093              	.L128:
 1094 0336 00BF     		.align	2
 1095              	.L127:
 1096 0338 FFFF0F10 		.word	269484031
 1097 033c 00000000 		.word	.LANCHOR0
 1098 0340 00000000 		.word	bulkDriverPacket
 1099              	.L122:
 1100 0344 0321     		movs	r1, #3
 1101              	.L82:
 1102              		.loc 1 623 0 discriminator 4
 1103 0346 8CF80010 		strb	r1, [ip]
ARM GAS  C:\Users\User\AppData\Local\Temp\ccsn8eRz.s 			page 45


 624:pervasive_eink_hardware_driver.c ****                                         PV_EINK_WHITE0 : PV_EINK_BLACK0);
 625:pervasive_eink_hardware_driver.c ****                 dataLineEven[k]     |= ((tempByte & PV_EINK_EVEN_MASK_B) ? 
 1104              		.loc 1 625 0 is_stmt 1 discriminator 4
 1105 034a 49B2     		sxtb	r1, r1
 1106 034c 14F0200F 		tst	r4, #32
 1107 0350 02D0     		beq	.L123
 1108              		.loc 1 625 0 is_stmt 0
 1109 0352 4FF0080A 		mov	r10, #8
 1110 0356 01E0     		b	.L83
 1111              	.L123:
 1112 0358 4FF00C0A 		mov	r10, #12
 1113              	.L83:
 1114              		.loc 1 625 0 discriminator 4
 1115 035c 4AEA0101 		orr	r1, r10, r1
 1116 0360 8CF80010 		strb	r1, [ip]
 626:pervasive_eink_hardware_driver.c ****                                         PV_EINK_WHITE1 : PV_EINK_BLACK1);
 627:pervasive_eink_hardware_driver.c ****                 dataLineEven[k]     |= ((tempByte & PV_EINK_EVEN_MASK_C) ?
 1117              		.loc 1 627 0 is_stmt 1 discriminator 4
 1118 0364 14F0080F 		tst	r4, #8
 1119 0368 02D0     		beq	.L124
 1120              		.loc 1 627 0 is_stmt 0
 1121 036a 4FF0200A 		mov	r10, #32
 1122 036e 01E0     		b	.L84
 1123              	.L124:
 1124 0370 4FF0300A 		mov	r10, #48
 1125              	.L84:
 1126              		.loc 1 627 0 discriminator 4
 1127 0374 4AEA0101 		orr	r1, r10, r1
 1128 0378 8CF80010 		strb	r1, [ip]
 628:pervasive_eink_hardware_driver.c ****                                         PV_EINK_WHITE2 : PV_EINK_BLACK2);
 629:pervasive_eink_hardware_driver.c ****                 dataLineEven[k--]   |= ((tempByte & PV_EINK_EVEN_MASK_D) ? 
 1129              		.loc 1 629 0 is_stmt 1 discriminator 4
 1130 037c 013A     		subs	r2, r2, #1
 1131              	.LVL96:
 1132 037e 92B2     		uxth	r2, r2
 1133              	.LVL97:
 1134 0380 14F0020F 		tst	r4, #2
 1135 0384 02D0     		beq	.L125
 1136              		.loc 1 629 0 is_stmt 0
 1137 0386 6FF07F0A 		mvn	r10, #127
 1138 038a 01E0     		b	.L85
 1139              	.L125:
 1140 038c 6FF03F0A 		mvn	r10, #63
 1141              	.L85:
 1142              		.loc 1 629 0 discriminator 4
 1143 0390 4AEA0101 		orr	r1, r10, r1
 1144 0394 8CF80010 		strb	r1, [ip]
 1145              	.L48:
 541:pervasive_eink_hardware_driver.c ****         {
 1146              		.loc 1 541 0 is_stmt 1 discriminator 2
 1147 0398 0133     		adds	r3, r3, #1
 1148              	.LVL98:
 1149 039a 9BB2     		uxth	r3, r3
 1150              	.LVL99:
 1151              	.L46:
 541:pervasive_eink_hardware_driver.c ****         {
 1152              		.loc 1 541 0 is_stmt 0 discriminator 1
ARM GAS  C:\Users\User\AppData\Local\Temp\ccsn8eRz.s 			page 46


 1153 039c 202B     		cmp	r3, #32
 1154 039e 7FF665AE 		bls	.L86
 1155              	.LVL100:
 630:pervasive_eink_hardware_driver.c ****                                         PV_EINK_WHITE3 : PV_EINK_BLACK3);
 631:pervasive_eink_hardware_driver.c ****                 break;
 632:pervasive_eink_hardware_driver.c ****             }
 633:pervasive_eink_hardware_driver.c ****         }
 634:pervasive_eink_hardware_driver.c ****         /* Move onto the next line */
 635:pervasive_eink_hardware_driver.c ****         scanlineNumber = PV_EINK_VERTICAL_SIZE - y;
 636:pervasive_eink_hardware_driver.c ****         scanlineNumber--;
 1156              		.loc 1 636 0 is_stmt 1 discriminator 2
 1157 03a2 C8F1AF03 		rsb	r3, r8, #175
 1158              	.LVL101:
 1159 03a6 1BB2     		sxth	r3, r3
 1160              	.LVL102:
 637:pervasive_eink_hardware_driver.c ****         
 638:pervasive_eink_hardware_driver.c ****         /* Shift Scan byte according to the data line */
 639:pervasive_eink_hardware_driver.c ****         dataLineScan[(scanlineNumber >> PV_EINK_PIXEL_SIZE)] = scanTable
 1161              		.loc 1 639 0 discriminator 2
 1162 03a8 9910     		asrs	r1, r3, #2
 640:pervasive_eink_hardware_driver.c ****                             [(scanlineNumber % PV_EINK_SCAN_TABLE_SIZE)];
 1163              		.loc 1 640 0 discriminator 2
 1164 03aa 1A4A     		ldr	r2, .L129
 1165              	.LVL103:
 1166 03ac 1340     		ands	r3, r3, r2
 1167              	.LVL104:
 1168 03ae 03D5     		bpl	.L87
 1169 03b0 013B     		subs	r3, r3, #1
 1170 03b2 63F00303 		orn	r3, r3, #3
 1171 03b6 0133     		adds	r3, r3, #1
 1172              	.L87:
 1173 03b8 174A     		ldr	r2, .L129+4
 1174 03ba 02FA83F3 		sxtah	r3, r2, r3
 1175 03be 1B7A     		ldrb	r3, [r3, #8]	@ zero_extendqisi2
 639:pervasive_eink_hardware_driver.c ****                             [(scanlineNumber % PV_EINK_SCAN_TABLE_SIZE)];
 1176              		.loc 1 639 0 discriminator 2
 1177 03c0 09F80130 		strb	r3, [r9, r1]
 525:pervasive_eink_hardware_driver.c ****     {
 1178              		.loc 1 525 0 discriminator 2
 1179 03c4 08F10108 		add	r8, r8, #1
 1180              	.LVL105:
 1181 03c8 1FFA88F8 		uxth	r8, r8
 1182              	.LVL106:
 1183              	.L45:
 525:pervasive_eink_hardware_driver.c ****     {
 1184              		.loc 1 525 0 is_stmt 0 discriminator 1
 1185 03cc B8F1AF0F 		cmp	r8, #175
 1186 03d0 7FF62BAE 		bls	.L88
 1187              	.LVL107:
 1188              	.L91:
 641:pervasive_eink_hardware_driver.c ****             
 642:pervasive_eink_hardware_driver.c ****     }
 643:pervasive_eink_hardware_driver.c ****             
 644:pervasive_eink_hardware_driver.c ****     /* Perform the update operation until the total time of frames exceed 
 645:pervasive_eink_hardware_driver.c ****        stage time */
 646:pervasive_eink_hardware_driver.c ****     do
 647:pervasive_eink_hardware_driver.c ****     {
ARM GAS  C:\Users\User\AppData\Local\Temp\ccsn8eRz.s 			page 47


 648:pervasive_eink_hardware_driver.c ****         /* Perform a line by line update */
 649:pervasive_eink_hardware_driver.c ****         for (y = 0; y < PV_EINK_VERTICAL_SIZE; y++)
 1189              		.loc 1 649 0 is_stmt 1
 1190 03d4 0024     		movs	r4, #0
 1191 03d6 0FE0     		b	.L89
 1192              	.LVL108:
 1193              	.L90:
 650:pervasive_eink_hardware_driver.c ****         {
 651:pervasive_eink_hardware_driver.c ****                 /* Send the prepared data to the E-INK display */
 652:pervasive_eink_hardware_driver.c ****             Pv_EINK_SendData(PV_EINK_PIXEL_DATA_COMMAND_INDEX,
 653:pervasive_eink_hardware_driver.c ****                           (uint8_t*) &bulkDriverPacket[y].lineBuffer,
 1194              		.loc 1 653 0 discriminator 3
 1195 03d8 C4EBC403 		rsb	r3, r4, r4, lsl #3
 1196 03dc C4EB0313 		rsb	r3, r4, r3, lsl #4
 652:pervasive_eink_hardware_driver.c ****                           (uint8_t*) &bulkDriverPacket[y].lineBuffer,
 1197              		.loc 1 652 0 discriminator 3
 1198 03e0 6F22     		movs	r2, #111
 1199 03e2 0E49     		ldr	r1, .L129+8
 1200 03e4 1944     		add	r1, r1, r3
 1201 03e6 0A20     		movs	r0, #10
 1202 03e8 FFF7FEFF 		bl	Pv_EINK_SendData
 1203              	.LVL109:
 654:pervasive_eink_hardware_driver.c ****                           PV_EINK_DATA_LINE_SIZE);
 655:pervasive_eink_hardware_driver.c ****                           
 656:pervasive_eink_hardware_driver.c ****             /* Turn on Output Enable to latch the frame */
 657:pervasive_eink_hardware_driver.c ****             Pv_EINK_SendByte(PV_EINK_ENABLE_OE_COMMAND_INDEX,
 1204              		.loc 1 657 0 discriminator 3
 1205 03ec 0721     		movs	r1, #7
 1206 03ee 0220     		movs	r0, #2
 1207 03f0 FFF7FEFF 		bl	Pv_EINK_SendByte
 1208              	.LVL110:
 649:pervasive_eink_hardware_driver.c ****         {
 1209              		.loc 1 649 0 discriminator 3
 1210 03f4 0134     		adds	r4, r4, #1
 1211              	.LVL111:
 1212 03f6 A4B2     		uxth	r4, r4
 1213              	.LVL112:
 1214              	.L89:
 649:pervasive_eink_hardware_driver.c ****         {
 1215              		.loc 1 649 0 is_stmt 0 discriminator 1
 1216 03f8 AF2C     		cmp	r4, #175
 1217 03fa EDD9     		bls	.L90
 658:pervasive_eink_hardware_driver.c ****                           PV_EINK_ENABLE_OE_COMMAND_DATA);
 659:pervasive_eink_hardware_driver.c ****         }
 660:pervasive_eink_hardware_driver.c ****     
 661:pervasive_eink_hardware_driver.c ****     }
 662:pervasive_eink_hardware_driver.c ****     /* Loop until the total time of frames exceed stage time */
 663:pervasive_eink_hardware_driver.c ****     while (fullUpdateTime > Cy_EINK_GetTimeTick());
 1218              		.loc 1 663 0 is_stmt 1
 1219 03fc 084B     		ldr	r3, .L129+12
 1220 03fe B3F87C40 		ldrh	r4, [r3, #124]
 1221              	.LVL113:
 1222 0402 FFF7FEFF 		bl	Cy_EINK_GetTimeTick
 1223              	.LVL114:
 1224 0406 8442     		cmp	r4, r0
 1225 0408 E4D8     		bhi	.L91
 664:pervasive_eink_hardware_driver.c ****     
ARM GAS  C:\Users\User\AppData\Local\Temp\ccsn8eRz.s 			page 48


 665:pervasive_eink_hardware_driver.c ****     /* Stop the E-INK Timer */
 666:pervasive_eink_hardware_driver.c ****     Cy_EINK_TimerStop();
 1226              		.loc 1 666 0
 1227 040a FFF7FEFF 		bl	Cy_EINK_TimerStop
 1228              	.LVL115:
 1229 040e BDE8F88F 		pop	{r3, r4, r5, r6, r7, r8, r9, r10, fp, pc}
 1230              	.LVL116:
 1231              	.L130:
 1232 0412 00BF     		.align	2
 1233              	.L129:
 1234 0414 03000080 		.word	-2147483645
 1235 0418 00000000 		.word	.LANCHOR1
 1236 041c 00000000 		.word	bulkDriverPacket
 1237 0420 00000000 		.word	.LANCHOR0
 1238              		.cfi_endproc
 1239              	.LFE653:
 1240              		.size	Pv_EINK_FullStageHandler, .-Pv_EINK_FullStageHandler
 1241              		.section	.text.Pv_EINK_PartialStageHandler,"ax",%progbits
 1242              		.align	2
 1243              		.global	Pv_EINK_PartialStageHandler
 1244              		.thumb
 1245              		.thumb_func
 1246              		.type	Pv_EINK_PartialStageHandler, %function
 1247              	Pv_EINK_PartialStageHandler:
 1248              	.LFB654:
 667:pervasive_eink_hardware_driver.c **** }
 668:pervasive_eink_hardware_driver.c **** 
 669:pervasive_eink_hardware_driver.c **** /*******************************************************************************
 670:pervasive_eink_hardware_driver.c **** * Function Name:  void Pv_EINK_PartialStageHandler(pv_eink_frame_data_t* 
 671:pervasive_eink_hardware_driver.c ****                             previousImagePtr, pv_eink_frame_data_t* newImagePtr)
 672:pervasive_eink_hardware_driver.c **** ********************************************************************************
 673:pervasive_eink_hardware_driver.c **** *
 674:pervasive_eink_hardware_driver.c **** * Summary: The partial update driving stage for getting Odd and Even bytes, and
 675:pervasive_eink_hardware_driver.c **** * then writing the data from memory array to E-INK driver.
 676:pervasive_eink_hardware_driver.c **** *
 677:pervasive_eink_hardware_driver.c **** * Partial update is similar to the last stage of full update. If the new data byte
 678:pervasive_eink_hardware_driver.c **** * is same as previous data byte, send a "nothing" pixel, so that E-INK pixel won't
 679:pervasive_eink_hardware_driver.c **** * be altered. If the new data byte is different from the previous data byte, send
 680:pervasive_eink_hardware_driver.c **** * the new data byte.
 681:pervasive_eink_hardware_driver.c **** * For more details on the driving stages, please refer to the driver G2 document
 682:pervasive_eink_hardware_driver.c **** * Section 5.
 683:pervasive_eink_hardware_driver.c **** *
 684:pervasive_eink_hardware_driver.c **** * Parameters:
 685:pervasive_eink_hardware_driver.c **** * pv_eink_frame_data_t* previousImagePtr : The pointer of memory that contains 
 686:pervasive_eink_hardware_driver.c **** *                                    previous frame written to the E-INK display
 687:pervasive_eink_hardware_driver.c **** * pv_eink_frame_data_t* newImagePtr      : The pointer of memory that contains a 
 688:pervasive_eink_hardware_driver.c **** *                       new frame which needs to be written to the E-INK display
 689:pervasive_eink_hardware_driver.c **** *
 690:pervasive_eink_hardware_driver.c **** * Return:
 691:pervasive_eink_hardware_driver.c **** *  None
 692:pervasive_eink_hardware_driver.c **** *
 693:pervasive_eink_hardware_driver.c **** * Side Effects:
 694:pervasive_eink_hardware_driver.c **** *  This is a blocking function. CPU will be busy during the entire operation,
 695:pervasive_eink_hardware_driver.c **** *  which can be 1 to 2 seconds. 
 696:pervasive_eink_hardware_driver.c **** *******************************************************************************/
 697:pervasive_eink_hardware_driver.c **** void Pv_EINK_PartialStageHandler(pv_eink_frame_data_t* previousImagePtr, 
 698:pervasive_eink_hardware_driver.c ****                                  pv_eink_frame_data_t* newImagePtr)
ARM GAS  C:\Users\User\AppData\Local\Temp\ccsn8eRz.s 			page 49


 699:pervasive_eink_hardware_driver.c **** {
 1249              		.loc 1 699 0
 1250              		.cfi_startproc
 1251              		@ args = 0, pretend = 0, frame = 0
 1252              		@ frame_needed = 0, uses_anonymous_args = 0
 1253              	.LVL117:
 1254 0000 2DE9F047 		push	{r4, r5, r6, r7, r8, r9, r10, lr}
 1255              		.cfi_def_cfa_offset 32
 1256              		.cfi_offset 4, -32
 1257              		.cfi_offset 5, -28
 1258              		.cfi_offset 6, -24
 1259              		.cfi_offset 7, -20
 1260              		.cfi_offset 8, -16
 1261              		.cfi_offset 9, -12
 1262              		.cfi_offset 10, -8
 1263              		.cfi_offset 14, -4
 1264 0004 0646     		mov	r6, r0
 1265 0006 0D46     		mov	r5, r1
 1266              	.LVL118:
 700:pervasive_eink_hardware_driver.c ****     /* Counter variable for the horizontal pixel loop */
 701:pervasive_eink_hardware_driver.c ****     uint16_t    x;
 702:pervasive_eink_hardware_driver.c ****     /* Counter variable for the vertical pixel loop */
 703:pervasive_eink_hardware_driver.c ****     uint16_t    y;
 704:pervasive_eink_hardware_driver.c ****     /* Counter variable for the horizontal byte loop */
 705:pervasive_eink_hardware_driver.c ****     uint16_t    k;
 706:pervasive_eink_hardware_driver.c ****     
 707:pervasive_eink_hardware_driver.c ****     /* Temporary storage for image data bytes */
 708:pervasive_eink_hardware_driver.c ****     uint8_t     oldByte;
 709:pervasive_eink_hardware_driver.c ****     /* Temporary storage for image data bytes */
 710:pervasive_eink_hardware_driver.c ****     uint8_t     newByte;
 711:pervasive_eink_hardware_driver.c ****     
 712:pervasive_eink_hardware_driver.c ****     /* Variable for storing the line number under scan */
 713:pervasive_eink_hardware_driver.c ****     int16       scanlineNumber = 0;
 714:pervasive_eink_hardware_driver.c ****     
 715:pervasive_eink_hardware_driver.c ****     /* Re-initialize E-INK timer to ensure the same duration of each stage  */
 716:pervasive_eink_hardware_driver.c ****     Cy_EINK_TimerInit();
 1267              		.loc 1 716 0
 1268 0008 FFF7FEFF 		bl	Cy_EINK_TimerInit
 1269              	.LVL119:
 717:pervasive_eink_hardware_driver.c ****     
 718:pervasive_eink_hardware_driver.c ****     /* Vcom level adjust */
 719:pervasive_eink_hardware_driver.c ****     Pv_EINK_SendByte(PV_EINK_VCOM2_LEVEL_COMMAND_INDEX,
 1270              		.loc 1 719 0
 1271 000c D221     		movs	r1, #210
 1272 000e 0920     		movs	r0, #9
 1273 0010 FFF7FEFF 		bl	Pv_EINK_SendByte
 1274              	.LVL120:
 720:pervasive_eink_hardware_driver.c ****                      PV_EINK_VCOM2_LEVEL_COMMAND_DATA);
 721:pervasive_eink_hardware_driver.c ****      
 722:pervasive_eink_hardware_driver.c ****     /* Vertical pixel loop */
 723:pervasive_eink_hardware_driver.c ****     for (y = 0; y < PV_EINK_VERTICAL_SIZE; y++)
 1275              		.loc 1 723 0
 1276 0014 0024     		movs	r4, #0
 1277 0016 C6E0     		b	.L132
 1278              	.LVL121:
 1279              	.L144:
 724:pervasive_eink_hardware_driver.c ****     {
ARM GAS  C:\Users\User\AppData\Local\Temp\ccsn8eRz.s 			page 50


 725:pervasive_eink_hardware_driver.c ****         /* Clear the line buffer with all zeros */
 726:pervasive_eink_hardware_driver.c ****         memset(&bulkDriverPacket[y].lineBuffer, 0, 
 1280              		.loc 1 726 0
 1281 0018 C4EBC407 		rsb	r7, r4, r4, lsl #3
 1282 001c C4EB0717 		rsb	r7, r4, r7, lsl #4
 1283 0020 DFF80082 		ldr	r8, .L165+12
 1284 0024 07EB0809 		add	r9, r7, r8
 1285 0028 6F22     		movs	r2, #111
 1286 002a 0021     		movs	r1, #0
 1287 002c 4846     		mov	r0, r9
 1288 002e FFF7FEFF 		bl	memset
 1289              	.LVL122:
 727:pervasive_eink_hardware_driver.c ****                sizeof(bulkDriverPacket[y].lineBuffer)) ;
 728:pervasive_eink_hardware_driver.c **** 
 729:pervasive_eink_hardware_driver.c ****         /* Initialize the even data, odd data and scan data pointers */
 730:pervasive_eink_hardware_driver.c ****         dataLineEven = &bulkDriverPacket[y].lineDataBySize.even[0];
 1290              		.loc 1 730 0
 1291 0032 09F1010C 		add	ip, r9, #1
 1292 0036 784B     		ldr	r3, .L165
 1293 0038 C3F870C0 		str	ip, [r3, #112]
 731:pervasive_eink_hardware_driver.c ****         dataLineOdd  = &bulkDriverPacket[y].lineDataBySize.odd[0];
 1294              		.loc 1 731 0
 1295 003c 07F1480E 		add	lr, r7, #72
 1296 0040 C644     		add	lr, lr, r8
 1297 0042 0EF1060E 		add	lr, lr, #6
 1298 0046 C3F874E0 		str	lr, [r3, #116]
 732:pervasive_eink_hardware_driver.c ****         dataLineScan = &bulkDriverPacket[y].lineDataBySize.scan[0];
 1299              		.loc 1 732 0
 1300 004a 2037     		adds	r7, r7, #32
 1301 004c B844     		add	r8, r8, r7
 1302 004e 08F10208 		add	r8, r8, #2
 1303 0052 C3F87880 		str	r8, [r3, #120]
 1304              	.LVL123:
 733:pervasive_eink_hardware_driver.c **** 
 734:pervasive_eink_hardware_driver.c ****         /* Horizontal bytes initialization */
 735:pervasive_eink_hardware_driver.c ****         k = PV_EINK_HORIZONTAL_SIZE;
 736:pervasive_eink_hardware_driver.c ****         k--;
 1305              		.loc 1 736 0
 1306 0056 2020     		movs	r0, #32
 737:pervasive_eink_hardware_driver.c ****         
 738:pervasive_eink_hardware_driver.c ****         /* Horizontal pixel loop */
 739:pervasive_eink_hardware_driver.c ****         for (x = 0; x < PV_EINK_HORIZONTAL_SIZE; x++)
 1307              		.loc 1 739 0
 1308 0058 0021     		movs	r1, #0
 1309 005a 8EE0     		b	.L133
 1310              	.LVL124:
 1311              	.L142:
 740:pervasive_eink_hardware_driver.c ****         {
 741:pervasive_eink_hardware_driver.c ****             /* Fetch successive data bytes */
 742:pervasive_eink_hardware_driver.c ****             oldByte = *previousImagePtr++;
 1312              		.loc 1 742 0
 1313 005c 771C     		adds	r7, r6, #1
 1314              	.LVL125:
 1315 005e 3278     		ldrb	r2, [r6]	@ zero_extendqisi2
 1316              	.LVL126:
 743:pervasive_eink_hardware_driver.c ****             newByte = *newImagePtr++;
 1317              		.loc 1 743 0
ARM GAS  C:\Users\User\AppData\Local\Temp\ccsn8eRz.s 			page 51


 1318 0060 6E1C     		adds	r6, r5, #1
 1319              	.LVL127:
 1320 0062 95F80090 		ldrb	r9, [r5]	@ zero_extendqisi2
 1321              	.LVL128:
 744:pervasive_eink_hardware_driver.c ****             
 745:pervasive_eink_hardware_driver.c ****             /* Calculate the Even and Odd bytes for partial update stage. Also, 
 746:pervasive_eink_hardware_driver.c ****                if the new data byte is same as the previous data byte, store a 
 747:pervasive_eink_hardware_driver.c ****                "nothing" pixel, so that the E-INK pixel won't be altered.
 748:pervasive_eink_hardware_driver.c ****                If the new data byte is different from the previous data byte, 
 749:pervasive_eink_hardware_driver.c ****                store the new data byte */
 750:pervasive_eink_hardware_driver.c ****             dataLineOdd[x]       = ((oldByte ^ newByte) & PV_EINK_ODD_MASK_A)
 1322              		.loc 1 750 0
 1323 0066 0EEB0105 		add	r5, lr, r1
 1324 006a 82EA0902 		eor	r2, r2, r9
 1325              	.LVL129:
 1326 006e 12F0400F 		tst	r2, #64
 1327 0072 04D0     		beq	.L148
 1328              		.loc 1 750 0 is_stmt 0 discriminator 1
 1329 0074 19F0400F 		tst	r9, #64
 1330 0078 03D0     		beq	.L149
 1331              		.loc 1 750 0
 1332 007a 8023     		movs	r3, #128
 1333 007c 02E0     		b	.L134
 1334              	.L148:
 1335 007e 4023     		movs	r3, #64
 1336 0080 00E0     		b	.L134
 1337              	.L149:
 1338 0082 C023     		movs	r3, #192
 1339              	.L134:
 1340              		.loc 1 750 0 discriminator 8
 1341 0084 2B70     		strb	r3, [r5]
 1342              	.LVL130:
 751:pervasive_eink_hardware_driver.c ****                                     ?((newByte & PV_EINK_ODD_MASK_A)
 752:pervasive_eink_hardware_driver.c ****                                     ? PV_EINK_WHITE3
 753:pervasive_eink_hardware_driver.c ****                                     : PV_EINK_BLACK3) : PV_EINK_NOTHING3;
 754:pervasive_eink_hardware_driver.c ****             dataLineOdd[x]      |= ((oldByte ^ newByte) & PV_EINK_ODD_MASK_B)
 1343              		.loc 1 754 0 is_stmt 1 discriminator 8
 1344 0086 5BB2     		sxtb	r3, r3
 1345 0088 12F0100F 		tst	r2, #16
 1346 008c 05D0     		beq	.L150
 1347              		.loc 1 754 0 is_stmt 0 discriminator 1
 1348 008e 19F0100F 		tst	r9, #16
 1349 0092 05D0     		beq	.L151
 1350              		.loc 1 754 0
 1351 0094 4FF0200A 		mov	r10, #32
 1352 0098 04E0     		b	.L135
 1353              	.L150:
 1354 009a 4FF0100A 		mov	r10, #16
 1355 009e 01E0     		b	.L135
 1356              	.L151:
 1357 00a0 4FF0300A 		mov	r10, #48
 1358              	.L135:
 1359              		.loc 1 754 0 discriminator 8
 1360 00a4 4AEA0303 		orr	r3, r10, r3
 1361 00a8 2B70     		strb	r3, [r5]
 755:pervasive_eink_hardware_driver.c ****                                     ?((newByte & PV_EINK_ODD_MASK_B) 
 756:pervasive_eink_hardware_driver.c ****                                     ? PV_EINK_WHITE2 
ARM GAS  C:\Users\User\AppData\Local\Temp\ccsn8eRz.s 			page 52


 757:pervasive_eink_hardware_driver.c ****                                     : PV_EINK_BLACK2) : PV_EINK_NOTHING2;
 758:pervasive_eink_hardware_driver.c ****             dataLineOdd[x]      |= ((oldByte ^ newByte) & PV_EINK_ODD_MASK_C)
 1362              		.loc 1 758 0 is_stmt 1 discriminator 8
 1363 00aa 12F0040F 		tst	r2, #4
 1364 00ae 05D0     		beq	.L152
 1365              		.loc 1 758 0 is_stmt 0 discriminator 1
 1366 00b0 19F0040F 		tst	r9, #4
 1367 00b4 05D0     		beq	.L153
 1368              		.loc 1 758 0
 1369 00b6 4FF0080A 		mov	r10, #8
 1370 00ba 04E0     		b	.L136
 1371              	.L152:
 1372 00bc 4FF0040A 		mov	r10, #4
 1373 00c0 01E0     		b	.L136
 1374              	.L153:
 1375 00c2 4FF00C0A 		mov	r10, #12
 1376              	.L136:
 1377              		.loc 1 758 0 discriminator 8
 1378 00c6 4AEA0303 		orr	r3, r10, r3
 1379 00ca 2B70     		strb	r3, [r5]
 759:pervasive_eink_hardware_driver.c ****                                     ?((newByte & PV_EINK_ODD_MASK_C) 
 760:pervasive_eink_hardware_driver.c ****                                     ? PV_EINK_WHITE1
 761:pervasive_eink_hardware_driver.c ****                                     : PV_EINK_BLACK1) : PV_EINK_NOTHING1;
 762:pervasive_eink_hardware_driver.c ****             dataLineOdd[x]      |= ((oldByte ^ newByte) & PV_EINK_ODD_MASK_D)
 1380              		.loc 1 762 0 is_stmt 1 discriminator 8
 1381 00cc 12F0010F 		tst	r2, #1
 1382 00d0 05D0     		beq	.L154
 1383              		.loc 1 762 0 is_stmt 0 discriminator 1
 1384 00d2 19F0010F 		tst	r9, #1
 1385 00d6 05D0     		beq	.L155
 1386              		.loc 1 762 0
 1387 00d8 4FF0020A 		mov	r10, #2
 1388 00dc 04E0     		b	.L137
 1389              	.L154:
 1390 00de 4FF0010A 		mov	r10, #1
 1391 00e2 01E0     		b	.L137
 1392              	.L155:
 1393 00e4 4FF0030A 		mov	r10, #3
 1394              	.L137:
 1395              		.loc 1 762 0 discriminator 8
 1396 00e8 4AEA0303 		orr	r3, r10, r3
 1397 00ec 2B70     		strb	r3, [r5]
 763:pervasive_eink_hardware_driver.c ****                                     ?((newByte & PV_EINK_ODD_MASK_D) 
 764:pervasive_eink_hardware_driver.c ****                                     ? PV_EINK_WHITE0 
 765:pervasive_eink_hardware_driver.c ****                                     : PV_EINK_BLACK0) : PV_EINK_NOTHING0;
 766:pervasive_eink_hardware_driver.c ****             dataLineEven[k]      = ((oldByte ^ newByte) & PV_EINK_EVEN_MASK_A)
 1398              		.loc 1 766 0 is_stmt 1 discriminator 8
 1399 00ee 0CEB0005 		add	r5, ip, r0
 1400 00f2 12F0800F 		tst	r2, #128
 1401 00f6 04D0     		beq	.L156
 1402              		.loc 1 766 0 is_stmt 0 discriminator 1
 1403 00f8 19F0800F 		tst	r9, #128
 1404 00fc 03D0     		beq	.L157
 1405              		.loc 1 766 0
 1406 00fe 0223     		movs	r3, #2
 1407 0100 02E0     		b	.L138
 1408              	.L156:
ARM GAS  C:\Users\User\AppData\Local\Temp\ccsn8eRz.s 			page 53


 1409 0102 0123     		movs	r3, #1
 1410 0104 00E0     		b	.L138
 1411              	.L157:
 1412 0106 0323     		movs	r3, #3
 1413              	.L138:
 1414              		.loc 1 766 0 discriminator 8
 1415 0108 2B70     		strb	r3, [r5]
 767:pervasive_eink_hardware_driver.c ****                                     ?((newByte & PV_EINK_EVEN_MASK_A) 
 768:pervasive_eink_hardware_driver.c ****                                     ? PV_EINK_WHITE0
 769:pervasive_eink_hardware_driver.c ****                                     : PV_EINK_BLACK0) : PV_EINK_NOTHING0;
 770:pervasive_eink_hardware_driver.c ****             dataLineEven[k]     |= ((oldByte ^ newByte) & PV_EINK_EVEN_MASK_B) 
 1416              		.loc 1 770 0 is_stmt 1 discriminator 8
 1417 010a 5BB2     		sxtb	r3, r3
 1418 010c 12F0200F 		tst	r2, #32
 1419 0110 05D0     		beq	.L158
 1420              		.loc 1 770 0 is_stmt 0 discriminator 1
 1421 0112 19F0200F 		tst	r9, #32
 1422 0116 05D0     		beq	.L159
 1423              		.loc 1 770 0
 1424 0118 4FF0080A 		mov	r10, #8
 1425 011c 04E0     		b	.L139
 1426              	.L158:
 1427 011e 4FF0040A 		mov	r10, #4
 1428 0122 01E0     		b	.L139
 1429              	.L159:
 1430 0124 4FF00C0A 		mov	r10, #12
 1431              	.L139:
 1432              		.loc 1 770 0 discriminator 8
 1433 0128 4AEA0303 		orr	r3, r10, r3
 1434 012c 2B70     		strb	r3, [r5]
 771:pervasive_eink_hardware_driver.c ****                                     ?((newByte & PV_EINK_EVEN_MASK_B) 
 772:pervasive_eink_hardware_driver.c ****                                     ? PV_EINK_WHITE1
 773:pervasive_eink_hardware_driver.c ****                                     : PV_EINK_BLACK1) : PV_EINK_NOTHING1;
 774:pervasive_eink_hardware_driver.c ****             dataLineEven[k]     |= ((oldByte ^ newByte) & PV_EINK_EVEN_MASK_C)
 1435              		.loc 1 774 0 is_stmt 1 discriminator 8
 1436 012e 12F0080F 		tst	r2, #8
 1437 0132 05D0     		beq	.L160
 1438              		.loc 1 774 0 is_stmt 0 discriminator 1
 1439 0134 19F0080F 		tst	r9, #8
 1440 0138 05D0     		beq	.L161
 1441              		.loc 1 774 0
 1442 013a 4FF0200A 		mov	r10, #32
 1443 013e 04E0     		b	.L140
 1444              	.L160:
 1445 0140 4FF0100A 		mov	r10, #16
 1446 0144 01E0     		b	.L140
 1447              	.L161:
 1448 0146 4FF0300A 		mov	r10, #48
 1449              	.L140:
 1450              		.loc 1 774 0 discriminator 8
 1451 014a 4AEA0303 		orr	r3, r10, r3
 1452 014e 2B70     		strb	r3, [r5]
 775:pervasive_eink_hardware_driver.c ****                                     ?((newByte & PV_EINK_EVEN_MASK_C) 
 776:pervasive_eink_hardware_driver.c ****                                     ? PV_EINK_WHITE2 
 777:pervasive_eink_hardware_driver.c ****                                     : PV_EINK_BLACK2) : PV_EINK_NOTHING2;
 778:pervasive_eink_hardware_driver.c ****             dataLineEven[k--]   |= ((oldByte ^ newByte) & PV_EINK_EVEN_MASK_D)
 1453              		.loc 1 778 0 is_stmt 1 discriminator 8
ARM GAS  C:\Users\User\AppData\Local\Temp\ccsn8eRz.s 			page 54


 1454 0150 0138     		subs	r0, r0, #1
 1455              	.LVL131:
 1456 0152 80B2     		uxth	r0, r0
 1457              	.LVL132:
 1458 0154 12F0020F 		tst	r2, #2
 1459 0158 05D0     		beq	.L162
 1460              		.loc 1 778 0 is_stmt 0 discriminator 1
 1461 015a 19F0020F 		tst	r9, #2
 1462 015e 04D0     		beq	.L163
 1463              		.loc 1 778 0
 1464 0160 6FF07F02 		mvn	r2, #127
 1465 0164 03E0     		b	.L141
 1466              	.L162:
 1467 0166 4022     		movs	r2, #64
 1468 0168 01E0     		b	.L141
 1469              	.L163:
 1470 016a 6FF03F02 		mvn	r2, #63
 1471              	.L141:
 1472              		.loc 1 778 0 discriminator 8
 1473 016e 1343     		orrs	r3, r3, r2
 1474 0170 2B70     		strb	r3, [r5]
 739:pervasive_eink_hardware_driver.c ****         {
 1475              		.loc 1 739 0 is_stmt 1 discriminator 8
 1476 0172 0131     		adds	r1, r1, #1
 1477              	.LVL133:
 1478 0174 89B2     		uxth	r1, r1
 1479              	.LVL134:
 743:pervasive_eink_hardware_driver.c ****             
 1480              		.loc 1 743 0 discriminator 8
 1481 0176 3546     		mov	r5, r6
 742:pervasive_eink_hardware_driver.c ****             newByte = *newImagePtr++;
 1482              		.loc 1 742 0 discriminator 8
 1483 0178 3E46     		mov	r6, r7
 1484              	.LVL135:
 1485              	.L133:
 739:pervasive_eink_hardware_driver.c ****         {
 1486              		.loc 1 739 0 discriminator 2
 1487 017a 2029     		cmp	r1, #32
 1488 017c 7FF66EAF 		bls	.L142
 1489              	.LVL136:
 779:pervasive_eink_hardware_driver.c ****                                     ?((newByte & PV_EINK_EVEN_MASK_D) 
 780:pervasive_eink_hardware_driver.c ****                                     ? PV_EINK_WHITE3 
 781:pervasive_eink_hardware_driver.c ****                                     : PV_EINK_BLACK3) : PV_EINK_NOTHING3;
 782:pervasive_eink_hardware_driver.c ****         }
 783:pervasive_eink_hardware_driver.c ****         /* Move onto the next line */
 784:pervasive_eink_hardware_driver.c ****         scanlineNumber = PV_EINK_VERTICAL_SIZE - y;
 785:pervasive_eink_hardware_driver.c ****         scanlineNumber--;
 1490              		.loc 1 785 0 discriminator 2
 1491 0180 C4F1AF03 		rsb	r3, r4, #175
 1492 0184 1BB2     		sxth	r3, r3
 1493              	.LVL137:
 786:pervasive_eink_hardware_driver.c ****         
 787:pervasive_eink_hardware_driver.c ****         /* Shift Scan byte according to the data line */
 788:pervasive_eink_hardware_driver.c ****         dataLineScan[(scanlineNumber >> PV_EINK_PIXEL_SIZE)] = scanTable
 1494              		.loc 1 788 0 discriminator 2
 1495 0186 9910     		asrs	r1, r3, #2
 1496              	.LVL138:
ARM GAS  C:\Users\User\AppData\Local\Temp\ccsn8eRz.s 			page 55


 789:pervasive_eink_hardware_driver.c ****                             [(scanlineNumber % PV_EINK_SCAN_TABLE_SIZE)];
 1497              		.loc 1 789 0 discriminator 2
 1498 0188 244A     		ldr	r2, .L165+4
 1499 018a 1340     		ands	r3, r3, r2
 1500              	.LVL139:
 1501 018c 03D5     		bpl	.L143
 1502 018e 013B     		subs	r3, r3, #1
 1503 0190 63F00303 		orn	r3, r3, #3
 1504 0194 0133     		adds	r3, r3, #1
 1505              	.L143:
 1506 0196 224A     		ldr	r2, .L165+8
 1507 0198 02FA83F3 		sxtah	r3, r2, r3
 1508 019c 1B7A     		ldrb	r3, [r3, #8]	@ zero_extendqisi2
 788:pervasive_eink_hardware_driver.c ****                             [(scanlineNumber % PV_EINK_SCAN_TABLE_SIZE)];
 1509              		.loc 1 788 0 discriminator 2
 1510 019e 08F80130 		strb	r3, [r8, r1]
 723:pervasive_eink_hardware_driver.c ****     {
 1511              		.loc 1 723 0 discriminator 2
 1512 01a2 0134     		adds	r4, r4, #1
 1513              	.LVL140:
 1514 01a4 A4B2     		uxth	r4, r4
 1515              	.LVL141:
 1516              	.L132:
 723:pervasive_eink_hardware_driver.c ****     {
 1517              		.loc 1 723 0 is_stmt 0 discriminator 1
 1518 01a6 AF2C     		cmp	r4, #175
 1519 01a8 7FF636AF 		bls	.L144
 1520              	.LVL142:
 1521              	.L147:
 790:pervasive_eink_hardware_driver.c ****     }
 791:pervasive_eink_hardware_driver.c ****     
 792:pervasive_eink_hardware_driver.c ****     /* Perform the update operation until the total time of frames exceed stage
 793:pervasive_eink_hardware_driver.c ****        time */
 794:pervasive_eink_hardware_driver.c ****     do
 795:pervasive_eink_hardware_driver.c ****     {
 796:pervasive_eink_hardware_driver.c ****         /* Perform a line by line update */
 797:pervasive_eink_hardware_driver.c ****         for (y = 0; y < PV_EINK_VERTICAL_SIZE; y++)
 1522              		.loc 1 797 0 is_stmt 1
 1523 01ac 0024     		movs	r4, #0
 1524 01ae 21E0     		b	.L145
 1525              	.LVL143:
 1526              	.L146:
 798:pervasive_eink_hardware_driver.c ****         {
 799:pervasive_eink_hardware_driver.c ****             /* Send the prepared data to the E-INK display */
 800:pervasive_eink_hardware_driver.c ****             Pv_EINK_SendData(PV_EINK_PIXEL_DATA_COMMAND_INDEX,
 801:pervasive_eink_hardware_driver.c ****                             (uint8_t*) &bulkDriverPacket[y].lineBuffer,
 1527              		.loc 1 801 0 discriminator 3
 1528 01b0 C4EBC405 		rsb	r5, r4, r4, lsl #3
 1529 01b4 C4EB0515 		rsb	r5, r4, r5, lsl #4
 1530 01b8 1A4B     		ldr	r3, .L165+12
 1531 01ba 1D44     		add	r5, r5, r3
 800:pervasive_eink_hardware_driver.c ****                             (uint8_t*) &bulkDriverPacket[y].lineBuffer,
 1532              		.loc 1 800 0 discriminator 3
 1533 01bc 6F22     		movs	r2, #111
 1534 01be 2946     		mov	r1, r5
 1535 01c0 0A20     		movs	r0, #10
 1536 01c2 FFF7FEFF 		bl	Pv_EINK_SendData
ARM GAS  C:\Users\User\AppData\Local\Temp\ccsn8eRz.s 			page 56


 1537              	.LVL144:
 802:pervasive_eink_hardware_driver.c ****                              PV_EINK_DATA_LINE_SIZE);
 803:pervasive_eink_hardware_driver.c ****             /* Turn on Output Enable to latch the frame */
 804:pervasive_eink_hardware_driver.c ****             Pv_EINK_SendByte(PV_EINK_ENABLE_OE_COMMAND_INDEX,
 1538              		.loc 1 804 0 discriminator 3
 1539 01c6 0721     		movs	r1, #7
 1540 01c8 0220     		movs	r0, #2
 1541 01ca FFF7FEFF 		bl	Pv_EINK_SendByte
 1542              	.LVL145:
 805:pervasive_eink_hardware_driver.c ****                              PV_EINK_ENABLE_OE_COMMAND_DATA);
 806:pervasive_eink_hardware_driver.c ****             
 807:pervasive_eink_hardware_driver.c ****             /* Calculate the current line under scan */
 808:pervasive_eink_hardware_driver.c ****             scanlineNumber = PV_EINK_VERTICAL_SIZE - y;
 809:pervasive_eink_hardware_driver.c ****             scanlineNumber--;
 1543              		.loc 1 809 0 discriminator 3
 1544 01ce C4F1AF03 		rsb	r3, r4, #175
 1545              	.LVL146:
 810:pervasive_eink_hardware_driver.c ****             
 811:pervasive_eink_hardware_driver.c ****             /* Re-initialize the scan line (extra step for partial update) */
 812:pervasive_eink_hardware_driver.c ****             bulkDriverPacket[y].lineDataBySize.scan[(scanlineNumber 
 813:pervasive_eink_hardware_driver.c ****                                                      >> PV_EINK_PIXEL_SIZE)]
 1546              		.loc 1 813 0 discriminator 3
 1547 01d2 43F38D03 		sbfx	r3, r3, #2, #14
 1548              	.LVL147:
 814:pervasive_eink_hardware_driver.c ****                                                      = PV_EINK_SCAN_BYTE_INIT;
 1549              		.loc 1 814 0 discriminator 3
 1550 01d6 2B44     		add	r3, r3, r5
 1551 01d8 0022     		movs	r2, #0
 1552 01da 83F82220 		strb	r2, [r3, #34]
 815:pervasive_eink_hardware_driver.c **** 
 816:pervasive_eink_hardware_driver.c ****             Pv_EINK_SendData(PV_EINK_PIXEL_DATA_COMMAND_INDEX,
 1553              		.loc 1 816 0 discriminator 3
 1554 01de 6F22     		movs	r2, #111
 1555 01e0 2946     		mov	r1, r5
 1556 01e2 0A20     		movs	r0, #10
 1557 01e4 FFF7FEFF 		bl	Pv_EINK_SendData
 1558              	.LVL148:
 817:pervasive_eink_hardware_driver.c ****                             (uint8_t*) &bulkDriverPacket[y].lineBuffer,
 818:pervasive_eink_hardware_driver.c ****                              PV_EINK_DATA_LINE_SIZE);
 819:pervasive_eink_hardware_driver.c ****             Pv_EINK_SendByte(PV_EINK_ENABLE_OE_COMMAND_INDEX,
 1559              		.loc 1 819 0 discriminator 3
 1560 01e8 0721     		movs	r1, #7
 1561 01ea 0220     		movs	r0, #2
 1562 01ec FFF7FEFF 		bl	Pv_EINK_SendByte
 1563              	.LVL149:
 797:pervasive_eink_hardware_driver.c ****         {
 1564              		.loc 1 797 0 discriminator 3
 1565 01f0 0134     		adds	r4, r4, #1
 1566              	.LVL150:
 1567 01f2 A4B2     		uxth	r4, r4
 1568              	.LVL151:
 1569              	.L145:
 797:pervasive_eink_hardware_driver.c ****         {
 1570              		.loc 1 797 0 is_stmt 0 discriminator 1
 1571 01f4 AF2C     		cmp	r4, #175
 1572 01f6 DBD9     		bls	.L146
 820:pervasive_eink_hardware_driver.c ****                              PV_EINK_ENABLE_OE_COMMAND_DATA);
ARM GAS  C:\Users\User\AppData\Local\Temp\ccsn8eRz.s 			page 57


 821:pervasive_eink_hardware_driver.c ****         }
 822:pervasive_eink_hardware_driver.c ****     }
 823:pervasive_eink_hardware_driver.c ****     /* Loop until the total time of frames exceed stage time */
 824:pervasive_eink_hardware_driver.c ****     while (partialUpdateTime > Cy_EINK_GetTimeTick());
 1573              		.loc 1 824 0 is_stmt 1
 1574 01f8 074B     		ldr	r3, .L165
 1575 01fa B3F87E40 		ldrh	r4, [r3, #126]
 1576              	.LVL152:
 1577 01fe FFF7FEFF 		bl	Cy_EINK_GetTimeTick
 1578              	.LVL153:
 1579 0202 8442     		cmp	r4, r0
 1580 0204 D2D8     		bhi	.L147
 825:pervasive_eink_hardware_driver.c ****     
 826:pervasive_eink_hardware_driver.c ****     /* Stop system timer */
 827:pervasive_eink_hardware_driver.c ****     Cy_EINK_TimerStop();
 1581              		.loc 1 827 0
 1582 0206 FFF7FEFF 		bl	Cy_EINK_TimerStop
 1583              	.LVL154:
 828:pervasive_eink_hardware_driver.c ****     
 829:pervasive_eink_hardware_driver.c ****     /* Re-adjust Vcom level */
 830:pervasive_eink_hardware_driver.c ****     Pv_EINK_SendByte(PV_EINK_VCOM1_LEVEL_COMMAND_INDEX, 
 1584              		.loc 1 830 0
 1585 020a C221     		movs	r1, #194
 1586 020c 0920     		movs	r0, #9
 1587 020e FFF7FEFF 		bl	Pv_EINK_SendByte
 1588              	.LVL155:
 1589 0212 BDE8F087 		pop	{r4, r5, r6, r7, r8, r9, r10, pc}
 1590              	.LVL156:
 1591              	.L166:
 1592 0216 00BF     		.align	2
 1593              	.L165:
 1594 0218 00000000 		.word	.LANCHOR0
 1595 021c 03000080 		.word	-2147483645
 1596 0220 00000000 		.word	.LANCHOR1
 1597 0224 00000000 		.word	bulkDriverPacket
 1598              		.cfi_endproc
 1599              	.LFE654:
 1600              		.size	Pv_EINK_PartialStageHandler, .-Pv_EINK_PartialStageHandler
 1601              		.section	.text.Pv_EINK_NothingFrame,"ax",%progbits
 1602              		.align	2
 1603              		.global	Pv_EINK_NothingFrame
 1604              		.thumb
 1605              		.thumb_func
 1606              		.type	Pv_EINK_NothingFrame, %function
 1607              	Pv_EINK_NothingFrame:
 1608              	.LFB655:
 831:pervasive_eink_hardware_driver.c ****                      PV_EINK_VCOM1_LEVEL_COMMAND_DATA);
 832:pervasive_eink_hardware_driver.c **** }
 833:pervasive_eink_hardware_driver.c **** 
 834:pervasive_eink_hardware_driver.c **** /*******************************************************************************
 835:pervasive_eink_hardware_driver.c **** * Function Name:  void Pv_EINK_NothingFrame(void)
 836:pervasive_eink_hardware_driver.c **** ********************************************************************************
 837:pervasive_eink_hardware_driver.c **** *
 838:pervasive_eink_hardware_driver.c **** * Summary: Write a "Nothing Frame" to driver. For a "Nothing Frame",
 839:pervasive_eink_hardware_driver.c **** * all pixel data D(x,y) are "01".
 840:pervasive_eink_hardware_driver.c **** * For more details, please refer to the driver G2 document Section 6.
 841:pervasive_eink_hardware_driver.c **** *
ARM GAS  C:\Users\User\AppData\Local\Temp\ccsn8eRz.s 			page 58


 842:pervasive_eink_hardware_driver.c **** * Parameters:
 843:pervasive_eink_hardware_driver.c **** *  None
 844:pervasive_eink_hardware_driver.c **** *
 845:pervasive_eink_hardware_driver.c **** * Return:
 846:pervasive_eink_hardware_driver.c **** *  None
 847:pervasive_eink_hardware_driver.c **** *
 848:pervasive_eink_hardware_driver.c **** * Side Effects:
 849:pervasive_eink_hardware_driver.c **** *  None
 850:pervasive_eink_hardware_driver.c **** *******************************************************************************/
 851:pervasive_eink_hardware_driver.c **** void Pv_EINK_NothingFrame(void)
 852:pervasive_eink_hardware_driver.c **** {
 1609              		.loc 1 852 0
 1610              		.cfi_startproc
 1611              		@ args = 0, pretend = 0, frame = 0
 1612              		@ frame_needed = 0, uses_anonymous_args = 0
 1613              	.LVL157:
 853:pervasive_eink_hardware_driver.c ****     /* Counter variable for data line bytes */
 854:pervasive_eink_hardware_driver.c ****     uint16_t    byteCounter;
 855:pervasive_eink_hardware_driver.c ****     
 856:pervasive_eink_hardware_driver.c ****     /* Set all Even and Odd data bytes as "Nothing" bytes */
 857:pervasive_eink_hardware_driver.c ****     for (byteCounter = 0; byteCounter < PV_EINK_HORIZONTAL_SIZE; byteCounter++)
 1614              		.loc 1 857 0
 1615 0000 0023     		movs	r3, #0
 1616 0002 07E0     		b	.L168
 1617              	.LVL158:
 1618              	.L169:
 858:pervasive_eink_hardware_driver.c ****     {
 859:pervasive_eink_hardware_driver.c ****         dataLineEven[byteCounter] = PV_EINK_NOTHING;
 1619              		.loc 1 859 0 discriminator 3
 1620 0004 1349     		ldr	r1, .L173
 1621 0006 086F     		ldr	r0, [r1, #112]
 1622 0008 5522     		movs	r2, #85
 1623 000a C254     		strb	r2, [r0, r3]
 860:pervasive_eink_hardware_driver.c ****         dataLineOdd[byteCounter] = PV_EINK_NOTHING;
 1624              		.loc 1 860 0 discriminator 3
 1625 000c 496F     		ldr	r1, [r1, #116]
 1626 000e CA54     		strb	r2, [r1, r3]
 857:pervasive_eink_hardware_driver.c ****     {
 1627              		.loc 1 857 0 discriminator 3
 1628 0010 0133     		adds	r3, r3, #1
 1629              	.LVL159:
 1630 0012 9BB2     		uxth	r3, r3
 1631              	.LVL160:
 1632              	.L168:
 857:pervasive_eink_hardware_driver.c ****     {
 1633              		.loc 1 857 0 is_stmt 0 discriminator 1
 1634 0014 202B     		cmp	r3, #32
 1635 0016 F5D9     		bls	.L169
 852:pervasive_eink_hardware_driver.c ****     /* Counter variable for data line bytes */
 1636              		.loc 1 852 0 is_stmt 1
 1637 0018 70B5     		push	{r4, r5, r6, lr}
 1638              		.cfi_def_cfa_offset 16
 1639              		.cfi_offset 4, -16
 1640              		.cfi_offset 5, -12
 1641              		.cfi_offset 6, -8
 1642              		.cfi_offset 14, -4
 1643 001a 0024     		movs	r4, #0
ARM GAS  C:\Users\User\AppData\Local\Temp\ccsn8eRz.s 			page 59


 1644 001c 16E0     		b	.L170
 1645              	.LVL161:
 1646              	.L171:
 861:pervasive_eink_hardware_driver.c ****     }
 862:pervasive_eink_hardware_driver.c ****     /* Send the same horizontal data for all vertical lines */
 863:pervasive_eink_hardware_driver.c ****     for (byteCounter = 0; byteCounter < PV_EINK_VERTICAL_SIZE; byteCounter++)
 864:pervasive_eink_hardware_driver.c ****     {
 865:pervasive_eink_hardware_driver.c ****         /* Scan byte shift per data line */
 866:pervasive_eink_hardware_driver.c ****         dataLineScan[(byteCounter >> PV_EINK_PIXEL_SIZE)] = scanTable
 1647              		.loc 1 866 0 discriminator 3
 1648 001e A608     		lsrs	r6, r4, #2
 1649 0020 0C4D     		ldr	r5, .L173
 1650 0022 AA6F     		ldr	r2, [r5, #120]
 867:pervasive_eink_hardware_driver.c ****                             [(byteCounter % PV_EINK_SCAN_TABLE_SIZE)];
 1651              		.loc 1 867 0 discriminator 3
 1652 0024 04F00303 		and	r3, r4, #3
 1653 0028 0B49     		ldr	r1, .L173+4
 1654 002a 0B44     		add	r3, r3, r1
 1655 002c 1B7A     		ldrb	r3, [r3, #8]	@ zero_extendqisi2
 866:pervasive_eink_hardware_driver.c ****                             [(byteCounter % PV_EINK_SCAN_TABLE_SIZE)];
 1656              		.loc 1 866 0 discriminator 3
 1657 002e 9355     		strb	r3, [r2, r6]
 868:pervasive_eink_hardware_driver.c ****         
 869:pervasive_eink_hardware_driver.c ****         /* Send the prepared data to the E-INK display */
 870:pervasive_eink_hardware_driver.c ****         Pv_EINK_SendData(PV_EINK_PIXEL_DATA_COMMAND_INDEX,
 1658              		.loc 1 870 0 discriminator 3
 1659 0030 6F22     		movs	r2, #111
 1660 0032 2946     		mov	r1, r5
 1661 0034 0A20     		movs	r0, #10
 1662 0036 FFF7FEFF 		bl	Pv_EINK_SendData
 1663              	.LVL162:
 871:pervasive_eink_hardware_driver.c ****                         (uint8_t*) &driverPacket.lineBuffer,
 872:pervasive_eink_hardware_driver.c ****                          PV_EINK_DATA_LINE_SIZE);
 873:pervasive_eink_hardware_driver.c ****         /* Turn on Output Enable to latch the frame */
 874:pervasive_eink_hardware_driver.c ****         Pv_EINK_SendByte(PV_EINK_ENABLE_OE_COMMAND_INDEX, 
 1664              		.loc 1 874 0 discriminator 3
 1665 003a 0721     		movs	r1, #7
 1666 003c 0220     		movs	r0, #2
 1667 003e FFF7FEFF 		bl	Pv_EINK_SendByte
 1668              	.LVL163:
 875:pervasive_eink_hardware_driver.c ****                          PV_EINK_ENABLE_OE_COMMAND_DATA);
 876:pervasive_eink_hardware_driver.c ****         
 877:pervasive_eink_hardware_driver.c ****         /* Initialize the next scan byte */
 878:pervasive_eink_hardware_driver.c ****         dataLineScan[(byteCounter >> PV_EINK_PIXEL_SIZE)] = 0u;
 1669              		.loc 1 878 0 discriminator 3
 1670 0042 AB6F     		ldr	r3, [r5, #120]
 1671 0044 0022     		movs	r2, #0
 1672 0046 9A55     		strb	r2, [r3, r6]
 863:pervasive_eink_hardware_driver.c ****     {
 1673              		.loc 1 863 0 discriminator 3
 1674 0048 0134     		adds	r4, r4, #1
 1675              	.LVL164:
 1676 004a A4B2     		uxth	r4, r4
 1677              	.LVL165:
 1678              	.L170:
 863:pervasive_eink_hardware_driver.c ****     {
 1679              		.loc 1 863 0 is_stmt 0 discriminator 1
ARM GAS  C:\Users\User\AppData\Local\Temp\ccsn8eRz.s 			page 60


 1680 004c AF2C     		cmp	r4, #175
 1681 004e E6D9     		bls	.L171
 879:pervasive_eink_hardware_driver.c ****     }
 880:pervasive_eink_hardware_driver.c **** }
 1682              		.loc 1 880 0 is_stmt 1
 1683 0050 70BD     		pop	{r4, r5, r6, pc}
 1684              	.LVL166:
 1685              	.L174:
 1686 0052 00BF     		.align	2
 1687              	.L173:
 1688 0054 00000000 		.word	.LANCHOR0
 1689 0058 00000000 		.word	.LANCHOR1
 1690              		.cfi_endproc
 1691              	.LFE655:
 1692              		.size	Pv_EINK_NothingFrame, .-Pv_EINK_NothingFrame
 1693              		.section	.text.Pv_EINK_DummyLine,"ax",%progbits
 1694              		.align	2
 1695              		.global	Pv_EINK_DummyLine
 1696              		.thumb
 1697              		.thumb_func
 1698              		.type	Pv_EINK_DummyLine, %function
 1699              	Pv_EINK_DummyLine:
 1700              	.LFB656:
 881:pervasive_eink_hardware_driver.c **** 
 882:pervasive_eink_hardware_driver.c **** /*******************************************************************************
 883:pervasive_eink_hardware_driver.c **** * Function Name:  void Pv_EINK_DummyLine(void)
 884:pervasive_eink_hardware_driver.c **** ********************************************************************************
 885:pervasive_eink_hardware_driver.c **** *
 886:pervasive_eink_hardware_driver.c **** * Summary: Write a "Dummy Line" to driver. For a "Dummy Line" , all pixel data
 887:pervasive_eink_hardware_driver.c **** * are "00". For more details, please refer to the driver G2 document Section 6.
 888:pervasive_eink_hardware_driver.c **** *
 889:pervasive_eink_hardware_driver.c **** * Parameters:
 890:pervasive_eink_hardware_driver.c **** *  None
 891:pervasive_eink_hardware_driver.c **** *
 892:pervasive_eink_hardware_driver.c **** * Return:
 893:pervasive_eink_hardware_driver.c **** *  None
 894:pervasive_eink_hardware_driver.c **** *
 895:pervasive_eink_hardware_driver.c **** * Side Effects:
 896:pervasive_eink_hardware_driver.c **** *  None
 897:pervasive_eink_hardware_driver.c **** *******************************************************************************/
 898:pervasive_eink_hardware_driver.c **** void Pv_EINK_DummyLine(void)
 899:pervasive_eink_hardware_driver.c **** {
 1701              		.loc 1 899 0
 1702              		.cfi_startproc
 1703              		@ args = 0, pretend = 0, frame = 0
 1704              		@ frame_needed = 0, uses_anonymous_args = 0
 1705 0000 08B5     		push	{r3, lr}
 1706              		.cfi_def_cfa_offset 8
 1707              		.cfi_offset 3, -8
 1708              		.cfi_offset 14, -4
 1709              	.LVL167:
 900:pervasive_eink_hardware_driver.c ****     /* Counter variable for data line bytes */
 901:pervasive_eink_hardware_driver.c ****     uint8_t byteCounter;
 902:pervasive_eink_hardware_driver.c ****     
 903:pervasive_eink_hardware_driver.c ****     /* Create a data line containing dummy bytes */
 904:pervasive_eink_hardware_driver.c ****     for (byteCounter = 0; byteCounter < (PV_EINK_VERTICAL_SIZE 
 1710              		.loc 1 904 0
ARM GAS  C:\Users\User\AppData\Local\Temp\ccsn8eRz.s 			page 61


 1711 0002 0023     		movs	r3, #0
 1712 0004 04E0     		b	.L176
 1713              	.LVL168:
 1714              	.L177:
 905:pervasive_eink_hardware_driver.c ****                                         / CY_EINK_BYTE_SIZE);
 906:pervasive_eink_hardware_driver.c ****          byteCounter++)
 907:pervasive_eink_hardware_driver.c ****     {
 908:pervasive_eink_hardware_driver.c ****         driverPacket.lineBuffer[byteCounter] = PV_EINK_DUMMY_BYTE;
 1715              		.loc 1 908 0
 1716 0006 0021     		movs	r1, #0
 1717 0008 094A     		ldr	r2, .L179
 1718 000a D154     		strb	r1, [r2, r3]
 906:pervasive_eink_hardware_driver.c ****     {
 1719              		.loc 1 906 0
 1720 000c 0133     		adds	r3, r3, #1
 1721              	.LVL169:
 1722 000e DBB2     		uxtb	r3, r3
 1723              	.LVL170:
 1724              	.L176:
 904:pervasive_eink_hardware_driver.c ****                                         / CY_EINK_BYTE_SIZE);
 1725              		.loc 1 904 0 discriminator 1
 1726 0010 152B     		cmp	r3, #21
 1727 0012 F8D9     		bls	.L177
 909:pervasive_eink_hardware_driver.c ****     }
 910:pervasive_eink_hardware_driver.c ****     
 911:pervasive_eink_hardware_driver.c ****     /* Set charge pump voltage level to reduce voltage shift */
 912:pervasive_eink_hardware_driver.c ****     Pv_EINK_SendByte(PV_EINK_PWR2_SETTING_COMMAND_INDEX, 
 1728              		.loc 1 912 0
 1729 0014 0021     		movs	r1, #0
 1730 0016 0420     		movs	r0, #4
 1731 0018 FFF7FEFF 		bl	Pv_EINK_SendByte
 1732              	.LVL171:
 913:pervasive_eink_hardware_driver.c ****                      PV_EINK_VOLTAGE_LEVEL);
 914:pervasive_eink_hardware_driver.c ****     /* Send the prepared data to the E-INK display */
 915:pervasive_eink_hardware_driver.c ****     Pv_EINK_SendData(PV_EINK_PIXEL_DATA_COMMAND_INDEX,
 1733              		.loc 1 915 0
 1734 001c 6F22     		movs	r2, #111
 1735 001e 0449     		ldr	r1, .L179
 1736 0020 0A20     		movs	r0, #10
 1737 0022 FFF7FEFF 		bl	Pv_EINK_SendData
 1738              	.LVL172:
 916:pervasive_eink_hardware_driver.c ****                     (uint8_t*) &driverPacket.lineBuffer, 
 917:pervasive_eink_hardware_driver.c ****                      PV_EINK_DATA_LINE_SIZE);
 918:pervasive_eink_hardware_driver.c ****     /* Turn on Output Enable to latch the frame */
 919:pervasive_eink_hardware_driver.c ****     Pv_EINK_SendByte(PV_EINK_ENABLE_OE_COMMAND_INDEX, 
 1739              		.loc 1 919 0
 1740 0026 0721     		movs	r1, #7
 1741 0028 0220     		movs	r0, #2
 1742 002a FFF7FEFF 		bl	Pv_EINK_SendByte
 1743              	.LVL173:
 1744 002e 08BD     		pop	{r3, pc}
 1745              	.L180:
 1746              		.align	2
 1747              	.L179:
 1748 0030 00000000 		.word	.LANCHOR0
 1749              		.cfi_endproc
 1750              	.LFE656:
ARM GAS  C:\Users\User\AppData\Local\Temp\ccsn8eRz.s 			page 62


 1751              		.size	Pv_EINK_DummyLine, .-Pv_EINK_DummyLine
 1752              		.section	.text.Pv_EINK_HardwarePowerOn,"ax",%progbits
 1753              		.align	2
 1754              		.global	Pv_EINK_HardwarePowerOn
 1755              		.thumb
 1756              		.thumb_func
 1757              		.type	Pv_EINK_HardwarePowerOn, %function
 1758              	Pv_EINK_HardwarePowerOn:
 1759              	.LFB657:
 920:pervasive_eink_hardware_driver.c ****                      PV_EINK_ENABLE_OE_COMMAND_DATA);
 921:pervasive_eink_hardware_driver.c **** }
 922:pervasive_eink_hardware_driver.c **** 
 923:pervasive_eink_hardware_driver.c **** /*******************************************************************************
 924:pervasive_eink_hardware_driver.c **** * Function Name: pv_eink_status_t Pv_EINK_HardwarePowerOn()
 925:pervasive_eink_hardware_driver.c **** ********************************************************************************
 926:pervasive_eink_hardware_driver.c **** *
 927:pervasive_eink_hardware_driver.c **** * Summary: Power on E-INK Driver. For detailed flow and description, please refer
 928:pervasive_eink_hardware_driver.c **** * to the driver G2 document Section 3.
 929:pervasive_eink_hardware_driver.c **** *
 930:pervasive_eink_hardware_driver.c **** * Parameters:
 931:pervasive_eink_hardware_driver.c **** *  None
 932:pervasive_eink_hardware_driver.c **** *
 933:pervasive_eink_hardware_driver.c **** * Return:
 934:pervasive_eink_hardware_driver.c **** *  pv_eink_status_t: Status of the power on operation
 935:pervasive_eink_hardware_driver.c **** *
 936:pervasive_eink_hardware_driver.c **** * Side Effects:
 937:pervasive_eink_hardware_driver.c **** *  None
 938:pervasive_eink_hardware_driver.c **** *******************************************************************************/
 939:pervasive_eink_hardware_driver.c **** pv_eink_status_t Pv_EINK_HardwarePowerOn(void)
 940:pervasive_eink_hardware_driver.c **** {
 1760              		.loc 1 940 0
 1761              		.cfi_startproc
 1762              		@ args = 0, pretend = 0, frame = 0
 1763              		@ frame_needed = 0, uses_anonymous_args = 0
 1764 0000 38B5     		push	{r3, r4, r5, lr}
 1765              		.cfi_def_cfa_offset 16
 1766              		.cfi_offset 3, -16
 1767              		.cfi_offset 4, -12
 1768              		.cfi_offset 5, -8
 1769              		.cfi_offset 14, -4
 1770              	.LVL174:
 1771              	.LBB86:
 1772              	.LBB87:
 1773              		.loc 2 753 0
 1774 0002 0E4C     		ldr	r4, .L183
 1775 0004 1023     		movs	r3, #16
 1776 0006 A360     		str	r3, [r4, #8]
 1777              	.LVL175:
 1778              	.LBE87:
 1779              	.LBE86:
 941:pervasive_eink_hardware_driver.c ****     /* Enable the load switch connected to E-INK display's Vcc, and wait till
 942:pervasive_eink_hardware_driver.c ****     the voltage ramps up to the level required for proper operation of E-INK */
 943:pervasive_eink_hardware_driver.c ****     CY_EINK_TurnOnVcc;
 944:pervasive_eink_hardware_driver.c ****     CY_EINK_Delay(PV_EINK_PWR_DELAY);
 1780              		.loc 1 944 0
 1781 0008 1420     		movs	r0, #20
 1782 000a FFF7FEFF 		bl	Cy_SysLib_Delay
ARM GAS  C:\Users\User\AppData\Local\Temp\ccsn8eRz.s 			page 63


 1783              	.LVL176:
 945:pervasive_eink_hardware_driver.c ****     
 946:pervasive_eink_hardware_driver.c ****     /* Attach PSoC's SPI hardware to E-INK driver */
 947:pervasive_eink_hardware_driver.c ****     Cy_EINK_AttachSPI();
 1784              		.loc 1 947 0
 1785 000e FFF7FEFF 		bl	Cy_EINK_AttachSPI
 1786              	.LVL177:
 1787              	.LBB88:
 1788              	.LBB89:
 1789              		.loc 2 753 0
 1790 0012 0822     		movs	r2, #8
 1791 0014 0A4B     		ldr	r3, .L183+4
 1792 0016 9A60     		str	r2, [r3, #8]
 1793              	.LVL178:
 1794              	.LBE89:
 1795              	.LBE88:
 1796              	.LBB90:
 1797              	.LBB91:
 1798 0018 4023     		movs	r3, #64
 1799 001a A360     		str	r3, [r4, #8]
 1800              	.LVL179:
 1801              	.LBE91:
 1802              	.LBE90:
 1803              	.LBB92:
 1804              	.LBB93:
 1805 001c 0425     		movs	r5, #4
 1806 001e A560     		str	r5, [r4, #8]
 1807              	.LVL180:
 1808              	.LBE93:
 1809              	.LBE92:
 948:pervasive_eink_hardware_driver.c ****     /* Push the chip select, and border pins to HIGH */
 949:pervasive_eink_hardware_driver.c ****     CY_EINK_CsHigh;
 950:pervasive_eink_hardware_driver.c ****     CY_EINK_BorderHigh;
 951:pervasive_eink_hardware_driver.c ****     
 952:pervasive_eink_hardware_driver.c ****     /* Create two pulses on the reset line to properly reset the E-INK driver */
 953:pervasive_eink_hardware_driver.c ****     CY_EINK_RstHigh;
 954:pervasive_eink_hardware_driver.c ****     CY_EINK_Delay(PV_EINK_PIN_DELAY);
 1810              		.loc 1 954 0
 1811 0020 0A20     		movs	r0, #10
 1812 0022 FFF7FEFF 		bl	Cy_SysLib_Delay
 1813              	.LVL181:
 1814              	.LBB94:
 1815              	.LBB95:
 749:Generated_Source\PSoC6\pdl\drivers/peripheral/gpio/cy_gpio.h ****     }
 1816              		.loc 2 749 0
 1817 0026 6560     		str	r5, [r4, #4]
 1818              	.LVL182:
 1819              	.LBE95:
 1820              	.LBE94:
 955:pervasive_eink_hardware_driver.c ****     CY_EINK_RstLow;
 956:pervasive_eink_hardware_driver.c ****     CY_EINK_Delay(PV_EINK_PIN_DELAY);
 1821              		.loc 1 956 0
 1822 0028 0A20     		movs	r0, #10
 1823 002a FFF7FEFF 		bl	Cy_SysLib_Delay
 1824              	.LVL183:
 1825              	.LBB96:
 1826              	.LBB97:
ARM GAS  C:\Users\User\AppData\Local\Temp\ccsn8eRz.s 			page 64


 1827              		.loc 2 753 0
 1828 002e A560     		str	r5, [r4, #8]
 1829              	.LVL184:
 1830              	.LBE97:
 1831              	.LBE96:
 957:pervasive_eink_hardware_driver.c ****     CY_EINK_RstHigh;
 958:pervasive_eink_hardware_driver.c ****     CY_EINK_Delay(PV_EINK_PIN_DELAY);
 1832              		.loc 1 958 0
 1833 0030 0A20     		movs	r0, #10
 1834 0032 FFF7FEFF 		bl	Cy_SysLib_Delay
 1835              	.LVL185:
 959:pervasive_eink_hardware_driver.c ****     
 960:pervasive_eink_hardware_driver.c ****     /* Initialize E-INK Driver */
 961:pervasive_eink_hardware_driver.c ****     return(Pv_EINK_InitDriver());
 1836              		.loc 1 961 0
 1837 0036 FFF7FEFF 		bl	Pv_EINK_InitDriver
 1838              	.LVL186:
 962:pervasive_eink_hardware_driver.c **** }
 1839              		.loc 1 962 0
 1840 003a 38BD     		pop	{r3, r4, r5, pc}
 1841              	.L184:
 1842              		.align	2
 1843              	.L183:
 1844 003c 80023240 		.word	1077019264
 1845 0040 00063240 		.word	1077020160
 1846              		.cfi_endproc
 1847              	.LFE657:
 1848              		.size	Pv_EINK_HardwarePowerOn, .-Pv_EINK_HardwarePowerOn
 1849              		.section	.text.Pv_EINK_HardwarePowerOff,"ax",%progbits
 1850              		.align	2
 1851              		.global	Pv_EINK_HardwarePowerOff
 1852              		.thumb
 1853              		.thumb_func
 1854              		.type	Pv_EINK_HardwarePowerOff, %function
 1855              	Pv_EINK_HardwarePowerOff:
 1856              	.LFB658:
 963:pervasive_eink_hardware_driver.c **** 
 964:pervasive_eink_hardware_driver.c **** /*******************************************************************************
 965:pervasive_eink_hardware_driver.c **** * Function Name:  pv_eink_status_t Pv_EINK_HardwarePowerOff(void)
 966:pervasive_eink_hardware_driver.c **** ********************************************************************************
 967:pervasive_eink_hardware_driver.c **** *
 968:pervasive_eink_hardware_driver.c **** * Summary: Safely power off the E-INK display. For detailed flow and description,
 969:pervasive_eink_hardware_driver.c **** * please refer to the driver G2 document Section 6.
 970:pervasive_eink_hardware_driver.c **** *
 971:pervasive_eink_hardware_driver.c **** * Parameters:
 972:pervasive_eink_hardware_driver.c **** *  None
 973:pervasive_eink_hardware_driver.c **** *
 974:pervasive_eink_hardware_driver.c **** * Return:
 975:pervasive_eink_hardware_driver.c **** *  pv_eink_status_t : Status of the power off operation
 976:pervasive_eink_hardware_driver.c **** *
 977:pervasive_eink_hardware_driver.c **** * Side Effects:
 978:pervasive_eink_hardware_driver.c **** *  None
 979:pervasive_eink_hardware_driver.c **** *******************************************************************************/
 980:pervasive_eink_hardware_driver.c **** pv_eink_status_t Pv_EINK_HardwarePowerOff(void)
 981:pervasive_eink_hardware_driver.c **** {
 1857              		.loc 1 981 0
 1858              		.cfi_startproc
ARM GAS  C:\Users\User\AppData\Local\Temp\ccsn8eRz.s 			page 65


 1859              		@ args = 0, pretend = 0, frame = 0
 1860              		@ frame_needed = 0, uses_anonymous_args = 0
 1861 0000 38B5     		push	{r3, r4, r5, lr}
 1862              		.cfi_def_cfa_offset 16
 1863              		.cfi_offset 3, -16
 1864              		.cfi_offset 4, -12
 1865              		.cfi_offset 5, -8
 1866              		.cfi_offset 14, -4
 982:pervasive_eink_hardware_driver.c ****     /* Send a "Nothing Frame", followed by a "Dummy Line" to the E-INK driver */
 983:pervasive_eink_hardware_driver.c ****     Pv_EINK_NothingFrame();
 1867              		.loc 1 983 0
 1868 0002 FFF7FEFF 		bl	Pv_EINK_NothingFrame
 1869              	.LVL187:
 984:pervasive_eink_hardware_driver.c ****     Pv_EINK_DummyLine();
 1870              		.loc 1 984 0
 1871 0006 FFF7FEFF 		bl	Pv_EINK_DummyLine
 1872              	.LVL188:
 985:pervasive_eink_hardware_driver.c ****     
 986:pervasive_eink_hardware_driver.c ****     /* After E-INK updates, the border color may degrade to a gray level that is not
 987:pervasive_eink_hardware_driver.c ****     as white as the active area. Toggle the Border pin to avoid this phenomenon. */
 988:pervasive_eink_hardware_driver.c ****     CY_EINK_Delay(PV_EINK_DUMMY_LINE_DELAY);
 1873              		.loc 1 988 0
 1874 000a 1E20     		movs	r0, #30
 1875 000c FFF7FEFF 		bl	Cy_SysLib_Delay
 1876              	.LVL189:
 1877              	.LBB98:
 1878              	.LBB99:
 749:Generated_Source\PSoC6\pdl\drivers/peripheral/gpio/cy_gpio.h ****     }
 1879              		.loc 2 749 0
 1880 0010 234C     		ldr	r4, .L189
 1881 0012 4025     		movs	r5, #64
 1882 0014 6560     		str	r5, [r4, #4]
 1883              	.LVL190:
 1884              	.LBE99:
 1885              	.LBE98:
 989:pervasive_eink_hardware_driver.c ****     CY_EINK_BorderLow;
 990:pervasive_eink_hardware_driver.c ****     CY_EINK_Delay(PV_EINK_BOARDER_DELAY);
 1886              		.loc 1 990 0
 1887 0016 3220     		movs	r0, #50
 1888 0018 FFF7FEFF 		bl	Cy_SysLib_Delay
 1889              	.LVL191:
 1890              	.LBB100:
 1891              	.LBB101:
 1892              		.loc 2 753 0
 1893 001c A560     		str	r5, [r4, #8]
 1894              	.LVL192:
 1895              	.LBE101:
 1896              	.LBE100:
 991:pervasive_eink_hardware_driver.c ****     CY_EINK_BorderHigh;
 992:pervasive_eink_hardware_driver.c ****     
 993:pervasive_eink_hardware_driver.c ****     /* Check DC level */
 994:pervasive_eink_hardware_driver.c ****     if ((Pv_EINK_ReadByte(PV_EINK_DC_LEVEL_READ_COMMAND_INDEX,
 1897              		.loc 1 994 0
 1898 001e 0021     		movs	r1, #0
 1899 0020 0F20     		movs	r0, #15
 1900 0022 FFF7FEFF 		bl	Pv_EINK_ReadByte
 1901              	.LVL193:
ARM GAS  C:\Users\User\AppData\Local\Temp\ccsn8eRz.s 			page 66


 1902 0026 10F0400F 		tst	r0, #64
 1903 002a 36D0     		beq	.L187
 995:pervasive_eink_hardware_driver.c ****                        PV_EINK_DC_LEVEL_READ_COMMAND_DATA) & PV_EINK_DC_LEVEL_MASK
 996:pervasive_eink_hardware_driver.c ****         ) == PV_EINK_DC_LEVEL_CHECK)
 997:pervasive_eink_hardware_driver.c ****     {
 998:pervasive_eink_hardware_driver.c ****         /* Return error message for improper DC level */
 999:pervasive_eink_hardware_driver.c ****         return(PV_EINK_ERROR_DC);
1000:pervasive_eink_hardware_driver.c ****     }
1001:pervasive_eink_hardware_driver.c ****     
1002:pervasive_eink_hardware_driver.c ****     /* Power Saving */
1003:pervasive_eink_hardware_driver.c ****     Pv_EINK_SendByte(PV_EINK_PWR_SAVING_COMMAND_INDEX,
 1904              		.loc 1 1003 0
 1905 002c 0021     		movs	r1, #0
 1906 002e 0B20     		movs	r0, #11
 1907 0030 FFF7FEFF 		bl	Pv_EINK_SendByte
 1908              	.LVL194:
1004:pervasive_eink_hardware_driver.c ****                      PV_EINK_PWR2_SAVING_COMMAND_DATA);
1005:pervasive_eink_hardware_driver.c ****     /* Turn on Latch Reset */
1006:pervasive_eink_hardware_driver.c ****     Pv_EINK_SendByte(PV_EINK_LATCH_ON_COMMAND_INDEX,
 1909              		.loc 1 1006 0
 1910 0034 0121     		movs	r1, #1
 1911 0036 0320     		movs	r0, #3
 1912 0038 FFF7FEFF 		bl	Pv_EINK_SendByte
 1913              	.LVL195:
1007:pervasive_eink_hardware_driver.c ****                      PV_EINK_LATCH_ON_COMMAND_DATA);
1008:pervasive_eink_hardware_driver.c ****     /* Power off charge pump Vcom */
1009:pervasive_eink_hardware_driver.c ****     Pv_EINK_SendByte(PV_EINK_VGL_VDL_ON_COMMAND_INDEX,
 1914              		.loc 1 1009 0
 1915 003c 0321     		movs	r1, #3
 1916 003e 0520     		movs	r0, #5
 1917 0040 FFF7FEFF 		bl	Pv_EINK_SendByte
 1918              	.LVL196:
1010:pervasive_eink_hardware_driver.c ****                      PV_EINK_VGL_VDL_ON_COMMAND_DATA);
1011:pervasive_eink_hardware_driver.c ****     /* Power off charge pump negative voltage */
1012:pervasive_eink_hardware_driver.c ****     Pv_EINK_SendByte(PV_EINK_VGH_VDH_ON_COMMAND_INDEX,
 1919              		.loc 1 1012 0
 1920 0044 0121     		movs	r1, #1
 1921 0046 0520     		movs	r0, #5
 1922 0048 FFF7FEFF 		bl	Pv_EINK_SendByte
 1923              	.LVL197:
1013:pervasive_eink_hardware_driver.c ****                      PV_EINK_VGH_VDH_ON_COMMAND_DATA);
1014:pervasive_eink_hardware_driver.c ****     
1015:pervasive_eink_hardware_driver.c ****     CY_EINK_Delay(PV_EINK_DISCH_SPI_DELAY);
 1924              		.loc 1 1015 0
 1925 004c 3220     		movs	r0, #50
 1926 004e FFF7FEFF 		bl	Cy_SysLib_Delay
 1927              	.LVL198:
1016:pervasive_eink_hardware_driver.c ****     /* Discharge internal SPI */
1017:pervasive_eink_hardware_driver.c ****     Pv_EINK_SendByte(PV_EINK_DISCH_SPI_COMMAND_INDEX, 
 1928              		.loc 1 1017 0
 1929 0052 8021     		movs	r1, #128
 1930 0054 0420     		movs	r0, #4
 1931 0056 FFF7FEFF 		bl	Pv_EINK_SendByte
 1932              	.LVL199:
1018:pervasive_eink_hardware_driver.c ****                      PV_EINK_DISCH_SPI_COMMAND_DATA);
1019:pervasive_eink_hardware_driver.c ****     /* Turn off all charge pump */
1020:pervasive_eink_hardware_driver.c ****     Pv_EINK_SendByte(PV_EINK_CH_PUMP_OFF_COMMAND_INDEX, 
ARM GAS  C:\Users\User\AppData\Local\Temp\ccsn8eRz.s 			page 67


 1933              		.loc 1 1020 0
 1934 005a 0021     		movs	r1, #0
 1935 005c 0520     		movs	r0, #5
 1936 005e FFF7FEFF 		bl	Pv_EINK_SendByte
 1937              	.LVL200:
1021:pervasive_eink_hardware_driver.c ****                      PV_EINK_CH_PUMP_OFF_COMMAND_DATA);
1022:pervasive_eink_hardware_driver.c ****     /* Turn off OSC */
1023:pervasive_eink_hardware_driver.c ****     Pv_EINK_SendByte(PV_EINK_OSC_OFF_COMMAND_INDEX, 
 1938              		.loc 1 1023 0
 1939 0062 0121     		movs	r1, #1
 1940 0064 0720     		movs	r0, #7
 1941 0066 FFF7FEFF 		bl	Pv_EINK_SendByte
 1942              	.LVL201:
1024:pervasive_eink_hardware_driver.c ****                      PV_EINK_OSC_OFF_COMMAND_DATA);
1025:pervasive_eink_hardware_driver.c ****     CY_EINK_Delay(PV_EINK_PWR_OFF_DELAY);
 1943              		.loc 1 1025 0
 1944 006a 1E20     		movs	r0, #30
 1945 006c FFF7FEFF 		bl	Cy_SysLib_Delay
 1946              	.LVL202:
1026:pervasive_eink_hardware_driver.c ****     
1027:pervasive_eink_hardware_driver.c ****     /* Detach SPI and disable the load switch connected to E-INK display's Vcc */
1028:pervasive_eink_hardware_driver.c ****     Cy_EINK_DetachSPI();
 1947              		.loc 1 1028 0
 1948 0070 FFF7FEFF 		bl	Cy_EINK_DetachSPI
 1949              	.LVL203:
 1950              	.LBB102:
 1951              	.LBB103:
 749:Generated_Source\PSoC6\pdl\drivers/peripheral/gpio/cy_gpio.h ****     }
 1952              		.loc 2 749 0
 1953 0074 1023     		movs	r3, #16
 1954 0076 6360     		str	r3, [r4, #4]
 1955              	.LVL204:
 1956              	.LBE103:
 1957              	.LBE102:
 1958              	.LBB104:
 1959              	.LBB105:
 1960 0078 6560     		str	r5, [r4, #4]
 1961              	.LVL205:
 1962              	.LBE105:
 1963              	.LBE104:
1029:pervasive_eink_hardware_driver.c ****     CY_EINK_TurnOffVcc;
1030:pervasive_eink_hardware_driver.c ****     
1031:pervasive_eink_hardware_driver.c ****     /* Return the pins to their default (OFF) values*/
1032:pervasive_eink_hardware_driver.c ****     CY_EINK_BorderLow;
1033:pervasive_eink_hardware_driver.c ****     CY_EINK_Delay(PV_EINK_CS_OFF_DELAY);
 1964              		.loc 1 1033 0
 1965 007a 1420     		movs	r0, #20
 1966 007c FFF7FEFF 		bl	Cy_SysLib_Delay
 1967              	.LVL206:
 1968              	.LBB106:
 1969              	.LBB107:
 749:Generated_Source\PSoC6\pdl\drivers/peripheral/gpio/cy_gpio.h ****     }
 1970              		.loc 2 749 0
 1971 0080 0822     		movs	r2, #8
 1972 0082 084B     		ldr	r3, .L189+4
 1973 0084 5A60     		str	r2, [r3, #4]
 1974              	.LVL207:
ARM GAS  C:\Users\User\AppData\Local\Temp\ccsn8eRz.s 			page 68


 1975              	.LBE107:
 1976              	.LBE106:
 1977              	.LBB108:
 1978              	.LBB109:
 1979 0086 0423     		movs	r3, #4
 1980 0088 6360     		str	r3, [r4, #4]
 1981              	.LVL208:
 1982              	.LBE109:
 1983              	.LBE108:
 1984              	.LBB110:
 1985              	.LBB111:
 1986              		.loc 2 753 0
 1987 008a 2025     		movs	r5, #32
 1988 008c A560     		str	r5, [r4, #8]
 1989              	.LVL209:
 1990              	.LBE111:
 1991              	.LBE110:
1034:pervasive_eink_hardware_driver.c ****     CY_EINK_CsLow;
1035:pervasive_eink_hardware_driver.c ****     CY_EINK_RstLow;
1036:pervasive_eink_hardware_driver.c ****     CY_EINK_DischargeHigh;
1037:pervasive_eink_hardware_driver.c ****     CY_EINK_Delay(PV_EINK_DETACH_DELAY);
 1992              		.loc 1 1037 0
 1993 008e 1E20     		movs	r0, #30
 1994 0090 FFF7FEFF 		bl	Cy_SysLib_Delay
 1995              	.LVL210:
 1996              	.LBB112:
 1997              	.LBB113:
 749:Generated_Source\PSoC6\pdl\drivers/peripheral/gpio/cy_gpio.h ****     }
 1998              		.loc 2 749 0
 1999 0094 6560     		str	r5, [r4, #4]
 2000              	.LVL211:
 2001              	.LBE113:
 2002              	.LBE112:
1038:pervasive_eink_hardware_driver.c ****     CY_EINK_DischargeLow;
1039:pervasive_eink_hardware_driver.c ****     
1040:pervasive_eink_hardware_driver.c ****     /* If all operations were completed successfully, send the corresponding flag */
1041:pervasive_eink_hardware_driver.c ****     return(PV_EINK_RES_OK);
 2003              		.loc 1 1041 0
 2004 0096 0020     		movs	r0, #0
 2005 0098 38BD     		pop	{r3, r4, r5, pc}
 2006              	.L187:
 999:pervasive_eink_hardware_driver.c ****     }
 2007              		.loc 1 999 0
 2008 009a 0420     		movs	r0, #4
1042:pervasive_eink_hardware_driver.c **** }
 2009              		.loc 1 1042 0
 2010 009c 38BD     		pop	{r3, r4, r5, pc}
 2011              	.L190:
 2012 009e 00BF     		.align	2
 2013              	.L189:
 2014 00a0 80023240 		.word	1077019264
 2015 00a4 00063240 		.word	1077020160
 2016              		.cfi_endproc
 2017              	.LFE658:
 2018              		.size	Pv_EINK_HardwarePowerOff, .-Pv_EINK_HardwarePowerOff
 2019              		.global	channelSelect
 2020              		.global	scanTable
ARM GAS  C:\Users\User\AppData\Local\Temp\ccsn8eRz.s 			page 69


 2021              		.comm	bulkDriverPacket,19536,4
 2022              		.section	.rodata
 2023              		.align	2
 2024              		.set	.LANCHOR1,. + 0
 2025              		.type	channelSelect, %object
 2026              		.size	channelSelect, 8
 2027              	channelSelect:
 2028 0000 00       		.byte	0
 2029 0001 00       		.byte	0
 2030 0002 00       		.byte	0
 2031 0003 7F       		.byte	127
 2032 0004 FF       		.byte	-1
 2033 0005 FE       		.byte	-2
 2034 0006 00       		.byte	0
 2035 0007 00       		.byte	0
 2036              		.type	scanTable, %object
 2037              		.size	scanTable, 4
 2038              	scanTable:
 2039 0008 C0       		.byte	-64
 2040 0009 30       		.byte	48
 2041 000a 0C       		.byte	12
 2042 000b 03       		.byte	3
 2043              		.bss
 2044              		.align	2
 2045              		.set	.LANCHOR0,. + 0
 2046              		.type	driverPacket, %object
 2047              		.size	driverPacket, 111
 2048              	driverPacket:
 2049 0000 00000000 		.space	111
 2049      00000000 
 2049      00000000 
 2049      00000000 
 2049      00000000 
 2050 006f 00       		.space	1
 2051              		.type	dataLineEven, %object
 2052              		.size	dataLineEven, 4
 2053              	dataLineEven:
 2054 0070 00000000 		.space	4
 2055              		.type	dataLineOdd, %object
 2056              		.size	dataLineOdd, 4
 2057              	dataLineOdd:
 2058 0074 00000000 		.space	4
 2059              		.type	dataLineScan, %object
 2060              		.size	dataLineScan, 4
 2061              	dataLineScan:
 2062 0078 00000000 		.space	4
 2063              		.type	fullUpdateTime, %object
 2064              		.size	fullUpdateTime, 2
 2065              	fullUpdateTime:
 2066 007c 0000     		.space	2
 2067              		.type	partialUpdateTime, %object
 2068              		.size	partialUpdateTime, 2
 2069              	partialUpdateTime:
 2070 007e 0000     		.space	2
 2071              		.text
 2072              	.Letext0:
 2073              		.file 3 "d:\\cypress creator\\psoc creator\\4.2\\psoc creator\\import\\gnu\\arm\\5.4.1\\arm-none-e
ARM GAS  C:\Users\User\AppData\Local\Temp\ccsn8eRz.s 			page 70


 2074              		.file 4 "d:\\cypress creator\\psoc creator\\4.2\\psoc creator\\import\\gnu\\arm\\5.4.1\\arm-none-e
 2075              		.file 5 "Generated_Source\\PSoC6\\pdl\\devices/psoc6/ip/cyip_gpio.h"
 2076              		.file 6 "Generated_Source\\PSoC6\\pdl\\drivers/peripheral/syslib/cy_syslib.h"
 2077              		.file 7 "Generated_Source\\PSoC6\\pdl\\drivers/peripheral/tcpwm/cy_tcpwm_counter.h"
 2078              		.file 8 "Generated_Source\\PSoC6\\pdl\\drivers/peripheral/scb/cy_scb_ezi2c.h"
 2079              		.file 9 "Generated_Source\\PSoC6\\pdl\\drivers/peripheral/scb/cy_scb_spi.h"
 2080              		.file 10 "Generated_Source\\PSoC6\\pdl\\drivers/peripheral/scb/cy_scb_uart.h"
 2081              		.file 11 "Generated_Source\\PSoC6\\pdl\\middleware/ble/cy_ble_stack.h"
 2082              		.file 12 "Generated_Source\\PSoC6\\pdl\\middleware/ble/cy_ble_stack_host_main.h"
 2083              		.file 13 "Generated_Source\\PSoC6\\pdl\\middleware/ble/cy_ble_gap.h"
 2084              		.file 14 "pervasive_eink_hardware_driver.h"
 2085              		.file 15 "Generated_Source\\PSoC6\\pdl\\cmsis/include/core_cm4.h"
 2086              		.file 16 "Generated_Source\\PSoC6/CY_EINK_SPIM.h"
 2087              		.file 17 "Generated_Source\\PSoC6/CY_EINK_Timer.h"
 2088              		.file 18 "Generated_Source\\PSoC6/Uart_Printf.h"
 2089              		.file 19 "Generated_Source\\PSoC6/I2C.h"
 2090              		.file 20 "cy_eink_psoc_interface.h"
 2091              		.section	.debug_info,"",%progbits
 2092              	.Ldebug_info0:
 2093 0000 311C0000 		.4byte	0x1c31
 2094 0004 0400     		.2byte	0x4
 2095 0006 00000000 		.4byte	.Ldebug_abbrev0
 2096 000a 04       		.byte	0x4
 2097 000b 01       		.uleb128 0x1
 2098 000c 95040000 		.4byte	.LASF338
 2099 0010 0C       		.byte	0xc
 2100 0011 B1080000 		.4byte	.LASF339
 2101 0015 D6000000 		.4byte	.LASF340
 2102 0019 00000000 		.4byte	.Ldebug_ranges0+0
 2103 001d 00000000 		.4byte	0
 2104 0021 00000000 		.4byte	.Ldebug_line0
 2105 0025 02       		.uleb128 0x2
 2106 0026 04       		.byte	0x4
 2107 0027 05       		.byte	0x5
 2108 0028 696E7400 		.ascii	"int\000"
 2109 002c 03       		.uleb128 0x3
 2110 002d 04       		.byte	0x4
 2111 002e 07       		.byte	0x7
 2112 002f 18020000 		.4byte	.LASF0
 2113 0033 03       		.uleb128 0x3
 2114 0034 08       		.byte	0x8
 2115 0035 05       		.byte	0x5
 2116 0036 08100000 		.4byte	.LASF1
 2117 003a 03       		.uleb128 0x3
 2118 003b 08       		.byte	0x8
 2119 003c 04       		.byte	0x4
 2120 003d 3E130000 		.4byte	.LASF2
 2121 0041 04       		.uleb128 0x4
 2122 0042 2B130000 		.4byte	.LASF4
 2123 0046 03       		.byte	0x3
 2124 0047 1B       		.byte	0x1b
 2125 0048 4C000000 		.4byte	0x4c
 2126 004c 03       		.uleb128 0x3
 2127 004d 01       		.byte	0x1
 2128 004e 06       		.byte	0x6
 2129 004f 41060000 		.4byte	.LASF3
 2130 0053 04       		.uleb128 0x4
ARM GAS  C:\Users\User\AppData\Local\Temp\ccsn8eRz.s 			page 71


 2131 0054 60170000 		.4byte	.LASF5
 2132 0058 03       		.byte	0x3
 2133 0059 1D       		.byte	0x1d
 2134 005a 5E000000 		.4byte	0x5e
 2135 005e 03       		.uleb128 0x3
 2136 005f 01       		.byte	0x1
 2137 0060 08       		.byte	0x8
 2138 0061 4C190000 		.4byte	.LASF6
 2139 0065 04       		.uleb128 0x4
 2140 0066 72100000 		.4byte	.LASF7
 2141 006a 03       		.byte	0x3
 2142 006b 29       		.byte	0x29
 2143 006c 70000000 		.4byte	0x70
 2144 0070 03       		.uleb128 0x3
 2145 0071 02       		.byte	0x2
 2146 0072 05       		.byte	0x5
 2147 0073 86150000 		.4byte	.LASF8
 2148 0077 04       		.uleb128 0x4
 2149 0078 02090000 		.4byte	.LASF9
 2150 007c 03       		.byte	0x3
 2151 007d 2B       		.byte	0x2b
 2152 007e 82000000 		.4byte	0x82
 2153 0082 03       		.uleb128 0x3
 2154 0083 02       		.byte	0x2
 2155 0084 07       		.byte	0x7
 2156 0085 821B0000 		.4byte	.LASF10
 2157 0089 04       		.uleb128 0x4
 2158 008a 99020000 		.4byte	.LASF11
 2159 008e 03       		.byte	0x3
 2160 008f 3F       		.byte	0x3f
 2161 0090 94000000 		.4byte	0x94
 2162 0094 03       		.uleb128 0x3
 2163 0095 04       		.byte	0x4
 2164 0096 05       		.byte	0x5
 2165 0097 DB150000 		.4byte	.LASF12
 2166 009b 04       		.uleb128 0x4
 2167 009c 7F190000 		.4byte	.LASF13
 2168 00a0 03       		.byte	0x3
 2169 00a1 41       		.byte	0x41
 2170 00a2 A6000000 		.4byte	0xa6
 2171 00a6 03       		.uleb128 0x3
 2172 00a7 04       		.byte	0x4
 2173 00a8 07       		.byte	0x7
 2174 00a9 96180000 		.4byte	.LASF14
 2175 00ad 03       		.uleb128 0x3
 2176 00ae 08       		.byte	0x8
 2177 00af 07       		.byte	0x7
 2178 00b0 39080000 		.4byte	.LASF15
 2179 00b4 03       		.uleb128 0x3
 2180 00b5 04       		.byte	0x4
 2181 00b6 07       		.byte	0x7
 2182 00b7 8D180000 		.4byte	.LASF16
 2183 00bb 05       		.uleb128 0x5
 2184 00bc 04       		.byte	0x4
 2185 00bd 03       		.uleb128 0x3
 2186 00be 01       		.byte	0x1
 2187 00bf 08       		.byte	0x8
ARM GAS  C:\Users\User\AppData\Local\Temp\ccsn8eRz.s 			page 72


 2188 00c0 500D0000 		.4byte	.LASF17
 2189 00c4 04       		.uleb128 0x4
 2190 00c5 B4060000 		.4byte	.LASF18
 2191 00c9 04       		.byte	0x4
 2192 00ca 14       		.byte	0x14
 2193 00cb 41000000 		.4byte	0x41
 2194 00cf 04       		.uleb128 0x4
 2195 00d0 C30E0000 		.4byte	.LASF19
 2196 00d4 04       		.byte	0x4
 2197 00d5 18       		.byte	0x18
 2198 00d6 53000000 		.4byte	0x53
 2199 00da 04       		.uleb128 0x4
 2200 00db EB070000 		.4byte	.LASF20
 2201 00df 04       		.byte	0x4
 2202 00e0 20       		.byte	0x20
 2203 00e1 65000000 		.4byte	0x65
 2204 00e5 04       		.uleb128 0x4
 2205 00e6 73130000 		.4byte	.LASF21
 2206 00ea 04       		.byte	0x4
 2207 00eb 24       		.byte	0x24
 2208 00ec 77000000 		.4byte	0x77
 2209 00f0 04       		.uleb128 0x4
 2210 00f1 CA180000 		.4byte	.LASF22
 2211 00f5 04       		.byte	0x4
 2212 00f6 2C       		.byte	0x2c
 2213 00f7 89000000 		.4byte	0x89
 2214 00fb 04       		.uleb128 0x4
 2215 00fc AB060000 		.4byte	.LASF23
 2216 0100 04       		.byte	0x4
 2217 0101 30       		.byte	0x30
 2218 0102 9B000000 		.4byte	0x9b
 2219 0106 06       		.uleb128 0x6
 2220 0107 FB000000 		.4byte	0xfb
 2221 010b 07       		.uleb128 0x7
 2222 010c 06010000 		.4byte	0x106
 2223 0110 08       		.uleb128 0x8
 2224 0111 0B010000 		.4byte	0x10b
 2225 0115 20010000 		.4byte	0x120
 2226 0119 09       		.uleb128 0x9
 2227 011a B4000000 		.4byte	0xb4
 2228 011e 0F       		.byte	0xf
 2229 011f 00       		.byte	0
 2230 0120 0A       		.uleb128 0xa
 2231 0121 80       		.byte	0x80
 2232 0122 05       		.byte	0x5
 2233 0123 22       		.byte	0x22
 2234 0124 F4010000 		.4byte	0x1f4
 2235 0128 0B       		.uleb128 0xb
 2236 0129 4F555400 		.ascii	"OUT\000"
 2237 012d 05       		.byte	0x5
 2238 012e 23       		.byte	0x23
 2239 012f 06010000 		.4byte	0x106
 2240 0133 00       		.byte	0
 2241 0134 0C       		.uleb128 0xc
 2242 0135 D7070000 		.4byte	.LASF24
 2243 0139 05       		.byte	0x5
 2244 013a 24       		.byte	0x24
ARM GAS  C:\Users\User\AppData\Local\Temp\ccsn8eRz.s 			page 73


 2245 013b 06010000 		.4byte	0x106
 2246 013f 04       		.byte	0x4
 2247 0140 0C       		.uleb128 0xc
 2248 0141 45030000 		.4byte	.LASF25
 2249 0145 05       		.byte	0x5
 2250 0146 25       		.byte	0x25
 2251 0147 06010000 		.4byte	0x106
 2252 014b 08       		.byte	0x8
 2253 014c 0C       		.uleb128 0xc
 2254 014d 58170000 		.4byte	.LASF26
 2255 0151 05       		.byte	0x5
 2256 0152 26       		.byte	0x26
 2257 0153 06010000 		.4byte	0x106
 2258 0157 0C       		.byte	0xc
 2259 0158 0B       		.uleb128 0xb
 2260 0159 494E00   		.ascii	"IN\000"
 2261 015c 05       		.byte	0x5
 2262 015d 27       		.byte	0x27
 2263 015e 0B010000 		.4byte	0x10b
 2264 0162 10       		.byte	0x10
 2265 0163 0C       		.uleb128 0xc
 2266 0164 D60B0000 		.4byte	.LASF27
 2267 0168 05       		.byte	0x5
 2268 0169 28       		.byte	0x28
 2269 016a 06010000 		.4byte	0x106
 2270 016e 14       		.byte	0x14
 2271 016f 0C       		.uleb128 0xc
 2272 0170 3E0C0000 		.4byte	.LASF28
 2273 0174 05       		.byte	0x5
 2274 0175 29       		.byte	0x29
 2275 0176 06010000 		.4byte	0x106
 2276 017a 18       		.byte	0x18
 2277 017b 0C       		.uleb128 0xc
 2278 017c 0C180000 		.4byte	.LASF29
 2279 0180 05       		.byte	0x5
 2280 0181 2A       		.byte	0x2a
 2281 0182 0B010000 		.4byte	0x10b
 2282 0186 1C       		.byte	0x1c
 2283 0187 0C       		.uleb128 0xc
 2284 0188 D0030000 		.4byte	.LASF30
 2285 018c 05       		.byte	0x5
 2286 018d 2B       		.byte	0x2b
 2287 018e 06010000 		.4byte	0x106
 2288 0192 20       		.byte	0x20
 2289 0193 0C       		.uleb128 0xc
 2290 0194 AB190000 		.4byte	.LASF31
 2291 0198 05       		.byte	0x5
 2292 0199 2C       		.byte	0x2c
 2293 019a 06010000 		.4byte	0x106
 2294 019e 24       		.byte	0x24
 2295 019f 0B       		.uleb128 0xb
 2296 01a0 43464700 		.ascii	"CFG\000"
 2297 01a4 05       		.byte	0x5
 2298 01a5 2D       		.byte	0x2d
 2299 01a6 06010000 		.4byte	0x106
 2300 01aa 28       		.byte	0x28
 2301 01ab 0C       		.uleb128 0xc
ARM GAS  C:\Users\User\AppData\Local\Temp\ccsn8eRz.s 			page 74


 2302 01ac C3020000 		.4byte	.LASF32
 2303 01b0 05       		.byte	0x5
 2304 01b1 2E       		.byte	0x2e
 2305 01b2 06010000 		.4byte	0x106
 2306 01b6 2C       		.byte	0x2c
 2307 01b7 0C       		.uleb128 0xc
 2308 01b8 BE090000 		.4byte	.LASF33
 2309 01bc 05       		.byte	0x5
 2310 01bd 2F       		.byte	0x2f
 2311 01be 06010000 		.4byte	0x106
 2312 01c2 30       		.byte	0x30
 2313 01c3 0C       		.uleb128 0xc
 2314 01c4 8F1C0000 		.4byte	.LASF34
 2315 01c8 05       		.byte	0x5
 2316 01c9 30       		.byte	0x30
 2317 01ca 06010000 		.4byte	0x106
 2318 01ce 34       		.byte	0x34
 2319 01cf 0C       		.uleb128 0xc
 2320 01d0 11000000 		.4byte	.LASF35
 2321 01d4 05       		.byte	0x5
 2322 01d5 31       		.byte	0x31
 2323 01d6 0B010000 		.4byte	0x10b
 2324 01da 38       		.byte	0x38
 2325 01db 0C       		.uleb128 0xc
 2326 01dc 9E160000 		.4byte	.LASF36
 2327 01e0 05       		.byte	0x5
 2328 01e1 32       		.byte	0x32
 2329 01e2 06010000 		.4byte	0x106
 2330 01e6 3C       		.byte	0x3c
 2331 01e7 0C       		.uleb128 0xc
 2332 01e8 46150000 		.4byte	.LASF37
 2333 01ec 05       		.byte	0x5
 2334 01ed 33       		.byte	0x33
 2335 01ee F9010000 		.4byte	0x1f9
 2336 01f2 40       		.byte	0x40
 2337 01f3 00       		.byte	0
 2338 01f4 06       		.uleb128 0x6
 2339 01f5 10010000 		.4byte	0x110
 2340 01f9 07       		.uleb128 0x7
 2341 01fa F4010000 		.4byte	0x1f4
 2342 01fe 04       		.uleb128 0x4
 2343 01ff DB0B0000 		.4byte	.LASF38
 2344 0203 05       		.byte	0x5
 2345 0204 34       		.byte	0x34
 2346 0205 20010000 		.4byte	0x120
 2347 0209 0D       		.uleb128 0xd
 2348 020a 2440     		.2byte	0x4024
 2349 020c 05       		.byte	0x5
 2350 020d 39       		.byte	0x39
 2351 020e 94020000 		.4byte	0x294
 2352 0212 0B       		.uleb128 0xb
 2353 0213 50525400 		.ascii	"PRT\000"
 2354 0217 05       		.byte	0x5
 2355 0218 3A       		.byte	0x3a
 2356 0219 94020000 		.4byte	0x294
 2357 021d 00       		.byte	0
 2358 021e 0E       		.uleb128 0xe
ARM GAS  C:\Users\User\AppData\Local\Temp\ccsn8eRz.s 			page 75


 2359 021f 080F0000 		.4byte	.LASF39
 2360 0223 05       		.byte	0x5
 2361 0224 3B       		.byte	0x3b
 2362 0225 0B010000 		.4byte	0x10b
 2363 0229 0040     		.2byte	0x4000
 2364 022b 0E       		.uleb128 0xe
 2365 022c 1A000000 		.4byte	.LASF40
 2366 0230 05       		.byte	0x5
 2367 0231 3C       		.byte	0x3c
 2368 0232 0B010000 		.4byte	0x10b
 2369 0236 0440     		.2byte	0x4004
 2370 0238 0E       		.uleb128 0xe
 2371 0239 220F0000 		.4byte	.LASF41
 2372 023d 05       		.byte	0x5
 2373 023e 3D       		.byte	0x3d
 2374 023f 0B010000 		.4byte	0x10b
 2375 0243 0840     		.2byte	0x4008
 2376 0245 0E       		.uleb128 0xe
 2377 0246 2E0F0000 		.4byte	.LASF42
 2378 024a 05       		.byte	0x5
 2379 024b 3E       		.byte	0x3e
 2380 024c 0B010000 		.4byte	0x10b
 2381 0250 0C40     		.2byte	0x400c
 2382 0252 0E       		.uleb128 0xe
 2383 0253 0B1C0000 		.4byte	.LASF43
 2384 0257 05       		.byte	0x5
 2385 0258 3F       		.byte	0x3f
 2386 0259 0B010000 		.4byte	0x10b
 2387 025d 1040     		.2byte	0x4010
 2388 025f 0E       		.uleb128 0xe
 2389 0260 A90A0000 		.4byte	.LASF44
 2390 0264 05       		.byte	0x5
 2391 0265 40       		.byte	0x40
 2392 0266 06010000 		.4byte	0x106
 2393 026a 1440     		.2byte	0x4014
 2394 026c 0E       		.uleb128 0xe
 2395 026d 5A1B0000 		.4byte	.LASF45
 2396 0271 05       		.byte	0x5
 2397 0272 41       		.byte	0x41
 2398 0273 06010000 		.4byte	0x106
 2399 0277 1840     		.2byte	0x4018
 2400 0279 0E       		.uleb128 0xe
 2401 027a CD100000 		.4byte	.LASF46
 2402 027e 05       		.byte	0x5
 2403 027f 42       		.byte	0x42
 2404 0280 0B010000 		.4byte	0x10b
 2405 0284 1C40     		.2byte	0x401c
 2406 0286 0E       		.uleb128 0xe
 2407 0287 7C130000 		.4byte	.LASF47
 2408 028b 05       		.byte	0x5
 2409 028c 43       		.byte	0x43
 2410 028d 06010000 		.4byte	0x106
 2411 0291 2040     		.2byte	0x4020
 2412 0293 00       		.byte	0
 2413 0294 08       		.uleb128 0x8
 2414 0295 FE010000 		.4byte	0x1fe
 2415 0299 A4020000 		.4byte	0x2a4
ARM GAS  C:\Users\User\AppData\Local\Temp\ccsn8eRz.s 			page 76


 2416 029d 09       		.uleb128 0x9
 2417 029e B4000000 		.4byte	0xb4
 2418 02a2 7F       		.byte	0x7f
 2419 02a3 00       		.byte	0
 2420 02a4 04       		.uleb128 0x4
 2421 02a5 8A190000 		.4byte	.LASF48
 2422 02a9 05       		.byte	0x5
 2423 02aa 44       		.byte	0x44
 2424 02ab 09020000 		.4byte	0x209
 2425 02af 0F       		.uleb128 0xf
 2426 02b0 61160000 		.4byte	.LASF49
 2427 02b4 06       		.byte	0x6
 2428 02b5 C401     		.2byte	0x1c4
 2429 02b7 BD000000 		.4byte	0xbd
 2430 02bb 03       		.uleb128 0x3
 2431 02bc 04       		.byte	0x4
 2432 02bd 04       		.byte	0x4
 2433 02be C4180000 		.4byte	.LASF50
 2434 02c2 03       		.uleb128 0x3
 2435 02c3 08       		.byte	0x8
 2436 02c4 04       		.byte	0x4
 2437 02c5 881C0000 		.4byte	.LASF51
 2438 02c9 0F       		.uleb128 0xf
 2439 02ca 21060000 		.4byte	.LASF52
 2440 02ce 06       		.byte	0x6
 2441 02cf 8503     		.2byte	0x385
 2442 02d1 CF000000 		.4byte	0xcf
 2443 02d5 0F       		.uleb128 0xf
 2444 02d6 A3020000 		.4byte	.LASF53
 2445 02da 06       		.byte	0x6
 2446 02db 8903     		.2byte	0x389
 2447 02dd DA000000 		.4byte	0xda
 2448 02e1 03       		.uleb128 0x3
 2449 02e2 01       		.byte	0x1
 2450 02e3 02       		.byte	0x2
 2451 02e4 560A0000 		.4byte	.LASF54
 2452 02e8 10       		.uleb128 0x10
 2453 02e9 951B0000 		.4byte	.LASF86
 2454 02ed 4C       		.byte	0x4c
 2455 02ee 07       		.byte	0x7
 2456 02ef 2B       		.byte	0x2b
 2457 02f0 D9030000 		.4byte	0x3d9
 2458 02f4 0C       		.uleb128 0xc
 2459 02f5 7B1B0000 		.4byte	.LASF55
 2460 02f9 07       		.byte	0x7
 2461 02fa 2D       		.byte	0x2d
 2462 02fb FB000000 		.4byte	0xfb
 2463 02ff 00       		.byte	0
 2464 0300 0C       		.uleb128 0xc
 2465 0301 1A0E0000 		.4byte	.LASF56
 2466 0305 07       		.byte	0x7
 2467 0306 2F       		.byte	0x2f
 2468 0307 FB000000 		.4byte	0xfb
 2469 030b 04       		.byte	0x4
 2470 030c 0C       		.uleb128 0xc
 2471 030d 89130000 		.4byte	.LASF57
 2472 0311 07       		.byte	0x7
ARM GAS  C:\Users\User\AppData\Local\Temp\ccsn8eRz.s 			page 77


 2473 0312 30       		.byte	0x30
 2474 0313 FB000000 		.4byte	0xfb
 2475 0317 08       		.byte	0x8
 2476 0318 0C       		.uleb128 0xc
 2477 0319 45160000 		.4byte	.LASF58
 2478 031d 07       		.byte	0x7
 2479 031e 31       		.byte	0x31
 2480 031f FB000000 		.4byte	0xfb
 2481 0323 0C       		.byte	0xc
 2482 0324 0C       		.uleb128 0xc
 2483 0325 35150000 		.4byte	.LASF59
 2484 0329 07       		.byte	0x7
 2485 032a 33       		.byte	0x33
 2486 032b FB000000 		.4byte	0xfb
 2487 032f 10       		.byte	0x10
 2488 0330 0C       		.uleb128 0xc
 2489 0331 83040000 		.4byte	.LASF60
 2490 0335 07       		.byte	0x7
 2491 0336 34       		.byte	0x34
 2492 0337 FB000000 		.4byte	0xfb
 2493 033b 14       		.byte	0x14
 2494 033c 0C       		.uleb128 0xc
 2495 033d 8C040000 		.4byte	.LASF61
 2496 0341 07       		.byte	0x7
 2497 0342 35       		.byte	0x35
 2498 0343 FB000000 		.4byte	0xfb
 2499 0347 18       		.byte	0x18
 2500 0348 0C       		.uleb128 0xc
 2501 0349 C9150000 		.4byte	.LASF62
 2502 034d 07       		.byte	0x7
 2503 034e 36       		.byte	0x36
 2504 034f E1020000 		.4byte	0x2e1
 2505 0353 1C       		.byte	0x1c
 2506 0354 0C       		.uleb128 0xc
 2507 0355 7B060000 		.4byte	.LASF63
 2508 0359 07       		.byte	0x7
 2509 035a 38       		.byte	0x38
 2510 035b FB000000 		.4byte	0xfb
 2511 035f 20       		.byte	0x20
 2512 0360 0C       		.uleb128 0xc
 2513 0361 7D090000 		.4byte	.LASF64
 2514 0365 07       		.byte	0x7
 2515 0366 39       		.byte	0x39
 2516 0367 FB000000 		.4byte	0xfb
 2517 036b 24       		.byte	0x24
 2518 036c 0C       		.uleb128 0xc
 2519 036d 430D0000 		.4byte	.LASF65
 2520 0371 07       		.byte	0x7
 2521 0372 3B       		.byte	0x3b
 2522 0373 FB000000 		.4byte	0xfb
 2523 0377 28       		.byte	0x28
 2524 0378 0C       		.uleb128 0xc
 2525 0379 45110000 		.4byte	.LASF66
 2526 037d 07       		.byte	0x7
 2527 037e 3C       		.byte	0x3c
 2528 037f FB000000 		.4byte	0xfb
 2529 0383 2C       		.byte	0x2c
ARM GAS  C:\Users\User\AppData\Local\Temp\ccsn8eRz.s 			page 78


 2530 0384 0C       		.uleb128 0xc
 2531 0385 DF070000 		.4byte	.LASF67
 2532 0389 07       		.byte	0x7
 2533 038a 3E       		.byte	0x3e
 2534 038b FB000000 		.4byte	0xfb
 2535 038f 30       		.byte	0x30
 2536 0390 0C       		.uleb128 0xc
 2537 0391 55090000 		.4byte	.LASF68
 2538 0395 07       		.byte	0x7
 2539 0396 3F       		.byte	0x3f
 2540 0397 FB000000 		.4byte	0xfb
 2541 039b 34       		.byte	0x34
 2542 039c 0C       		.uleb128 0xc
 2543 039d 8E020000 		.4byte	.LASF69
 2544 03a1 07       		.byte	0x7
 2545 03a2 41       		.byte	0x41
 2546 03a3 FB000000 		.4byte	0xfb
 2547 03a7 38       		.byte	0x38
 2548 03a8 0C       		.uleb128 0xc
 2549 03a9 64000000 		.4byte	.LASF70
 2550 03ad 07       		.byte	0x7
 2551 03ae 42       		.byte	0x42
 2552 03af FB000000 		.4byte	0xfb
 2553 03b3 3C       		.byte	0x3c
 2554 03b4 0C       		.uleb128 0xc
 2555 03b5 5F030000 		.4byte	.LASF71
 2556 03b9 07       		.byte	0x7
 2557 03ba 44       		.byte	0x44
 2558 03bb FB000000 		.4byte	0xfb
 2559 03bf 40       		.byte	0x40
 2560 03c0 0C       		.uleb128 0xc
 2561 03c1 03160000 		.4byte	.LASF72
 2562 03c5 07       		.byte	0x7
 2563 03c6 45       		.byte	0x45
 2564 03c7 FB000000 		.4byte	0xfb
 2565 03cb 44       		.byte	0x44
 2566 03cc 0C       		.uleb128 0xc
 2567 03cd A0190000 		.4byte	.LASF73
 2568 03d1 07       		.byte	0x7
 2569 03d2 47       		.byte	0x47
 2570 03d3 FB000000 		.4byte	0xfb
 2571 03d7 48       		.byte	0x48
 2572 03d8 00       		.byte	0
 2573 03d9 04       		.uleb128 0x4
 2574 03da 30140000 		.4byte	.LASF74
 2575 03de 07       		.byte	0x7
 2576 03df 48       		.byte	0x48
 2577 03e0 E8020000 		.4byte	0x2e8
 2578 03e4 11       		.uleb128 0x11
 2579 03e5 04       		.byte	0x4
 2580 03e6 EA030000 		.4byte	0x3ea
 2581 03ea 12       		.uleb128 0x12
 2582 03eb F5030000 		.4byte	0x3f5
 2583 03ef 13       		.uleb128 0x13
 2584 03f0 FB000000 		.4byte	0xfb
 2585 03f4 00       		.byte	0
 2586 03f5 11       		.uleb128 0x11
ARM GAS  C:\Users\User\AppData\Local\Temp\ccsn8eRz.s 			page 79


 2587 03f6 04       		.byte	0x4
 2588 03f7 CF000000 		.4byte	0xcf
 2589 03fb 14       		.uleb128 0x14
 2590 03fc 01       		.byte	0x1
 2591 03fd 5E000000 		.4byte	0x5e
 2592 0401 08       		.byte	0x8
 2593 0402 2A01     		.2byte	0x12a
 2594 0404 15040000 		.4byte	0x415
 2595 0408 15       		.uleb128 0x15
 2596 0409 A20B0000 		.4byte	.LASF75
 2597 040d 00       		.byte	0
 2598 040e 15       		.uleb128 0x15
 2599 040f 8D100000 		.4byte	.LASF76
 2600 0413 01       		.byte	0x1
 2601 0414 00       		.byte	0
 2602 0415 0F       		.uleb128 0xf
 2603 0416 D9020000 		.4byte	.LASF77
 2604 041a 08       		.byte	0x8
 2605 041b 2D01     		.2byte	0x12d
 2606 041d FB030000 		.4byte	0x3fb
 2607 0421 14       		.uleb128 0x14
 2608 0422 01       		.byte	0x1
 2609 0423 5E000000 		.4byte	0x5e
 2610 0427 08       		.byte	0x8
 2611 0428 3201     		.2byte	0x132
 2612 042a 59040000 		.4byte	0x459
 2613 042e 15       		.uleb128 0x15
 2614 042f DC010000 		.4byte	.LASF78
 2615 0433 00       		.byte	0
 2616 0434 15       		.uleb128 0x15
 2617 0435 161C0000 		.4byte	.LASF79
 2618 0439 01       		.byte	0x1
 2619 043a 15       		.uleb128 0x15
 2620 043b DA130000 		.4byte	.LASF80
 2621 043f 02       		.byte	0x2
 2622 0440 15       		.uleb128 0x15
 2623 0441 18080000 		.4byte	.LASF81
 2624 0445 03       		.byte	0x3
 2625 0446 15       		.uleb128 0x15
 2626 0447 220C0000 		.4byte	.LASF82
 2627 044b 04       		.byte	0x4
 2628 044c 15       		.uleb128 0x15
 2629 044d A8180000 		.4byte	.LASF83
 2630 0451 05       		.byte	0x5
 2631 0452 15       		.uleb128 0x15
 2632 0453 870B0000 		.4byte	.LASF84
 2633 0457 06       		.byte	0x6
 2634 0458 00       		.byte	0
 2635 0459 0F       		.uleb128 0xf
 2636 045a 010D0000 		.4byte	.LASF85
 2637 045e 08       		.byte	0x8
 2638 045f 3A01     		.2byte	0x13a
 2639 0461 21040000 		.4byte	0x421
 2640 0465 16       		.uleb128 0x16
 2641 0466 5B180000 		.4byte	.LASF87
 2642 046a 3C       		.byte	0x3c
 2643 046b 08       		.byte	0x8
ARM GAS  C:\Users\User\AppData\Local\Temp\ccsn8eRz.s 			page 80


 2644 046c 6601     		.2byte	0x166
 2645 046e 50050000 		.4byte	0x550
 2646 0472 17       		.uleb128 0x17
 2647 0473 761A0000 		.4byte	.LASF88
 2648 0477 08       		.byte	0x8
 2649 0478 6901     		.2byte	0x169
 2650 047a 50050000 		.4byte	0x550
 2651 047e 00       		.byte	0
 2652 047f 17       		.uleb128 0x17
 2653 0480 CB0E0000 		.4byte	.LASF89
 2654 0484 08       		.byte	0x8
 2655 0485 6A01     		.2byte	0x16a
 2656 0487 06010000 		.4byte	0x106
 2657 048b 04       		.byte	0x4
 2658 048c 17       		.uleb128 0x17
 2659 048d 33160000 		.4byte	.LASF90
 2660 0491 08       		.byte	0x8
 2661 0492 6C01     		.2byte	0x16c
 2662 0494 CF000000 		.4byte	0xcf
 2663 0498 08       		.byte	0x8
 2664 0499 17       		.uleb128 0x17
 2665 049a 3C160000 		.4byte	.LASF91
 2666 049e 08       		.byte	0x8
 2667 049f 6D01     		.2byte	0x16d
 2668 04a1 CF000000 		.4byte	0xcf
 2669 04a5 09       		.byte	0x9
 2670 04a6 17       		.uleb128 0x17
 2671 04a7 A4120000 		.4byte	.LASF92
 2672 04ab 08       		.byte	0x8
 2673 04ac 6E01     		.2byte	0x16e
 2674 04ae 15040000 		.4byte	0x415
 2675 04b2 0A       		.byte	0xa
 2676 04b3 18       		.uleb128 0x18
 2677 04b4 69647800 		.ascii	"idx\000"
 2678 04b8 08       		.byte	0x8
 2679 04b9 7001     		.2byte	0x170
 2680 04bb FB000000 		.4byte	0xfb
 2681 04bf 0C       		.byte	0xc
 2682 04c0 17       		.uleb128 0x17
 2683 04c1 881A0000 		.4byte	.LASF93
 2684 04c5 08       		.byte	0x8
 2685 04c6 7101     		.2byte	0x171
 2686 04c8 FB000000 		.4byte	0xfb
 2687 04cc 10       		.byte	0x10
 2688 04cd 17       		.uleb128 0x17
 2689 04ce 921A0000 		.4byte	.LASF94
 2690 04d2 08       		.byte	0x8
 2691 04d3 7201     		.2byte	0x172
 2692 04d5 FB000000 		.4byte	0xfb
 2693 04d9 14       		.byte	0x14
 2694 04da 17       		.uleb128 0x17
 2695 04db C30B0000 		.4byte	.LASF95
 2696 04df 08       		.byte	0x8
 2697 04e0 7401     		.2byte	0x174
 2698 04e2 E1020000 		.4byte	0x2e1
 2699 04e6 18       		.byte	0x18
 2700 04e7 17       		.uleb128 0x17
ARM GAS  C:\Users\User\AppData\Local\Temp\ccsn8eRz.s 			page 81


 2701 04e8 CF0B0000 		.4byte	.LASF96
 2702 04ec 08       		.byte	0x8
 2703 04ed 7501     		.2byte	0x175
 2704 04ef F5030000 		.4byte	0x3f5
 2705 04f3 1C       		.byte	0x1c
 2706 04f4 17       		.uleb128 0x17
 2707 04f5 BF000000 		.4byte	.LASF97
 2708 04f9 08       		.byte	0x8
 2709 04fa 7601     		.2byte	0x176
 2710 04fc FB000000 		.4byte	0xfb
 2711 0500 20       		.byte	0x20
 2712 0501 17       		.uleb128 0x17
 2713 0502 A7080000 		.4byte	.LASF98
 2714 0506 08       		.byte	0x8
 2715 0507 7801     		.2byte	0x178
 2716 0509 F5030000 		.4byte	0x3f5
 2717 050d 24       		.byte	0x24
 2718 050e 17       		.uleb128 0x17
 2719 050f 7F1C0000 		.4byte	.LASF99
 2720 0513 08       		.byte	0x8
 2721 0514 7901     		.2byte	0x179
 2722 0516 FB000000 		.4byte	0xfb
 2723 051a 28       		.byte	0x28
 2724 051b 17       		.uleb128 0x17
 2725 051c C2030000 		.4byte	.LASF100
 2726 0520 08       		.byte	0x8
 2727 0521 7A01     		.2byte	0x17a
 2728 0523 FB000000 		.4byte	0xfb
 2729 0527 2C       		.byte	0x2c
 2730 0528 17       		.uleb128 0x17
 2731 0529 AC080000 		.4byte	.LASF101
 2732 052d 08       		.byte	0x8
 2733 052e 7C01     		.2byte	0x17c
 2734 0530 F5030000 		.4byte	0x3f5
 2735 0534 30       		.byte	0x30
 2736 0535 17       		.uleb128 0x17
 2737 0536 F4090000 		.4byte	.LASF102
 2738 053a 08       		.byte	0x8
 2739 053b 7D01     		.2byte	0x17d
 2740 053d FB000000 		.4byte	0xfb
 2741 0541 34       		.byte	0x34
 2742 0542 17       		.uleb128 0x17
 2743 0543 140F0000 		.4byte	.LASF103
 2744 0547 08       		.byte	0x8
 2745 0548 7E01     		.2byte	0x17e
 2746 054a FB000000 		.4byte	0xfb
 2747 054e 38       		.byte	0x38
 2748 054f 00       		.byte	0
 2749 0550 06       		.uleb128 0x6
 2750 0551 59040000 		.4byte	0x459
 2751 0555 0F       		.uleb128 0xf
 2752 0556 FB130000 		.4byte	.LASF104
 2753 055a 08       		.byte	0x8
 2754 055b 8001     		.2byte	0x180
 2755 055d 65040000 		.4byte	0x465
 2756 0561 0F       		.uleb128 0xf
 2757 0562 46000000 		.4byte	.LASF105
ARM GAS  C:\Users\User\AppData\Local\Temp\ccsn8eRz.s 			page 82


 2758 0566 09       		.byte	0x9
 2759 0567 BF01     		.2byte	0x1bf
 2760 0569 E4030000 		.4byte	0x3e4
 2761 056d 16       		.uleb128 0x16
 2762 056e 2D1A0000 		.4byte	.LASF106
 2763 0572 24       		.byte	0x24
 2764 0573 09       		.byte	0x9
 2765 0574 4102     		.2byte	0x241
 2766 0576 F0050000 		.4byte	0x5f0
 2767 057a 17       		.uleb128 0x17
 2768 057b CB0E0000 		.4byte	.LASF89
 2769 057f 09       		.byte	0x9
 2770 0580 4402     		.2byte	0x244
 2771 0582 06010000 		.4byte	0x106
 2772 0586 00       		.byte	0
 2773 0587 17       		.uleb128 0x17
 2774 0588 CF090000 		.4byte	.LASF107
 2775 058c 09       		.byte	0x9
 2776 058d 4602     		.2byte	0x246
 2777 058f BB000000 		.4byte	0xbb
 2778 0593 04       		.byte	0x4
 2779 0594 17       		.uleb128 0x17
 2780 0595 AF1D0000 		.4byte	.LASF108
 2781 0599 09       		.byte	0x9
 2782 059a 4702     		.2byte	0x247
 2783 059c FB000000 		.4byte	0xfb
 2784 05a0 08       		.byte	0x8
 2785 05a1 17       		.uleb128 0x17
 2786 05a2 880E0000 		.4byte	.LASF109
 2787 05a6 09       		.byte	0x9
 2788 05a7 4802     		.2byte	0x248
 2789 05a9 06010000 		.4byte	0x106
 2790 05ad 0C       		.byte	0xc
 2791 05ae 17       		.uleb128 0x17
 2792 05af 1C130000 		.4byte	.LASF110
 2793 05b3 09       		.byte	0x9
 2794 05b4 4A02     		.2byte	0x24a
 2795 05b6 BB000000 		.4byte	0xbb
 2796 05ba 10       		.byte	0x10
 2797 05bb 17       		.uleb128 0x17
 2798 05bc C5110000 		.4byte	.LASF111
 2799 05c0 09       		.byte	0x9
 2800 05c1 4B02     		.2byte	0x24b
 2801 05c3 FB000000 		.4byte	0xfb
 2802 05c7 14       		.byte	0x14
 2803 05c8 17       		.uleb128 0x17
 2804 05c9 85020000 		.4byte	.LASF112
 2805 05cd 09       		.byte	0x9
 2806 05ce 4C02     		.2byte	0x24c
 2807 05d0 06010000 		.4byte	0x106
 2808 05d4 18       		.byte	0x18
 2809 05d5 17       		.uleb128 0x17
 2810 05d6 4D0A0000 		.4byte	.LASF113
 2811 05da 09       		.byte	0x9
 2812 05db 5202     		.2byte	0x252
 2813 05dd 61050000 		.4byte	0x561
 2814 05e1 1C       		.byte	0x1c
ARM GAS  C:\Users\User\AppData\Local\Temp\ccsn8eRz.s 			page 83


 2815 05e2 17       		.uleb128 0x17
 2816 05e3 BB0E0000 		.4byte	.LASF114
 2817 05e7 09       		.byte	0x9
 2818 05e8 5502     		.2byte	0x255
 2819 05ea FB000000 		.4byte	0xfb
 2820 05ee 20       		.byte	0x20
 2821 05ef 00       		.byte	0
 2822 05f0 0F       		.uleb128 0xf
 2823 05f1 1E110000 		.4byte	.LASF115
 2824 05f5 09       		.byte	0x9
 2825 05f6 5802     		.2byte	0x258
 2826 05f8 6D050000 		.4byte	0x56d
 2827 05fc 0F       		.uleb128 0xf
 2828 05fd 8D0F0000 		.4byte	.LASF116
 2829 0601 0A       		.byte	0xa
 2830 0602 AB01     		.2byte	0x1ab
 2831 0604 E4030000 		.4byte	0x3e4
 2832 0608 16       		.uleb128 0x16
 2833 0609 BF070000 		.4byte	.LASF117
 2834 060d 38       		.byte	0x38
 2835 060e 0A       		.byte	0xa
 2836 060f 4702     		.2byte	0x247
 2837 0611 CC060000 		.4byte	0x6cc
 2838 0615 17       		.uleb128 0x17
 2839 0616 B4010000 		.4byte	.LASF118
 2840 061a 0A       		.byte	0xa
 2841 061b 4A02     		.2byte	0x24a
 2842 061d 06010000 		.4byte	0x106
 2843 0621 00       		.byte	0
 2844 0622 17       		.uleb128 0x17
 2845 0623 C6090000 		.4byte	.LASF119
 2846 0627 0A       		.byte	0xa
 2847 0628 4B02     		.2byte	0x24b
 2848 062a 06010000 		.4byte	0x106
 2849 062e 04       		.byte	0x4
 2850 062f 17       		.uleb128 0x17
 2851 0630 34130000 		.4byte	.LASF120
 2852 0634 0A       		.byte	0xa
 2853 0635 4D02     		.2byte	0x24d
 2854 0637 BB000000 		.4byte	0xbb
 2855 063b 08       		.byte	0x8
 2856 063c 17       		.uleb128 0x17
 2857 063d 69030000 		.4byte	.LASF121
 2858 0641 0A       		.byte	0xa
 2859 0642 4E02     		.2byte	0x24e
 2860 0644 FB000000 		.4byte	0xfb
 2861 0648 0C       		.byte	0xc
 2862 0649 17       		.uleb128 0x17
 2863 064a 37110000 		.4byte	.LASF122
 2864 064e 0A       		.byte	0xa
 2865 064f 4F02     		.2byte	0x24f
 2866 0651 06010000 		.4byte	0x106
 2867 0655 10       		.byte	0x10
 2868 0656 17       		.uleb128 0x17
 2869 0657 C30D0000 		.4byte	.LASF123
 2870 065b 0A       		.byte	0xa
 2871 065c 5002     		.2byte	0x250
ARM GAS  C:\Users\User\AppData\Local\Temp\ccsn8eRz.s 			page 84


 2872 065e 06010000 		.4byte	0x106
 2873 0662 14       		.byte	0x14
 2874 0663 17       		.uleb128 0x17
 2875 0664 CF090000 		.4byte	.LASF107
 2876 0668 0A       		.byte	0xa
 2877 0669 5202     		.2byte	0x252
 2878 066b BB000000 		.4byte	0xbb
 2879 066f 18       		.byte	0x18
 2880 0670 17       		.uleb128 0x17
 2881 0671 AF1D0000 		.4byte	.LASF108
 2882 0675 0A       		.byte	0xa
 2883 0676 5302     		.2byte	0x253
 2884 0678 FB000000 		.4byte	0xfb
 2885 067c 1C       		.byte	0x1c
 2886 067d 17       		.uleb128 0x17
 2887 067e 880E0000 		.4byte	.LASF109
 2888 0682 0A       		.byte	0xa
 2889 0683 5402     		.2byte	0x254
 2890 0685 06010000 		.4byte	0x106
 2891 0689 20       		.byte	0x20
 2892 068a 17       		.uleb128 0x17
 2893 068b 1C130000 		.4byte	.LASF110
 2894 068f 0A       		.byte	0xa
 2895 0690 5602     		.2byte	0x256
 2896 0692 BB000000 		.4byte	0xbb
 2897 0696 24       		.byte	0x24
 2898 0697 17       		.uleb128 0x17
 2899 0698 C5110000 		.4byte	.LASF111
 2900 069c 0A       		.byte	0xa
 2901 069d 5702     		.2byte	0x257
 2902 069f FB000000 		.4byte	0xfb
 2903 06a3 28       		.byte	0x28
 2904 06a4 17       		.uleb128 0x17
 2905 06a5 DE160000 		.4byte	.LASF124
 2906 06a9 0A       		.byte	0xa
 2907 06aa 5802     		.2byte	0x258
 2908 06ac 06010000 		.4byte	0x106
 2909 06b0 2C       		.byte	0x2c
 2910 06b1 17       		.uleb128 0x17
 2911 06b2 4D0A0000 		.4byte	.LASF113
 2912 06b6 0A       		.byte	0xa
 2913 06b7 5D02     		.2byte	0x25d
 2914 06b9 FC050000 		.4byte	0x5fc
 2915 06bd 30       		.byte	0x30
 2916 06be 17       		.uleb128 0x17
 2917 06bf BB0E0000 		.4byte	.LASF114
 2918 06c3 0A       		.byte	0xa
 2919 06c4 6002     		.2byte	0x260
 2920 06c6 FB000000 		.4byte	0xfb
 2921 06ca 34       		.byte	0x34
 2922 06cb 00       		.byte	0
 2923 06cc 0F       		.uleb128 0xf
 2924 06cd A9020000 		.4byte	.LASF125
 2925 06d1 0A       		.byte	0xa
 2926 06d2 6302     		.2byte	0x263
 2927 06d4 08060000 		.4byte	0x608
 2928 06d8 14       		.uleb128 0x14
ARM GAS  C:\Users\User\AppData\Local\Temp\ccsn8eRz.s 			page 85


 2929 06d9 02       		.byte	0x2
 2930 06da 82000000 		.4byte	0x82
 2931 06de 0B       		.byte	0xb
 2932 06df 4201     		.2byte	0x142
 2933 06e1 110A0000 		.4byte	0xa11
 2934 06e5 15       		.uleb128 0x15
 2935 06e6 B6150000 		.4byte	.LASF126
 2936 06ea 00       		.byte	0
 2937 06eb 19       		.uleb128 0x19
 2938 06ec F5060000 		.4byte	.LASF127
 2939 06f0 0010     		.2byte	0x1000
 2940 06f2 19       		.uleb128 0x19
 2941 06f3 48180000 		.4byte	.LASF128
 2942 06f7 0110     		.2byte	0x1001
 2943 06f9 19       		.uleb128 0x19
 2944 06fa A2070000 		.4byte	.LASF129
 2945 06fe 0210     		.2byte	0x1002
 2946 0700 19       		.uleb128 0x19
 2947 0701 480C0000 		.4byte	.LASF130
 2948 0705 0310     		.2byte	0x1003
 2949 0707 19       		.uleb128 0x19
 2950 0708 4D060000 		.4byte	.LASF131
 2951 070c 0410     		.2byte	0x1004
 2952 070e 19       		.uleb128 0x19
 2953 070f D31C0000 		.4byte	.LASF132
 2954 0713 0510     		.2byte	0x1005
 2955 0715 19       		.uleb128 0x19
 2956 0716 16140000 		.4byte	.LASF133
 2957 071a 0020     		.2byte	0x2000
 2958 071c 19       		.uleb128 0x19
 2959 071d 0F170000 		.4byte	.LASF134
 2960 0721 0120     		.2byte	0x2001
 2961 0723 19       		.uleb128 0x19
 2962 0724 4A130000 		.4byte	.LASF135
 2963 0728 0220     		.2byte	0x2002
 2964 072a 19       		.uleb128 0x19
 2965 072b E90B0000 		.4byte	.LASF136
 2966 072f 0320     		.2byte	0x2003
 2967 0731 19       		.uleb128 0x19
 2968 0732 620E0000 		.4byte	.LASF137
 2969 0736 0420     		.2byte	0x2004
 2970 0738 19       		.uleb128 0x19
 2971 0739 52100000 		.4byte	.LASF138
 2972 073d 0520     		.2byte	0x2005
 2973 073f 19       		.uleb128 0x19
 2974 0740 1A0B0000 		.4byte	.LASF139
 2975 0744 0620     		.2byte	0x2006
 2976 0746 19       		.uleb128 0x19
 2977 0747 7B170000 		.4byte	.LASF140
 2978 074b 0720     		.2byte	0x2007
 2979 074d 19       		.uleb128 0x19
 2980 074e FE190000 		.4byte	.LASF141
 2981 0752 0820     		.2byte	0x2008
 2982 0754 19       		.uleb128 0x19
 2983 0755 55110000 		.4byte	.LASF142
 2984 0759 0920     		.2byte	0x2009
 2985 075b 19       		.uleb128 0x19
ARM GAS  C:\Users\User\AppData\Local\Temp\ccsn8eRz.s 			page 86


 2986 075c 52070000 		.4byte	.LASF143
 2987 0760 0A20     		.2byte	0x200a
 2988 0762 19       		.uleb128 0x19
 2989 0763 631D0000 		.4byte	.LASF144
 2990 0767 0B20     		.2byte	0x200b
 2991 0769 19       		.uleb128 0x19
 2992 076a BB130000 		.4byte	.LASF145
 2993 076e 0C20     		.2byte	0x200c
 2994 0770 19       		.uleb128 0x19
 2995 0771 BB060000 		.4byte	.LASF146
 2996 0775 0D20     		.2byte	0x200d
 2997 0777 19       		.uleb128 0x19
 2998 0778 380E0000 		.4byte	.LASF147
 2999 077c 0E20     		.2byte	0x200e
 3000 077e 19       		.uleb128 0x19
 3001 077f B3140000 		.4byte	.LASF148
 3002 0783 0F20     		.2byte	0x200f
 3003 0785 19       		.uleb128 0x19
 3004 0786 22100000 		.4byte	.LASF149
 3005 078a 1020     		.2byte	0x2010
 3006 078c 19       		.uleb128 0x19
 3007 078d 98110000 		.4byte	.LASF150
 3008 0791 1120     		.2byte	0x2011
 3009 0793 19       		.uleb128 0x19
 3010 0794 B4190000 		.4byte	.LASF151
 3011 0798 1220     		.2byte	0x2012
 3012 079a 19       		.uleb128 0x19
 3013 079b 9C090000 		.4byte	.LASF152
 3014 079f 1320     		.2byte	0x2013
 3015 07a1 19       		.uleb128 0x19
 3016 07a2 590F0000 		.4byte	.LASF153
 3017 07a6 1420     		.2byte	0x2014
 3018 07a8 19       		.uleb128 0x19
 3019 07a9 33040000 		.4byte	.LASF154
 3020 07ad 1520     		.2byte	0x2015
 3021 07af 19       		.uleb128 0x19
 3022 07b0 F2050000 		.4byte	.LASF155
 3023 07b4 1620     		.2byte	0x2016
 3024 07b6 19       		.uleb128 0x19
 3025 07b7 20030000 		.4byte	.LASF156
 3026 07bb 1720     		.2byte	0x2017
 3027 07bd 19       		.uleb128 0x19
 3028 07be 09070000 		.4byte	.LASF157
 3029 07c2 0030     		.2byte	0x3000
 3030 07c4 19       		.uleb128 0x19
 3031 07c5 0E0A0000 		.4byte	.LASF158
 3032 07c9 0130     		.2byte	0x3001
 3033 07cb 19       		.uleb128 0x19
 3034 07cc 2B090000 		.4byte	.LASF159
 3035 07d0 0230     		.2byte	0x3002
 3036 07d2 19       		.uleb128 0x19
 3037 07d3 A9170000 		.4byte	.LASF160
 3038 07d7 0330     		.2byte	0x3003
 3039 07d9 19       		.uleb128 0x19
 3040 07da 74080000 		.4byte	.LASF161
 3041 07de 0430     		.2byte	0x3004
 3042 07e0 19       		.uleb128 0x19
ARM GAS  C:\Users\User\AppData\Local\Temp\ccsn8eRz.s 			page 87


 3043 07e1 ED170000 		.4byte	.LASF162
 3044 07e5 0530     		.2byte	0x3005
 3045 07e7 19       		.uleb128 0x19
 3046 07e8 BD010000 		.4byte	.LASF163
 3047 07ec 0630     		.2byte	0x3006
 3048 07ee 19       		.uleb128 0x19
 3049 07ef E81B0000 		.4byte	.LASF164
 3050 07f3 0730     		.2byte	0x3007
 3051 07f5 19       		.uleb128 0x19
 3052 07f6 AA100000 		.4byte	.LASF165
 3053 07fa 0830     		.2byte	0x3008
 3054 07fc 19       		.uleb128 0x19
 3055 07fd B20A0000 		.4byte	.LASF166
 3056 0801 0930     		.2byte	0x3009
 3057 0803 19       		.uleb128 0x19
 3058 0804 CD170000 		.4byte	.LASF167
 3059 0808 0A30     		.2byte	0x300a
 3060 080a 19       		.uleb128 0x19
 3061 080b 550D0000 		.4byte	.LASF168
 3062 080f 0B30     		.2byte	0x300b
 3063 0811 19       		.uleb128 0x19
 3064 0812 18180000 		.4byte	.LASF169
 3065 0816 0C30     		.2byte	0x300c
 3066 0818 19       		.uleb128 0x19
 3067 0819 D20E0000 		.4byte	.LASF170
 3068 081d 1130     		.2byte	0x3011
 3069 081f 19       		.uleb128 0x19
 3070 0820 F9140000 		.4byte	.LASF171
 3071 0824 1230     		.2byte	0x3012
 3072 0826 19       		.uleb128 0x19
 3073 0827 D2180000 		.4byte	.LASF172
 3074 082b 1330     		.2byte	0x3013
 3075 082d 19       		.uleb128 0x19
 3076 082e 39170000 		.4byte	.LASF173
 3077 0832 1430     		.2byte	0x3014
 3078 0834 19       		.uleb128 0x19
 3079 0835 12160000 		.4byte	.LASF174
 3080 0839 1530     		.2byte	0x3015
 3081 083b 19       		.uleb128 0x19
 3082 083c E50F0000 		.4byte	.LASF175
 3083 0840 1630     		.2byte	0x3016
 3084 0842 19       		.uleb128 0x19
 3085 0843 C30F0000 		.4byte	.LASF176
 3086 0847 1730     		.2byte	0x3017
 3087 0849 19       		.uleb128 0x19
 3088 084a 6C0C0000 		.4byte	.LASF177
 3089 084e 1830     		.2byte	0x3018
 3090 0850 19       		.uleb128 0x19
 3091 0851 2C120000 		.4byte	.LASF178
 3092 0855 0040     		.2byte	0x4000
 3093 0857 19       		.uleb128 0x19
 3094 0858 B11B0000 		.4byte	.LASF179
 3095 085c 0140     		.2byte	0x4001
 3096 085e 19       		.uleb128 0x19
 3097 085f 0A1B0000 		.4byte	.LASF180
 3098 0863 0240     		.2byte	0x4002
 3099 0865 19       		.uleb128 0x19
ARM GAS  C:\Users\User\AppData\Local\Temp\ccsn8eRz.s 			page 88


 3100 0866 13190000 		.4byte	.LASF181
 3101 086a 0340     		.2byte	0x4003
 3102 086c 19       		.uleb128 0x19
 3103 086d 590B0000 		.4byte	.LASF182
 3104 0871 0440     		.2byte	0x4004
 3105 0873 19       		.uleb128 0x19
 3106 0874 1C1D0000 		.4byte	.LASF183
 3107 0878 0540     		.2byte	0x4005
 3108 087a 19       		.uleb128 0x19
 3109 087b 72000000 		.4byte	.LASF184
 3110 087f 0640     		.2byte	0x4006
 3111 0881 19       		.uleb128 0x19
 3112 0882 A60C0000 		.4byte	.LASF185
 3113 0886 0740     		.2byte	0x4007
 3114 0888 19       		.uleb128 0x19
 3115 0889 62020000 		.4byte	.LASF186
 3116 088d 0840     		.2byte	0x4008
 3117 088f 19       		.uleb128 0x19
 3118 0890 0D090000 		.4byte	.LASF187
 3119 0894 0940     		.2byte	0x4009
 3120 0896 19       		.uleb128 0x19
 3121 0897 B91D0000 		.4byte	.LASF188
 3122 089b 0A40     		.2byte	0x400a
 3123 089d 19       		.uleb128 0x19
 3124 089e 790D0000 		.4byte	.LASF189
 3125 08a2 0B40     		.2byte	0x400b
 3126 08a4 19       		.uleb128 0x19
 3127 08a5 73110000 		.4byte	.LASF190
 3128 08a9 0C40     		.2byte	0x400c
 3129 08ab 19       		.uleb128 0x19
 3130 08ac 910E0000 		.4byte	.LASF191
 3131 08b0 0D40     		.2byte	0x400d
 3132 08b2 19       		.uleb128 0x19
 3133 08b3 B0120000 		.4byte	.LASF192
 3134 08b7 0E40     		.2byte	0x400e
 3135 08b9 19       		.uleb128 0x19
 3136 08ba 990D0000 		.4byte	.LASF193
 3137 08be 0F40     		.2byte	0x400f
 3138 08c0 19       		.uleb128 0x19
 3139 08c1 F3070000 		.4byte	.LASF194
 3140 08c5 1040     		.2byte	0x4010
 3141 08c7 19       		.uleb128 0x19
 3142 08c8 381B0000 		.4byte	.LASF195
 3143 08cc 1140     		.2byte	0x4011
 3144 08ce 19       		.uleb128 0x19
 3145 08cf F20A0000 		.4byte	.LASF196
 3146 08d3 1240     		.2byte	0x4012
 3147 08d5 19       		.uleb128 0x19
 3148 08d6 68160000 		.4byte	.LASF197
 3149 08da 1340     		.2byte	0x4013
 3150 08dc 19       		.uleb128 0x19
 3151 08dd 83120000 		.4byte	.LASF198
 3152 08e1 1440     		.2byte	0x4014
 3153 08e3 19       		.uleb128 0x19
 3154 08e4 48050000 		.4byte	.LASF199
 3155 08e8 1540     		.2byte	0x4015
 3156 08ea 19       		.uleb128 0x19
ARM GAS  C:\Users\User\AppData\Local\Temp\ccsn8eRz.s 			page 89


 3157 08eb EC1C0000 		.4byte	.LASF200
 3158 08ef 1640     		.2byte	0x4016
 3159 08f1 19       		.uleb128 0x19
 3160 08f2 37020000 		.4byte	.LASF201
 3161 08f6 1740     		.2byte	0x4017
 3162 08f8 19       		.uleb128 0x19
 3163 08f9 6B010000 		.4byte	.LASF202
 3164 08fd 1840     		.2byte	0x4018
 3165 08ff 19       		.uleb128 0x19
 3166 0900 58150000 		.4byte	.LASF203
 3167 0904 1940     		.2byte	0x4019
 3168 0906 19       		.uleb128 0x19
 3169 0907 CF110000 		.4byte	.LASF204
 3170 090b 1A40     		.2byte	0x401a
 3171 090d 19       		.uleb128 0x19
 3172 090e 70140000 		.4byte	.LASF205
 3173 0912 0050     		.2byte	0x5000
 3174 0914 19       		.uleb128 0x19
 3175 0915 97030000 		.4byte	.LASF206
 3176 0919 0150     		.2byte	0x5001
 3177 091b 19       		.uleb128 0x19
 3178 091c D5090000 		.4byte	.LASF207
 3179 0920 0250     		.2byte	0x5002
 3180 0922 19       		.uleb128 0x19
 3181 0923 C81A0000 		.4byte	.LASF208
 3182 0927 0350     		.2byte	0x5003
 3183 0929 19       		.uleb128 0x19
 3184 092a A0050000 		.4byte	.LASF209
 3185 092e 0450     		.2byte	0x5004
 3186 0930 19       		.uleb128 0x19
 3187 0931 8B140000 		.4byte	.LASF210
 3188 0935 0550     		.2byte	0x5005
 3189 0937 19       		.uleb128 0x19
 3190 0938 F80D0000 		.4byte	.LASF211
 3191 093c 0650     		.2byte	0x5006
 3192 093e 19       		.uleb128 0x19
 3193 093f F9020000 		.4byte	.LASF212
 3194 0943 0750     		.2byte	0x5007
 3195 0945 19       		.uleb128 0x19
 3196 0946 0B040000 		.4byte	.LASF213
 3197 094a 0850     		.2byte	0x5008
 3198 094c 19       		.uleb128 0x19
 3199 094d 27060000 		.4byte	.LASF214
 3200 0951 0950     		.2byte	0x5009
 3201 0953 19       		.uleb128 0x19
 3202 0954 8C060000 		.4byte	.LASF215
 3203 0958 0A50     		.2byte	0x500a
 3204 095a 19       		.uleb128 0x19
 3205 095b 77030000 		.4byte	.LASF216
 3206 095f 0B50     		.2byte	0x500b
 3207 0961 19       		.uleb128 0x19
 3208 0962 DE140000 		.4byte	.LASF217
 3209 0966 0C50     		.2byte	0x500c
 3210 0968 19       		.uleb128 0x19
 3211 0969 3E0B0000 		.4byte	.LASF218
 3212 096d 0D50     		.2byte	0x500d
 3213 096f 19       		.uleb128 0x19
ARM GAS  C:\Users\User\AppData\Local\Temp\ccsn8eRz.s 			page 90


 3214 0970 C91B0000 		.4byte	.LASF219
 3215 0974 0E50     		.2byte	0x500e
 3216 0976 19       		.uleb128 0x19
 3217 0977 2D0A0000 		.4byte	.LASF220
 3218 097b 0F50     		.2byte	0x500f
 3219 097d 19       		.uleb128 0x19
 3220 097e EF160000 		.4byte	.LASF221
 3221 0982 1050     		.2byte	0x5010
 3222 0984 19       		.uleb128 0x19
 3223 0985 A81A0000 		.4byte	.LASF222
 3224 0989 1150     		.2byte	0x5011
 3225 098b 19       		.uleb128 0x19
 3226 098c 20010000 		.4byte	.LASF223
 3227 0990 1250     		.2byte	0x5012
 3228 0992 19       		.uleb128 0x19
 3229 0993 4E140000 		.4byte	.LASF224
 3230 0997 1350     		.2byte	0x5013
 3231 0999 19       		.uleb128 0x19
 3232 099a BF050000 		.4byte	.LASF225
 3233 099e 1450     		.2byte	0x5014
 3234 09a0 19       		.uleb128 0x19
 3235 09a1 5A190000 		.4byte	.LASF226
 3236 09a5 1550     		.2byte	0x5015
 3237 09a7 19       		.uleb128 0x19
 3238 09a8 E71A0000 		.4byte	.LASF227
 3239 09ac 1650     		.2byte	0x5016
 3240 09ae 19       		.uleb128 0x19
 3241 09af 59040000 		.4byte	.LASF228
 3242 09b3 1750     		.2byte	0x5017
 3243 09b5 19       		.uleb128 0x19
 3244 09b6 DD100000 		.4byte	.LASF229
 3245 09ba 1850     		.2byte	0x5018
 3246 09bc 19       		.uleb128 0x19
 3247 09bd 581C0000 		.4byte	.LASF230
 3248 09c1 0060     		.2byte	0x6000
 3249 09c3 19       		.uleb128 0x19
 3250 09c4 441A0000 		.4byte	.LASF231
 3251 09c8 0160     		.2byte	0x6001
 3252 09ca 19       		.uleb128 0x19
 3253 09cb F6180000 		.4byte	.LASF232
 3254 09cf 0260     		.2byte	0x6002
 3255 09d1 19       		.uleb128 0x19
 3256 09d2 51120000 		.4byte	.LASF233
 3257 09d6 0360     		.2byte	0x6003
 3258 09d8 19       		.uleb128 0x19
 3259 09d9 33070000 		.4byte	.LASF234
 3260 09dd 0460     		.2byte	0x6004
 3261 09df 19       		.uleb128 0x19
 3262 09e0 BC160000 		.4byte	.LASF235
 3263 09e4 0560     		.2byte	0x6005
 3264 09e6 19       		.uleb128 0x19
 3265 09e7 6B0A0000 		.4byte	.LASF236
 3266 09eb 0660     		.2byte	0x6006
 3267 09ed 19       		.uleb128 0x19
 3268 09ee 26000000 		.4byte	.LASF237
 3269 09f2 0760     		.2byte	0x6007
 3270 09f4 19       		.uleb128 0x19
ARM GAS  C:\Users\User\AppData\Local\Temp\ccsn8eRz.s 			page 91


 3271 09f5 F4010000 		.4byte	.LASF238
 3272 09f9 0860     		.2byte	0x6008
 3273 09fb 19       		.uleb128 0x19
 3274 09fc 9B000000 		.4byte	.LASF239
 3275 0a00 0960     		.2byte	0x6009
 3276 0a02 19       		.uleb128 0x19
 3277 0a03 E5110000 		.4byte	.LASF240
 3278 0a07 0A60     		.2byte	0x600a
 3279 0a09 19       		.uleb128 0x19
 3280 0a0a 5C0A0000 		.4byte	.LASF241
 3281 0a0e FFFF     		.2byte	0xffff
 3282 0a10 00       		.byte	0
 3283 0a11 07       		.uleb128 0x7
 3284 0a12 CF000000 		.4byte	0xcf
 3285 0a16 1A       		.uleb128 0x1a
 3286 0a17 02       		.byte	0x2
 3287 0a18 0C       		.byte	0xc
 3288 0a19 5B01     		.2byte	0x15b
 3289 0a1b 3A0A0000 		.4byte	0xa3a
 3290 0a1f 17       		.uleb128 0x17
 3291 0a20 2F1B0000 		.4byte	.LASF242
 3292 0a24 0C       		.byte	0xc
 3293 0a25 6501     		.2byte	0x165
 3294 0a27 CF000000 		.4byte	0xcf
 3295 0a2b 00       		.byte	0
 3296 0a2c 17       		.uleb128 0x17
 3297 0a2d 4F090000 		.4byte	.LASF243
 3298 0a31 0C       		.byte	0xc
 3299 0a32 6901     		.2byte	0x169
 3300 0a34 CF000000 		.4byte	0xcf
 3301 0a38 01       		.byte	0x1
 3302 0a39 00       		.byte	0
 3303 0a3a 0F       		.uleb128 0xf
 3304 0a3b 1C150000 		.4byte	.LASF244
 3305 0a3f 0C       		.byte	0xc
 3306 0a40 6B01     		.2byte	0x16b
 3307 0a42 160A0000 		.4byte	0xa16
 3308 0a46 1B       		.uleb128 0x1b
 3309 0a47 01       		.byte	0x1
 3310 0a48 5E000000 		.4byte	0x5e
 3311 0a4c 0D       		.byte	0xd
 3312 0a4d 7E       		.byte	0x7e
 3313 0a4e 6B0A0000 		.4byte	0xa6b
 3314 0a52 15       		.uleb128 0x15
 3315 0a53 D9030000 		.4byte	.LASF245
 3316 0a57 00       		.byte	0
 3317 0a58 15       		.uleb128 0x15
 3318 0a59 E3080000 		.4byte	.LASF246
 3319 0a5d 01       		.byte	0x1
 3320 0a5e 15       		.uleb128 0x15
 3321 0a5f D50A0000 		.4byte	.LASF247
 3322 0a63 02       		.byte	0x2
 3323 0a64 15       		.uleb128 0x15
 3324 0a65 D80C0000 		.4byte	.LASF248
 3325 0a69 03       		.byte	0x3
 3326 0a6a 00       		.byte	0
 3327 0a6b 04       		.uleb128 0x4
ARM GAS  C:\Users\User\AppData\Local\Temp\ccsn8eRz.s 			page 92


 3328 0a6c 5E080000 		.4byte	.LASF249
 3329 0a70 0D       		.byte	0xd
 3330 0a71 83       		.byte	0x83
 3331 0a72 460A0000 		.4byte	0xa46
 3332 0a76 1B       		.uleb128 0x1b
 3333 0a77 01       		.byte	0x1
 3334 0a78 5E000000 		.4byte	0x5e
 3335 0a7c 0D       		.byte	0xd
 3336 0a7d 87       		.byte	0x87
 3337 0a7e B30A0000 		.4byte	0xab3
 3338 0a82 15       		.uleb128 0x15
 3339 0a83 371D0000 		.4byte	.LASF250
 3340 0a87 00       		.byte	0
 3341 0a88 15       		.uleb128 0x15
 3342 0a89 6F050000 		.4byte	.LASF251
 3343 0a8d 01       		.byte	0x1
 3344 0a8e 15       		.uleb128 0x15
 3345 0a8f 00130000 		.4byte	.LASF252
 3346 0a93 02       		.byte	0x2
 3347 0a94 15       		.uleb128 0x15
 3348 0a95 851D0000 		.4byte	.LASF253
 3349 0a99 03       		.byte	0x3
 3350 0a9a 15       		.uleb128 0x15
 3351 0a9b 91130000 		.4byte	.LASF254
 3352 0a9f 04       		.byte	0x4
 3353 0aa0 15       		.uleb128 0x15
 3354 0aa1 190D0000 		.4byte	.LASF255
 3355 0aa5 05       		.byte	0x5
 3356 0aa6 15       		.uleb128 0x15
 3357 0aa7 D5120000 		.4byte	.LASF256
 3358 0aab 06       		.byte	0x6
 3359 0aac 15       		.uleb128 0x15
 3360 0aad 90010000 		.4byte	.LASF257
 3361 0ab1 07       		.byte	0x7
 3362 0ab2 00       		.byte	0
 3363 0ab3 04       		.uleb128 0x4
 3364 0ab4 AC0F0000 		.4byte	.LASF258
 3365 0ab8 0D       		.byte	0xd
 3366 0ab9 90       		.byte	0x90
 3367 0aba 760A0000 		.4byte	0xa76
 3368 0abe 11       		.uleb128 0x11
 3369 0abf 04       		.byte	0x4
 3370 0ac0 FE010000 		.4byte	0x1fe
 3371 0ac4 04       		.uleb128 0x4
 3372 0ac5 17120000 		.4byte	.LASF259
 3373 0ac9 0E       		.byte	0xe
 3374 0aca 35       		.byte	0x35
 3375 0acb 5E000000 		.4byte	0x5e
 3376 0acf 1B       		.uleb128 0x1b
 3377 0ad0 01       		.byte	0x1
 3378 0ad1 5E000000 		.4byte	0x5e
 3379 0ad5 0E       		.byte	0xe
 3380 0ad6 39       		.byte	0x39
 3381 0ad7 000B0000 		.4byte	0xb00
 3382 0adb 15       		.uleb128 0x15
 3383 0adc CA020000 		.4byte	.LASF260
 3384 0ae0 00       		.byte	0
ARM GAS  C:\Users\User\AppData\Local\Temp\ccsn8eRz.s 			page 93


 3385 0ae1 15       		.uleb128 0x15
 3386 0ae2 681B0000 		.4byte	.LASF261
 3387 0ae6 01       		.byte	0x1
 3388 0ae7 15       		.uleb128 0x15
 3389 0ae8 D2080000 		.4byte	.LASF262
 3390 0aec 02       		.byte	0x2
 3391 0aed 15       		.uleb128 0x15
 3392 0aee DE060000 		.4byte	.LASF263
 3393 0af2 03       		.byte	0x3
 3394 0af3 15       		.uleb128 0x15
 3395 0af4 3E1C0000 		.4byte	.LASF264
 3396 0af8 04       		.byte	0x4
 3397 0af9 15       		.uleb128 0x15
 3398 0afa 74180000 		.4byte	.LASF265
 3399 0afe 05       		.byte	0x5
 3400 0aff 00       		.byte	0
 3401 0b00 04       		.uleb128 0x4
 3402 0b01 760B0000 		.4byte	.LASF266
 3403 0b05 0E       		.byte	0xe
 3404 0b06 40       		.byte	0x40
 3405 0b07 CF0A0000 		.4byte	0xacf
 3406 0b0b 1B       		.uleb128 0x1b
 3407 0b0c 01       		.byte	0x1
 3408 0b0d 5E000000 		.4byte	0x5e
 3409 0b11 0E       		.byte	0xe
 3410 0b12 44       		.byte	0x44
 3411 0b13 300B0000 		.4byte	0xb30
 3412 0b17 15       		.uleb128 0x15
 3413 0b18 971C0000 		.4byte	.LASF267
 3414 0b1c 00       		.byte	0
 3415 0b1d 15       		.uleb128 0x15
 3416 0b1e A61C0000 		.4byte	.LASF268
 3417 0b22 01       		.byte	0x1
 3418 0b23 15       		.uleb128 0x15
 3419 0b24 B51C0000 		.4byte	.LASF269
 3420 0b28 02       		.byte	0x2
 3421 0b29 15       		.uleb128 0x15
 3422 0b2a C41C0000 		.4byte	.LASF270
 3423 0b2e 03       		.byte	0x3
 3424 0b2f 00       		.byte	0
 3425 0b30 04       		.uleb128 0x4
 3426 0b31 11060000 		.4byte	.LASF271
 3427 0b35 0E       		.byte	0xe
 3428 0b36 49       		.byte	0x49
 3429 0b37 0B0B0000 		.4byte	0xb0b
 3430 0b3b 10       		.uleb128 0x10
 3431 0b3c 8E090000 		.4byte	.LASF272
 3432 0b40 6F       		.byte	0x6f
 3433 0b41 01       		.byte	0x1
 3434 0b42 31       		.byte	0x31
 3435 0b43 780B0000 		.4byte	0xb78
 3436 0b47 0C       		.uleb128 0xc
 3437 0b48 4F040000 		.4byte	.LASF273
 3438 0b4c 01       		.byte	0x1
 3439 0b4d 34       		.byte	0x34
 3440 0b4e CF000000 		.4byte	0xcf
 3441 0b52 00       		.byte	0
ARM GAS  C:\Users\User\AppData\Local\Temp\ccsn8eRz.s 			page 94


 3442 0b53 0C       		.uleb128 0xc
 3443 0b54 BE0B0000 		.4byte	.LASF274
 3444 0b58 01       		.byte	0x1
 3445 0b59 37       		.byte	0x37
 3446 0b5a 780B0000 		.4byte	0xb78
 3447 0b5e 01       		.byte	0x1
 3448 0b5f 0C       		.uleb128 0xc
 3449 0b60 19110000 		.4byte	.LASF275
 3450 0b64 01       		.byte	0x1
 3451 0b65 3A       		.byte	0x3a
 3452 0b66 880B0000 		.4byte	0xb88
 3453 0b6a 22       		.byte	0x22
 3454 0b6b 0B       		.uleb128 0xb
 3455 0b6c 6F646400 		.ascii	"odd\000"
 3456 0b70 01       		.byte	0x1
 3457 0b71 3D       		.byte	0x3d
 3458 0b72 780B0000 		.4byte	0xb78
 3459 0b76 4E       		.byte	0x4e
 3460 0b77 00       		.byte	0
 3461 0b78 08       		.uleb128 0x8
 3462 0b79 CF000000 		.4byte	0xcf
 3463 0b7d 880B0000 		.4byte	0xb88
 3464 0b81 09       		.uleb128 0x9
 3465 0b82 B4000000 		.4byte	0xb4
 3466 0b86 20       		.byte	0x20
 3467 0b87 00       		.byte	0
 3468 0b88 08       		.uleb128 0x8
 3469 0b89 CF000000 		.4byte	0xcf
 3470 0b8d 980B0000 		.4byte	0xb98
 3471 0b91 09       		.uleb128 0x9
 3472 0b92 B4000000 		.4byte	0xb4
 3473 0b96 2B       		.byte	0x2b
 3474 0b97 00       		.byte	0
 3475 0b98 1C       		.uleb128 0x1c
 3476 0b99 6F       		.byte	0x6f
 3477 0b9a 01       		.byte	0x1
 3478 0b9b 41       		.byte	0x41
 3479 0b9c B70B0000 		.4byte	0xbb7
 3480 0ba0 1D       		.uleb128 0x1d
 3481 0ba1 C7000000 		.4byte	.LASF276
 3482 0ba5 01       		.byte	0x1
 3483 0ba6 44       		.byte	0x44
 3484 0ba7 3B0B0000 		.4byte	0xb3b
 3485 0bab 1D       		.uleb128 0x1d
 3486 0bac FD0E0000 		.4byte	.LASF277
 3487 0bb0 01       		.byte	0x1
 3488 0bb1 47       		.byte	0x47
 3489 0bb2 B70B0000 		.4byte	0xbb7
 3490 0bb6 00       		.byte	0
 3491 0bb7 08       		.uleb128 0x8
 3492 0bb8 CF000000 		.4byte	0xcf
 3493 0bbc C70B0000 		.4byte	0xbc7
 3494 0bc0 09       		.uleb128 0x9
 3495 0bc1 B4000000 		.4byte	0xb4
 3496 0bc5 6E       		.byte	0x6e
 3497 0bc6 00       		.byte	0
 3498 0bc7 04       		.uleb128 0x4
ARM GAS  C:\Users\User\AppData\Local\Temp\ccsn8eRz.s 			page 95


 3499 0bc8 0D0C0000 		.4byte	.LASF278
 3500 0bcc 01       		.byte	0x1
 3501 0bcd 4A       		.byte	0x4a
 3502 0bce 980B0000 		.4byte	0xb98
 3503 0bd2 1E       		.uleb128 0x1e
 3504 0bd3 50080000 		.4byte	.LASF341
 3505 0bd7 02       		.byte	0x2
 3506 0bd8 E502     		.2byte	0x2e5
 3507 0bda 03       		.byte	0x3
 3508 0bdb 040C0000 		.4byte	0xc04
 3509 0bdf 1F       		.uleb128 0x1f
 3510 0be0 8D070000 		.4byte	.LASF279
 3511 0be4 02       		.byte	0x2
 3512 0be5 E502     		.2byte	0x2e5
 3513 0be7 BE0A0000 		.4byte	0xabe
 3514 0beb 1F       		.uleb128 0x1f
 3515 0bec EF180000 		.4byte	.LASF280
 3516 0bf0 02       		.byte	0x2
 3517 0bf1 E502     		.2byte	0x2e5
 3518 0bf3 FB000000 		.4byte	0xfb
 3519 0bf7 1F       		.uleb128 0x1f
 3520 0bf8 B8090000 		.4byte	.LASF281
 3521 0bfc 02       		.byte	0x2
 3522 0bfd E502     		.2byte	0x2e5
 3523 0bff FB000000 		.4byte	0xfb
 3524 0c03 00       		.byte	0
 3525 0c04 20       		.uleb128 0x20
 3526 0c05 FD090000 		.4byte	.LASF285
 3527 0c09 01       		.byte	0x1
 3528 0c0a 77       		.byte	0x77
 3529 0c0b 00000000 		.4byte	.LFB647
 3530 0c0f 4C000000 		.4byte	.LFE647-.LFB647
 3531 0c13 01       		.uleb128 0x1
 3532 0c14 9C       		.byte	0x9c
 3533 0c15 480D0000 		.4byte	0xd48
 3534 0c19 21       		.uleb128 0x21
 3535 0c1a 18030000 		.4byte	.LASF282
 3536 0c1e 01       		.byte	0x1
 3537 0c1f 77       		.byte	0x77
 3538 0c20 CF000000 		.4byte	0xcf
 3539 0c24 00000000 		.4byte	.LLST0
 3540 0c28 21       		.uleb128 0x21
 3541 0c29 5D0E0000 		.4byte	.LASF283
 3542 0c2d 01       		.byte	0x1
 3543 0c2e 77       		.byte	0x77
 3544 0c2f F5030000 		.4byte	0x3f5
 3545 0c33 21000000 		.4byte	.LLST1
 3546 0c37 21       		.uleb128 0x21
 3547 0c38 6B1A0000 		.4byte	.LASF284
 3548 0c3c 01       		.byte	0x1
 3549 0c3d 77       		.byte	0x77
 3550 0c3e E5000000 		.4byte	0xe5
 3551 0c42 55000000 		.4byte	.LLST2
 3552 0c46 22       		.uleb128 0x22
 3553 0c47 D20B0000 		.4byte	0xbd2
 3554 0c4b 0A000000 		.4byte	.LBB58
 3555 0c4f 06000000 		.4byte	.LBE58-.LBB58
ARM GAS  C:\Users\User\AppData\Local\Temp\ccsn8eRz.s 			page 96


 3556 0c53 01       		.byte	0x1
 3557 0c54 7A       		.byte	0x7a
 3558 0c55 750C0000 		.4byte	0xc75
 3559 0c59 23       		.uleb128 0x23
 3560 0c5a F70B0000 		.4byte	0xbf7
 3561 0c5e 97000000 		.4byte	.LLST3
 3562 0c62 23       		.uleb128 0x23
 3563 0c63 EB0B0000 		.4byte	0xbeb
 3564 0c67 AB000000 		.4byte	.LLST4
 3565 0c6b 23       		.uleb128 0x23
 3566 0c6c DF0B0000 		.4byte	0xbdf
 3567 0c70 BF000000 		.4byte	.LLST5
 3568 0c74 00       		.byte	0
 3569 0c75 22       		.uleb128 0x22
 3570 0c76 D20B0000 		.4byte	0xbd2
 3571 0c7a 1C000000 		.4byte	.LBB60
 3572 0c7e 02000000 		.4byte	.LBE60-.LBB60
 3573 0c82 01       		.byte	0x1
 3574 0c83 80       		.byte	0x80
 3575 0c84 A40C0000 		.4byte	0xca4
 3576 0c88 23       		.uleb128 0x23
 3577 0c89 F70B0000 		.4byte	0xbf7
 3578 0c8d D7000000 		.4byte	.LLST6
 3579 0c91 23       		.uleb128 0x23
 3580 0c92 EB0B0000 		.4byte	0xbeb
 3581 0c96 EB000000 		.4byte	.LLST7
 3582 0c9a 23       		.uleb128 0x23
 3583 0c9b DF0B0000 		.4byte	0xbdf
 3584 0c9f FF000000 		.4byte	.LLST8
 3585 0ca3 00       		.byte	0
 3586 0ca4 22       		.uleb128 0x22
 3587 0ca5 D20B0000 		.4byte	0xbd2
 3588 0ca9 1E000000 		.4byte	.LBB62
 3589 0cad 02000000 		.4byte	.LBE62-.LBB62
 3590 0cb1 01       		.byte	0x1
 3591 0cb2 86       		.byte	0x86
 3592 0cb3 D30C0000 		.4byte	0xcd3
 3593 0cb7 23       		.uleb128 0x23
 3594 0cb8 F70B0000 		.4byte	0xbf7
 3595 0cbc 17010000 		.4byte	.LLST9
 3596 0cc0 23       		.uleb128 0x23
 3597 0cc1 EB0B0000 		.4byte	0xbeb
 3598 0cc5 2B010000 		.4byte	.LLST10
 3599 0cc9 23       		.uleb128 0x23
 3600 0cca DF0B0000 		.4byte	0xbdf
 3601 0cce 3F010000 		.4byte	.LLST11
 3602 0cd2 00       		.byte	0
 3603 0cd3 22       		.uleb128 0x22
 3604 0cd4 D20B0000 		.4byte	0xbd2
 3605 0cd8 3C000000 		.4byte	.LBB64
 3606 0cdc 10000000 		.4byte	.LBE64-.LBB64
 3607 0ce0 01       		.byte	0x1
 3608 0ce1 8F       		.byte	0x8f
 3609 0ce2 020D0000 		.4byte	0xd02
 3610 0ce6 23       		.uleb128 0x23
 3611 0ce7 F70B0000 		.4byte	0xbf7
 3612 0ceb 57010000 		.4byte	.LLST12
ARM GAS  C:\Users\User\AppData\Local\Temp\ccsn8eRz.s 			page 97


 3613 0cef 23       		.uleb128 0x23
 3614 0cf0 EB0B0000 		.4byte	0xbeb
 3615 0cf4 6B010000 		.4byte	.LLST13
 3616 0cf8 23       		.uleb128 0x23
 3617 0cf9 DF0B0000 		.4byte	0xbdf
 3618 0cfd 7F010000 		.4byte	.LLST14
 3619 0d01 00       		.byte	0
 3620 0d02 24       		.uleb128 0x24
 3621 0d03 16000000 		.4byte	.LVL4
 3622 0d07 BC1B0000 		.4byte	0x1bbc
 3623 0d0b 160D0000 		.4byte	0xd16
 3624 0d0f 25       		.uleb128 0x25
 3625 0d10 01       		.uleb128 0x1
 3626 0d11 50       		.byte	0x50
 3627 0d12 02       		.uleb128 0x2
 3628 0d13 08       		.byte	0x8
 3629 0d14 70       		.byte	0x70
 3630 0d15 00       		.byte	0
 3631 0d16 24       		.uleb128 0x24
 3632 0d17 1C000000 		.4byte	.LVL5
 3633 0d1b BC1B0000 		.4byte	0x1bbc
 3634 0d1f 2A0D0000 		.4byte	0xd2a
 3635 0d23 25       		.uleb128 0x25
 3636 0d24 01       		.uleb128 0x1
 3637 0d25 50       		.byte	0x50
 3638 0d26 02       		.uleb128 0x2
 3639 0d27 78       		.byte	0x78
 3640 0d28 00       		.sleb128 0
 3641 0d29 00       		.byte	0
 3642 0d2a 24       		.uleb128 0x24
 3643 0d2b 26000000 		.4byte	.LVL8
 3644 0d2f BC1B0000 		.4byte	0x1bbc
 3645 0d33 3E0D0000 		.4byte	0xd3e
 3646 0d37 25       		.uleb128 0x25
 3647 0d38 01       		.uleb128 0x1
 3648 0d39 50       		.byte	0x50
 3649 0d3a 02       		.uleb128 0x2
 3650 0d3b 08       		.byte	0x8
 3651 0d3c 72       		.byte	0x72
 3652 0d3d 00       		.byte	0
 3653 0d3e 26       		.uleb128 0x26
 3654 0d3f 30000000 		.4byte	.LVL11
 3655 0d43 BC1B0000 		.4byte	0x1bbc
 3656 0d47 00       		.byte	0
 3657 0d48 20       		.uleb128 0x20
 3658 0d49 A5150000 		.4byte	.LASF286
 3659 0d4d 01       		.byte	0x1
 3660 0d4e A2       		.byte	0xa2
 3661 0d4f 00000000 		.4byte	.LFB648
 3662 0d53 18000000 		.4byte	.LFE648-.LFB648
 3663 0d57 01       		.uleb128 0x1
 3664 0d58 9C       		.byte	0x9c
 3665 0d59 910D0000 		.4byte	0xd91
 3666 0d5d 21       		.uleb128 0x21
 3667 0d5e 18030000 		.4byte	.LASF282
 3668 0d62 01       		.byte	0x1
 3669 0d63 A2       		.byte	0xa2
ARM GAS  C:\Users\User\AppData\Local\Temp\ccsn8eRz.s 			page 98


 3670 0d64 CF000000 		.4byte	0xcf
 3671 0d68 97010000 		.4byte	.LLST15
 3672 0d6c 21       		.uleb128 0x21
 3673 0d6d 5D0E0000 		.4byte	.LASF283
 3674 0d71 01       		.byte	0x1
 3675 0d72 A2       		.byte	0xa2
 3676 0d73 CF000000 		.4byte	0xcf
 3677 0d77 B8010000 		.4byte	.LLST16
 3678 0d7b 27       		.uleb128 0x27
 3679 0d7c 12000000 		.4byte	.LVL19
 3680 0d80 040C0000 		.4byte	0xc04
 3681 0d84 25       		.uleb128 0x25
 3682 0d85 01       		.uleb128 0x1
 3683 0d86 51       		.byte	0x51
 3684 0d87 02       		.uleb128 0x2
 3685 0d88 91       		.byte	0x91
 3686 0d89 77       		.sleb128 -9
 3687 0d8a 25       		.uleb128 0x25
 3688 0d8b 01       		.uleb128 0x1
 3689 0d8c 52       		.byte	0x52
 3690 0d8d 01       		.uleb128 0x1
 3691 0d8e 31       		.byte	0x31
 3692 0d8f 00       		.byte	0
 3693 0d90 00       		.byte	0
 3694 0d91 28       		.uleb128 0x28
 3695 0d92 7C100000 		.4byte	.LASF288
 3696 0d96 01       		.byte	0x1
 3697 0d97 B9       		.byte	0xb9
 3698 0d98 CF000000 		.4byte	0xcf
 3699 0d9c 00000000 		.4byte	.LFB649
 3700 0da0 30000000 		.4byte	.LFE649-.LFB649
 3701 0da4 01       		.uleb128 0x1
 3702 0da5 9C       		.byte	0x9c
 3703 0da6 DE0E0000 		.4byte	0xede
 3704 0daa 21       		.uleb128 0x21
 3705 0dab 18030000 		.4byte	.LASF282
 3706 0daf 01       		.byte	0x1
 3707 0db0 B9       		.byte	0xb9
 3708 0db1 CF000000 		.4byte	0xcf
 3709 0db5 E3010000 		.4byte	.LLST17
 3710 0db9 21       		.uleb128 0x21
 3711 0dba 5D0E0000 		.4byte	.LASF283
 3712 0dbe 01       		.byte	0x1
 3713 0dbf B9       		.byte	0xb9
 3714 0dc0 CF000000 		.4byte	0xcf
 3715 0dc4 04020000 		.4byte	.LLST18
 3716 0dc8 29       		.uleb128 0x29
 3717 0dc9 F80C0000 		.4byte	.LASF290
 3718 0dcd 01       		.byte	0x1
 3719 0dce BC       		.byte	0xbc
 3720 0dcf CF000000 		.4byte	0xcf
 3721 0dd3 01       		.uleb128 0x1
 3722 0dd4 50       		.byte	0x50
 3723 0dd5 22       		.uleb128 0x22
 3724 0dd6 D20B0000 		.4byte	0xbd2
 3725 0dda 06000000 		.4byte	.LBB66
 3726 0dde 06000000 		.4byte	.LBE66-.LBB66
ARM GAS  C:\Users\User\AppData\Local\Temp\ccsn8eRz.s 			page 99


 3727 0de2 01       		.byte	0x1
 3728 0de3 BF       		.byte	0xbf
 3729 0de4 040E0000 		.4byte	0xe04
 3730 0de8 23       		.uleb128 0x23
 3731 0de9 F70B0000 		.4byte	0xbf7
 3732 0ded 25020000 		.4byte	.LLST19
 3733 0df1 23       		.uleb128 0x23
 3734 0df2 EB0B0000 		.4byte	0xbeb
 3735 0df6 39020000 		.4byte	.LLST20
 3736 0dfa 23       		.uleb128 0x23
 3737 0dfb DF0B0000 		.4byte	0xbdf
 3738 0dff 4D020000 		.4byte	.LLST21
 3739 0e03 00       		.byte	0
 3740 0e04 22       		.uleb128 0x22
 3741 0e05 D20B0000 		.4byte	0xbd2
 3742 0e09 18000000 		.4byte	.LBB68
 3743 0e0d 02000000 		.4byte	.LBE68-.LBB68
 3744 0e11 01       		.byte	0x1
 3745 0e12 C5       		.byte	0xc5
 3746 0e13 330E0000 		.4byte	0xe33
 3747 0e17 23       		.uleb128 0x23
 3748 0e18 F70B0000 		.4byte	0xbf7
 3749 0e1c 65020000 		.4byte	.LLST22
 3750 0e20 23       		.uleb128 0x23
 3751 0e21 EB0B0000 		.4byte	0xbeb
 3752 0e25 79020000 		.4byte	.LLST23
 3753 0e29 23       		.uleb128 0x23
 3754 0e2a DF0B0000 		.4byte	0xbdf
 3755 0e2e 8D020000 		.4byte	.LLST24
 3756 0e32 00       		.byte	0
 3757 0e33 22       		.uleb128 0x22
 3758 0e34 D20B0000 		.4byte	0xbd2
 3759 0e38 1A000000 		.4byte	.LBB70
 3760 0e3c 02000000 		.4byte	.LBE70-.LBB70
 3761 0e40 01       		.byte	0x1
 3762 0e41 CB       		.byte	0xcb
 3763 0e42 620E0000 		.4byte	0xe62
 3764 0e46 23       		.uleb128 0x23
 3765 0e47 F70B0000 		.4byte	0xbf7
 3766 0e4b A5020000 		.4byte	.LLST25
 3767 0e4f 23       		.uleb128 0x23
 3768 0e50 EB0B0000 		.4byte	0xbeb
 3769 0e54 B9020000 		.4byte	.LLST26
 3770 0e58 23       		.uleb128 0x23
 3771 0e59 DF0B0000 		.4byte	0xbdf
 3772 0e5d CD020000 		.4byte	.LLST27
 3773 0e61 00       		.byte	0
 3774 0e62 22       		.uleb128 0x22
 3775 0e63 D20B0000 		.4byte	0xbd2
 3776 0e67 28000000 		.4byte	.LBB72
 3777 0e6b 02000000 		.4byte	.LBE72-.LBB72
 3778 0e6f 01       		.byte	0x1
 3779 0e70 D1       		.byte	0xd1
 3780 0e71 910E0000 		.4byte	0xe91
 3781 0e75 23       		.uleb128 0x23
 3782 0e76 F70B0000 		.4byte	0xbf7
 3783 0e7a E5020000 		.4byte	.LLST28
ARM GAS  C:\Users\User\AppData\Local\Temp\ccsn8eRz.s 			page 100


 3784 0e7e 23       		.uleb128 0x23
 3785 0e7f EB0B0000 		.4byte	0xbeb
 3786 0e83 F9020000 		.4byte	.LLST29
 3787 0e87 23       		.uleb128 0x23
 3788 0e88 DF0B0000 		.4byte	0xbdf
 3789 0e8c 0D030000 		.4byte	.LLST30
 3790 0e90 00       		.byte	0
 3791 0e91 24       		.uleb128 0x24
 3792 0e92 12000000 		.4byte	.LVL24
 3793 0e96 BC1B0000 		.4byte	0x1bbc
 3794 0e9a A50E0000 		.4byte	0xea5
 3795 0e9e 25       		.uleb128 0x25
 3796 0e9f 01       		.uleb128 0x1
 3797 0ea0 50       		.byte	0x50
 3798 0ea1 02       		.uleb128 0x2
 3799 0ea2 08       		.byte	0x8
 3800 0ea3 70       		.byte	0x70
 3801 0ea4 00       		.byte	0
 3802 0ea5 24       		.uleb128 0x24
 3803 0ea6 18000000 		.4byte	.LVL25
 3804 0eaa BC1B0000 		.4byte	0x1bbc
 3805 0eae B90E0000 		.4byte	0xeb9
 3806 0eb2 25       		.uleb128 0x25
 3807 0eb3 01       		.uleb128 0x1
 3808 0eb4 50       		.byte	0x50
 3809 0eb5 02       		.uleb128 0x2
 3810 0eb6 77       		.byte	0x77
 3811 0eb7 00       		.sleb128 0
 3812 0eb8 00       		.byte	0
 3813 0eb9 24       		.uleb128 0x24
 3814 0eba 22000000 		.4byte	.LVL28
 3815 0ebe BC1B0000 		.4byte	0x1bbc
 3816 0ec2 CD0E0000 		.4byte	0xecd
 3817 0ec6 25       		.uleb128 0x25
 3818 0ec7 01       		.uleb128 0x1
 3819 0ec8 50       		.byte	0x50
 3820 0ec9 02       		.uleb128 0x2
 3821 0eca 08       		.byte	0x8
 3822 0ecb 73       		.byte	0x73
 3823 0ecc 00       		.byte	0
 3824 0ecd 27       		.uleb128 0x27
 3825 0ece 28000000 		.4byte	.LVL29
 3826 0ed2 C71B0000 		.4byte	0x1bc7
 3827 0ed6 25       		.uleb128 0x25
 3828 0ed7 01       		.uleb128 0x1
 3829 0ed8 50       		.byte	0x50
 3830 0ed9 02       		.uleb128 0x2
 3831 0eda 76       		.byte	0x76
 3832 0edb 00       		.sleb128 0
 3833 0edc 00       		.byte	0
 3834 0edd 00       		.byte	0
 3835 0ede 20       		.uleb128 0x20
 3836 0edf 0A120000 		.4byte	.LASF287
 3837 0ee3 01       		.byte	0x1
 3838 0ee4 E6       		.byte	0xe6
 3839 0ee5 00000000 		.4byte	.LFB650
 3840 0ee9 34000000 		.4byte	.LFE650-.LFB650
ARM GAS  C:\Users\User\AppData\Local\Temp\ccsn8eRz.s 			page 101


 3841 0eed 01       		.uleb128 0x1
 3842 0eee 9C       		.byte	0x9c
 3843 0eef 20100000 		.4byte	0x1020
 3844 0ef3 22       		.uleb128 0x22
 3845 0ef4 D20B0000 		.4byte	0xbd2
 3846 0ef8 02000000 		.4byte	.LBB74
 3847 0efc 06000000 		.4byte	.LBE74-.LBB74
 3848 0f00 01       		.byte	0x1
 3849 0f01 E9       		.byte	0xe9
 3850 0f02 220F0000 		.4byte	0xf22
 3851 0f06 23       		.uleb128 0x23
 3852 0f07 F70B0000 		.4byte	0xbf7
 3853 0f0b 25030000 		.4byte	.LLST31
 3854 0f0f 23       		.uleb128 0x23
 3855 0f10 EB0B0000 		.4byte	0xbeb
 3856 0f14 39030000 		.4byte	.LLST32
 3857 0f18 23       		.uleb128 0x23
 3858 0f19 DF0B0000 		.4byte	0xbdf
 3859 0f1d 4D030000 		.4byte	.LLST33
 3860 0f21 00       		.byte	0
 3861 0f22 22       		.uleb128 0x22
 3862 0f23 D20B0000 		.4byte	0xbd2
 3863 0f27 08000000 		.4byte	.LBB76
 3864 0f2b 06000000 		.4byte	.LBE76-.LBB76
 3865 0f2f 01       		.byte	0x1
 3866 0f30 EB       		.byte	0xeb
 3867 0f31 510F0000 		.4byte	0xf51
 3868 0f35 23       		.uleb128 0x23
 3869 0f36 F70B0000 		.4byte	0xbf7
 3870 0f3a 65030000 		.4byte	.LLST34
 3871 0f3e 23       		.uleb128 0x23
 3872 0f3f EB0B0000 		.4byte	0xbeb
 3873 0f43 79030000 		.4byte	.LLST35
 3874 0f47 23       		.uleb128 0x23
 3875 0f48 DF0B0000 		.4byte	0xbdf
 3876 0f4c 8D030000 		.4byte	.LLST36
 3877 0f50 00       		.byte	0
 3878 0f51 22       		.uleb128 0x22
 3879 0f52 D20B0000 		.4byte	0xbd2
 3880 0f56 0E000000 		.4byte	.LBB78
 3881 0f5a 04000000 		.4byte	.LBE78-.LBB78
 3882 0f5e 01       		.byte	0x1
 3883 0f5f ED       		.byte	0xed
 3884 0f60 800F0000 		.4byte	0xf80
 3885 0f64 23       		.uleb128 0x23
 3886 0f65 F70B0000 		.4byte	0xbf7
 3887 0f69 A5030000 		.4byte	.LLST37
 3888 0f6d 23       		.uleb128 0x23
 3889 0f6e EB0B0000 		.4byte	0xbeb
 3890 0f72 B9030000 		.4byte	.LLST38
 3891 0f76 23       		.uleb128 0x23
 3892 0f77 DF0B0000 		.4byte	0xbdf
 3893 0f7b CD030000 		.4byte	.LLST39
 3894 0f7f 00       		.byte	0
 3895 0f80 22       		.uleb128 0x22
 3896 0f81 D20B0000 		.4byte	0xbd2
 3897 0f85 16000000 		.4byte	.LBB80
ARM GAS  C:\Users\User\AppData\Local\Temp\ccsn8eRz.s 			page 102


 3898 0f89 06000000 		.4byte	.LBE80-.LBB80
 3899 0f8d 01       		.byte	0x1
 3900 0f8e F2       		.byte	0xf2
 3901 0f8f AF0F0000 		.4byte	0xfaf
 3902 0f93 23       		.uleb128 0x23
 3903 0f94 F70B0000 		.4byte	0xbf7
 3904 0f98 E5030000 		.4byte	.LLST40
 3905 0f9c 23       		.uleb128 0x23
 3906 0f9d EB0B0000 		.4byte	0xbeb
 3907 0fa1 F9030000 		.4byte	.LLST41
 3908 0fa5 23       		.uleb128 0x23
 3909 0fa6 DF0B0000 		.4byte	0xbdf
 3910 0faa 0D040000 		.4byte	.LLST42
 3911 0fae 00       		.byte	0
 3912 0faf 22       		.uleb128 0x22
 3913 0fb0 D20B0000 		.4byte	0xbd2
 3914 0fb4 1C000000 		.4byte	.LBB82
 3915 0fb8 02000000 		.4byte	.LBE82-.LBB82
 3916 0fbc 01       		.byte	0x1
 3917 0fbd F3       		.byte	0xf3
 3918 0fbe DE0F0000 		.4byte	0xfde
 3919 0fc2 23       		.uleb128 0x23
 3920 0fc3 F70B0000 		.4byte	0xbf7
 3921 0fc7 25040000 		.4byte	.LLST43
 3922 0fcb 23       		.uleb128 0x23
 3923 0fcc EB0B0000 		.4byte	0xbeb
 3924 0fd0 39040000 		.4byte	.LLST44
 3925 0fd4 23       		.uleb128 0x23
 3926 0fd5 DF0B0000 		.4byte	0xbdf
 3927 0fd9 4D040000 		.4byte	.LLST45
 3928 0fdd 00       		.byte	0
 3929 0fde 22       		.uleb128 0x22
 3930 0fdf D20B0000 		.4byte	0xbd2
 3931 0fe3 1E000000 		.4byte	.LBB84
 3932 0fe7 04000000 		.4byte	.LBE84-.LBB84
 3933 0feb 01       		.byte	0x1
 3934 0fec F4       		.byte	0xf4
 3935 0fed 0D100000 		.4byte	0x100d
 3936 0ff1 23       		.uleb128 0x23
 3937 0ff2 F70B0000 		.4byte	0xbf7
 3938 0ff6 65040000 		.4byte	.LLST46
 3939 0ffa 23       		.uleb128 0x23
 3940 0ffb EB0B0000 		.4byte	0xbeb
 3941 0fff 79040000 		.4byte	.LLST47
 3942 1003 23       		.uleb128 0x23
 3943 1004 DF0B0000 		.4byte	0xbdf
 3944 1008 8D040000 		.4byte	.LLST48
 3945 100c 00       		.byte	0
 3946 100d 26       		.uleb128 0x26
 3947 100e 16000000 		.4byte	.LVL35
 3948 1012 D21B0000 		.4byte	0x1bd2
 3949 1016 26       		.uleb128 0x26
 3950 1017 26000000 		.4byte	.LVL39
 3951 101b DD1B0000 		.4byte	0x1bdd
 3952 101f 00       		.byte	0
 3953 1020 2A       		.uleb128 0x2a
 3954 1021 70120000 		.4byte	.LASF289
ARM GAS  C:\Users\User\AppData\Local\Temp\ccsn8eRz.s 			page 103


 3955 1025 01       		.byte	0x1
 3956 1026 0A01     		.2byte	0x10a
 3957 1028 000B0000 		.4byte	0xb00
 3958 102c 00000000 		.4byte	.LFB651
 3959 1030 18010000 		.4byte	.LFE651-.LFB651
 3960 1034 01       		.uleb128 0x1
 3961 1035 9C       		.byte	0x9c
 3962 1036 62120000 		.4byte	0x1262
 3963 103a 2B       		.uleb128 0x2b
 3964 103b 9C1A0000 		.4byte	.LASF291
 3965 103f 01       		.byte	0x1
 3966 1040 0D01     		.2byte	0x10d
 3967 1042 E5000000 		.4byte	0xe5
 3968 1046 A5040000 		.4byte	.LLST49
 3969 104a 24       		.uleb128 0x24
 3970 104b 0E000000 		.4byte	.LVL41
 3971 104f E81B0000 		.4byte	0x1be8
 3972 1053 69100000 		.4byte	0x1069
 3973 1057 25       		.uleb128 0x25
 3974 1058 01       		.uleb128 0x1
 3975 1059 50       		.byte	0x50
 3976 105a 02       		.uleb128 0x2
 3977 105b 74       		.byte	0x74
 3978 105c 00       		.sleb128 0
 3979 105d 25       		.uleb128 0x25
 3980 105e 01       		.uleb128 0x1
 3981 105f 51       		.byte	0x51
 3982 1060 01       		.uleb128 0x1
 3983 1061 30       		.byte	0x30
 3984 1062 25       		.uleb128 0x25
 3985 1063 01       		.uleb128 0x1
 3986 1064 52       		.byte	0x52
 3987 1065 02       		.uleb128 0x2
 3988 1066 08       		.byte	0x8
 3989 1067 6F       		.byte	0x6f
 3990 1068 00       		.byte	0
 3991 1069 26       		.uleb128 0x26
 3992 106a 22000000 		.4byte	.LVL42
 3993 106e DD1B0000 		.4byte	0x1bdd
 3994 1072 26       		.uleb128 0x26
 3995 1073 28000000 		.4byte	.LVL43
 3996 1077 F11B0000 		.4byte	0x1bf1
 3997 107b 26       		.uleb128 0x26
 3998 107c 30000000 		.4byte	.LVL44
 3999 1080 FC1B0000 		.4byte	0x1bfc
 4000 1084 26       		.uleb128 0x26
 4001 1085 38000000 		.4byte	.LVL45
 4002 1089 071C0000 		.4byte	0x1c07
 4003 108d 24       		.uleb128 0x24
 4004 108e 40000000 		.4byte	.LVL46
 4005 1092 910D0000 		.4byte	0xd91
 4006 1096 A6100000 		.4byte	0x10a6
 4007 109a 25       		.uleb128 0x25
 4008 109b 01       		.uleb128 0x1
 4009 109c 50       		.byte	0x50
 4010 109d 02       		.uleb128 0x2
 4011 109e 08       		.byte	0x8
ARM GAS  C:\Users\User\AppData\Local\Temp\ccsn8eRz.s 			page 104


 4012 109f 72       		.byte	0x72
 4013 10a0 25       		.uleb128 0x25
 4014 10a1 01       		.uleb128 0x1
 4015 10a2 51       		.byte	0x51
 4016 10a3 01       		.uleb128 0x1
 4017 10a4 30       		.byte	0x30
 4018 10a5 00       		.byte	0
 4019 10a6 24       		.uleb128 0x24
 4020 10a7 4E000000 		.4byte	.LVL47
 4021 10ab 480D0000 		.4byte	0xd48
 4022 10af BA100000 		.4byte	0x10ba
 4023 10b3 25       		.uleb128 0x25
 4024 10b4 01       		.uleb128 0x1
 4025 10b5 51       		.byte	0x51
 4026 10b6 02       		.uleb128 0x2
 4027 10b7 08       		.byte	0x8
 4028 10b8 40       		.byte	0x40
 4029 10b9 00       		.byte	0
 4030 10ba 24       		.uleb128 0x24
 4031 10bb 56000000 		.4byte	.LVL48
 4032 10bf 910D0000 		.4byte	0xd91
 4033 10c3 D2100000 		.4byte	0x10d2
 4034 10c7 25       		.uleb128 0x25
 4035 10c8 01       		.uleb128 0x1
 4036 10c9 50       		.byte	0x50
 4037 10ca 01       		.uleb128 0x1
 4038 10cb 3F       		.byte	0x3f
 4039 10cc 25       		.uleb128 0x25
 4040 10cd 01       		.uleb128 0x1
 4041 10ce 51       		.byte	0x51
 4042 10cf 01       		.uleb128 0x1
 4043 10d0 30       		.byte	0x30
 4044 10d1 00       		.byte	0
 4045 10d2 24       		.uleb128 0x24
 4046 10d3 64000000 		.4byte	.LVL49
 4047 10d7 480D0000 		.4byte	0xd48
 4048 10db EA100000 		.4byte	0x10ea
 4049 10df 25       		.uleb128 0x25
 4050 10e0 01       		.uleb128 0x1
 4051 10e1 50       		.byte	0x50
 4052 10e2 01       		.uleb128 0x1
 4053 10e3 3B       		.byte	0x3b
 4054 10e4 25       		.uleb128 0x25
 4055 10e5 01       		.uleb128 0x1
 4056 10e6 51       		.byte	0x51
 4057 10e7 01       		.uleb128 0x1
 4058 10e8 32       		.byte	0x32
 4059 10e9 00       		.byte	0
 4060 10ea 24       		.uleb128 0x24
 4061 10eb 6E000000 		.4byte	.LVL50
 4062 10ef 040C0000 		.4byte	0xc04
 4063 10f3 0B110000 		.4byte	0x110b
 4064 10f7 25       		.uleb128 0x25
 4065 10f8 01       		.uleb128 0x1
 4066 10f9 50       		.byte	0x50
 4067 10fa 01       		.uleb128 0x1
 4068 10fb 31       		.byte	0x31
ARM GAS  C:\Users\User\AppData\Local\Temp\ccsn8eRz.s 			page 105


 4069 10fc 25       		.uleb128 0x25
 4070 10fd 01       		.uleb128 0x1
 4071 10fe 51       		.byte	0x51
 4072 10ff 05       		.uleb128 0x5
 4073 1100 03       		.byte	0x3
 4074 1101 00000000 		.4byte	.LANCHOR1
 4075 1105 25       		.uleb128 0x25
 4076 1106 01       		.uleb128 0x1
 4077 1107 52       		.byte	0x52
 4078 1108 01       		.uleb128 0x1
 4079 1109 38       		.byte	0x38
 4080 110a 00       		.byte	0
 4081 110b 24       		.uleb128 0x24
 4082 110c 76000000 		.4byte	.LVL51
 4083 1110 480D0000 		.4byte	0xd48
 4084 1114 24110000 		.4byte	0x1124
 4085 1118 25       		.uleb128 0x25
 4086 1119 01       		.uleb128 0x1
 4087 111a 50       		.byte	0x50
 4088 111b 01       		.uleb128 0x1
 4089 111c 37       		.byte	0x37
 4090 111d 25       		.uleb128 0x25
 4091 111e 01       		.uleb128 0x1
 4092 111f 51       		.byte	0x51
 4093 1120 02       		.uleb128 0x2
 4094 1121 09       		.byte	0x9
 4095 1122 D1       		.byte	0xd1
 4096 1123 00       		.byte	0
 4097 1124 24       		.uleb128 0x24
 4098 1125 7E000000 		.4byte	.LVL52
 4099 1129 480D0000 		.4byte	0xd48
 4100 112d 3C110000 		.4byte	0x113c
 4101 1131 25       		.uleb128 0x25
 4102 1132 01       		.uleb128 0x1
 4103 1133 50       		.byte	0x50
 4104 1134 01       		.uleb128 0x1
 4105 1135 38       		.byte	0x38
 4106 1136 25       		.uleb128 0x25
 4107 1137 01       		.uleb128 0x1
 4108 1138 51       		.byte	0x51
 4109 1139 01       		.uleb128 0x1
 4110 113a 32       		.byte	0x32
 4111 113b 00       		.byte	0
 4112 113c 24       		.uleb128 0x24
 4113 113d 86000000 		.4byte	.LVL53
 4114 1141 480D0000 		.4byte	0xd48
 4115 1145 55110000 		.4byte	0x1155
 4116 1149 25       		.uleb128 0x25
 4117 114a 01       		.uleb128 0x1
 4118 114b 50       		.byte	0x50
 4119 114c 01       		.uleb128 0x1
 4120 114d 39       		.byte	0x39
 4121 114e 25       		.uleb128 0x25
 4122 114f 01       		.uleb128 0x1
 4123 1150 51       		.byte	0x51
 4124 1151 02       		.uleb128 0x2
 4125 1152 09       		.byte	0x9
ARM GAS  C:\Users\User\AppData\Local\Temp\ccsn8eRz.s 			page 106


 4126 1153 C2       		.byte	0xc2
 4127 1154 00       		.byte	0
 4128 1155 24       		.uleb128 0x24
 4129 1156 8E000000 		.4byte	.LVL54
 4130 115a 480D0000 		.4byte	0xd48
 4131 115e 6D110000 		.4byte	0x116d
 4132 1162 25       		.uleb128 0x25
 4133 1163 01       		.uleb128 0x1
 4134 1164 50       		.byte	0x50
 4135 1165 01       		.uleb128 0x1
 4136 1166 34       		.byte	0x34
 4137 1167 25       		.uleb128 0x25
 4138 1168 01       		.uleb128 0x1
 4139 1169 51       		.byte	0x51
 4140 116a 01       		.uleb128 0x1
 4141 116b 33       		.byte	0x33
 4142 116c 00       		.byte	0
 4143 116d 24       		.uleb128 0x24
 4144 116e 96000000 		.4byte	.LVL55
 4145 1172 480D0000 		.4byte	0xd48
 4146 1176 85110000 		.4byte	0x1185
 4147 117a 25       		.uleb128 0x25
 4148 117b 01       		.uleb128 0x1
 4149 117c 50       		.byte	0x50
 4150 117d 01       		.uleb128 0x1
 4151 117e 33       		.byte	0x33
 4152 117f 25       		.uleb128 0x25
 4153 1180 01       		.uleb128 0x1
 4154 1181 51       		.byte	0x51
 4155 1182 01       		.uleb128 0x1
 4156 1183 31       		.byte	0x31
 4157 1184 00       		.byte	0
 4158 1185 24       		.uleb128 0x24
 4159 1186 9E000000 		.4byte	.LVL56
 4160 118a 480D0000 		.4byte	0xd48
 4161 118e 9D110000 		.4byte	0x119d
 4162 1192 25       		.uleb128 0x25
 4163 1193 01       		.uleb128 0x1
 4164 1194 50       		.byte	0x50
 4165 1195 01       		.uleb128 0x1
 4166 1196 33       		.byte	0x33
 4167 1197 25       		.uleb128 0x25
 4168 1198 01       		.uleb128 0x1
 4169 1199 51       		.byte	0x51
 4170 119a 01       		.uleb128 0x1
 4171 119b 30       		.byte	0x30
 4172 119c 00       		.byte	0
 4173 119d 24       		.uleb128 0x24
 4174 119e A4000000 		.4byte	.LVL57
 4175 11a2 121C0000 		.4byte	0x1c12
 4176 11a6 B0110000 		.4byte	0x11b0
 4177 11aa 25       		.uleb128 0x25
 4178 11ab 01       		.uleb128 0x1
 4179 11ac 50       		.byte	0x50
 4180 11ad 01       		.uleb128 0x1
 4181 11ae 3A       		.byte	0x3a
 4182 11af 00       		.byte	0
ARM GAS  C:\Users\User\AppData\Local\Temp\ccsn8eRz.s 			page 107


 4183 11b0 24       		.uleb128 0x24
 4184 11b1 B2000000 		.4byte	.LVL60
 4185 11b5 480D0000 		.4byte	0xd48
 4186 11b9 C8110000 		.4byte	0x11c8
 4187 11bd 25       		.uleb128 0x25
 4188 11be 01       		.uleb128 0x1
 4189 11bf 50       		.byte	0x50
 4190 11c0 01       		.uleb128 0x1
 4191 11c1 35       		.byte	0x35
 4192 11c2 25       		.uleb128 0x25
 4193 11c3 01       		.uleb128 0x1
 4194 11c4 51       		.byte	0x51
 4195 11c5 01       		.uleb128 0x1
 4196 11c6 31       		.byte	0x31
 4197 11c7 00       		.byte	0
 4198 11c8 24       		.uleb128 0x24
 4199 11c9 B8000000 		.4byte	.LVL61
 4200 11cd 121C0000 		.4byte	0x1c12
 4201 11d1 DC110000 		.4byte	0x11dc
 4202 11d5 25       		.uleb128 0x25
 4203 11d6 01       		.uleb128 0x1
 4204 11d7 50       		.byte	0x50
 4205 11d8 02       		.uleb128 0x2
 4206 11d9 08       		.byte	0x8
 4207 11da 64       		.byte	0x64
 4208 11db 00       		.byte	0
 4209 11dc 24       		.uleb128 0x24
 4210 11dd C0000000 		.4byte	.LVL62
 4211 11e1 480D0000 		.4byte	0xd48
 4212 11e5 F4110000 		.4byte	0x11f4
 4213 11e9 25       		.uleb128 0x25
 4214 11ea 01       		.uleb128 0x1
 4215 11eb 50       		.byte	0x50
 4216 11ec 01       		.uleb128 0x1
 4217 11ed 35       		.byte	0x35
 4218 11ee 25       		.uleb128 0x25
 4219 11ef 01       		.uleb128 0x1
 4220 11f0 51       		.byte	0x51
 4221 11f1 01       		.uleb128 0x1
 4222 11f2 33       		.byte	0x33
 4223 11f3 00       		.byte	0
 4224 11f4 24       		.uleb128 0x24
 4225 11f5 C6000000 		.4byte	.LVL63
 4226 11f9 121C0000 		.4byte	0x1c12
 4227 11fd 08120000 		.4byte	0x1208
 4228 1201 25       		.uleb128 0x25
 4229 1202 01       		.uleb128 0x1
 4230 1203 50       		.byte	0x50
 4231 1204 02       		.uleb128 0x2
 4232 1205 08       		.byte	0x8
 4233 1206 32       		.byte	0x32
 4234 1207 00       		.byte	0
 4235 1208 24       		.uleb128 0x24
 4236 1209 CE000000 		.4byte	.LVL64
 4237 120d 480D0000 		.4byte	0xd48
 4238 1211 20120000 		.4byte	0x1220
 4239 1215 25       		.uleb128 0x25
ARM GAS  C:\Users\User\AppData\Local\Temp\ccsn8eRz.s 			page 108


 4240 1216 01       		.uleb128 0x1
 4241 1217 50       		.byte	0x50
 4242 1218 01       		.uleb128 0x1
 4243 1219 35       		.byte	0x35
 4244 121a 25       		.uleb128 0x25
 4245 121b 01       		.uleb128 0x1
 4246 121c 51       		.byte	0x51
 4247 121d 01       		.uleb128 0x1
 4248 121e 3F       		.byte	0x3f
 4249 121f 00       		.byte	0
 4250 1220 24       		.uleb128 0x24
 4251 1221 D4000000 		.4byte	.LVL65
 4252 1225 121C0000 		.4byte	0x1c12
 4253 1229 34120000 		.4byte	0x1234
 4254 122d 25       		.uleb128 0x25
 4255 122e 01       		.uleb128 0x1
 4256 122f 50       		.byte	0x50
 4257 1230 02       		.uleb128 0x2
 4258 1231 08       		.byte	0x8
 4259 1232 32       		.byte	0x32
 4260 1233 00       		.byte	0
 4261 1234 24       		.uleb128 0x24
 4262 1235 DC000000 		.4byte	.LVL66
 4263 1239 910D0000 		.4byte	0xd91
 4264 123d 4C120000 		.4byte	0x124c
 4265 1241 25       		.uleb128 0x25
 4266 1242 01       		.uleb128 0x1
 4267 1243 50       		.byte	0x50
 4268 1244 01       		.uleb128 0x1
 4269 1245 3F       		.byte	0x3f
 4270 1246 25       		.uleb128 0x25
 4271 1247 01       		.uleb128 0x1
 4272 1248 51       		.byte	0x51
 4273 1249 01       		.uleb128 0x1
 4274 124a 30       		.byte	0x30
 4275 124b 00       		.byte	0
 4276 124c 27       		.uleb128 0x27
 4277 124d EA000000 		.4byte	.LVL67
 4278 1251 480D0000 		.4byte	0xd48
 4279 1255 25       		.uleb128 0x25
 4280 1256 01       		.uleb128 0x1
 4281 1257 50       		.byte	0x50
 4282 1258 01       		.uleb128 0x1
 4283 1259 32       		.byte	0x32
 4284 125a 25       		.uleb128 0x25
 4285 125b 01       		.uleb128 0x1
 4286 125c 51       		.byte	0x51
 4287 125d 02       		.uleb128 0x2
 4288 125e 08       		.byte	0x8
 4289 125f 40       		.byte	0x40
 4290 1260 00       		.byte	0
 4291 1261 00       		.byte	0
 4292 1262 2C       		.uleb128 0x2c
 4293 1263 91080000 		.4byte	.LASF292
 4294 1267 01       		.byte	0x1
 4295 1268 9901     		.2byte	0x199
 4296 126a 00000000 		.4byte	.LFB652
ARM GAS  C:\Users\User\AppData\Local\Temp\ccsn8eRz.s 			page 109


 4297 126e 58000000 		.4byte	.LFE652-.LFB652
 4298 1272 01       		.uleb128 0x1
 4299 1273 9C       		.byte	0x9c
 4300 1274 95120000 		.4byte	0x1295
 4301 1278 2D       		.uleb128 0x2d
 4302 1279 84010000 		.4byte	.LASF293
 4303 127d 01       		.byte	0x1
 4304 127e 9901     		.2byte	0x199
 4305 1280 C4000000 		.4byte	0xc4
 4306 1284 01       		.uleb128 0x1
 4307 1285 50       		.byte	0x50
 4308 1286 2E       		.uleb128 0x2e
 4309 1287 221A0000 		.4byte	.LASF294
 4310 128b 01       		.byte	0x1
 4311 128c 9C01     		.2byte	0x19c
 4312 128e E5000000 		.4byte	0xe5
 4313 1292 01       		.uleb128 0x1
 4314 1293 52       		.byte	0x52
 4315 1294 00       		.byte	0
 4316 1295 2C       		.uleb128 0x2c
 4317 1296 F2030000 		.4byte	.LASF295
 4318 129a 01       		.byte	0x1
 4319 129b DE01     		.2byte	0x1de
 4320 129d 00000000 		.4byte	.LFB653
 4321 12a1 24040000 		.4byte	.LFE653-.LFB653
 4322 12a5 01       		.uleb128 0x1
 4323 12a6 9C       		.byte	0x9c
 4324 12a7 A7130000 		.4byte	0x13a7
 4325 12ab 2F       		.uleb128 0x2f
 4326 12ac 4F1C0000 		.4byte	.LASF296
 4327 12b0 01       		.byte	0x1
 4328 12b1 DE01     		.2byte	0x1de
 4329 12b3 A7130000 		.4byte	0x13a7
 4330 12b7 F1040000 		.4byte	.LLST50
 4331 12bb 2F       		.uleb128 0x2f
 4332 12bc 7C1A0000 		.4byte	.LASF297
 4333 12c0 01       		.byte	0x1
 4334 12c1 DF01     		.2byte	0x1df
 4335 12c3 300B0000 		.4byte	0xb30
 4336 12c7 27050000 		.4byte	.LLST51
 4337 12cb 30       		.uleb128 0x30
 4338 12cc 7800     		.ascii	"x\000"
 4339 12ce 01       		.byte	0x1
 4340 12cf E201     		.2byte	0x1e2
 4341 12d1 E5000000 		.4byte	0xe5
 4342 12d5 48050000 		.4byte	.LLST52
 4343 12d9 30       		.uleb128 0x30
 4344 12da 7900     		.ascii	"y\000"
 4345 12dc 01       		.byte	0x1
 4346 12dd E401     		.2byte	0x1e4
 4347 12df E5000000 		.4byte	0xe5
 4348 12e3 72050000 		.4byte	.LLST53
 4349 12e7 30       		.uleb128 0x30
 4350 12e8 6B00     		.ascii	"k\000"
 4351 12ea 01       		.byte	0x1
 4352 12eb E601     		.2byte	0x1e6
 4353 12ed E5000000 		.4byte	0xe5
ARM GAS  C:\Users\User\AppData\Local\Temp\ccsn8eRz.s 			page 110


 4354 12f1 BE050000 		.4byte	.LLST54
 4355 12f5 2B       		.uleb128 0x2b
 4356 12f6 B3030000 		.4byte	.LASF298
 4357 12fa 01       		.byte	0x1
 4358 12fb E901     		.2byte	0x1e9
 4359 12fd D5020000 		.4byte	0x2d5
 4360 1301 0A060000 		.4byte	.LLST55
 4361 1305 2B       		.uleb128 0x2b
 4362 1306 22130000 		.4byte	.LASF299
 4363 130a 01       		.byte	0x1
 4364 130b EC01     		.2byte	0x1ec
 4365 130d CF000000 		.4byte	0xcf
 4366 1311 59060000 		.4byte	.LLST56
 4367 1315 2B       		.uleb128 0x2b
 4368 1316 4D030000 		.4byte	.LASF300
 4369 131a 01       		.byte	0x1
 4370 131b EF01     		.2byte	0x1ef
 4371 131d E1020000 		.4byte	0x2e1
 4372 1321 9A060000 		.4byte	.LLST57
 4373 1325 26       		.uleb128 0x26
 4374 1326 24000000 		.4byte	.LVL82
 4375 132a DD1B0000 		.4byte	0x1bdd
 4376 132e 24       		.uleb128 0x24
 4377 132f 44000000 		.4byte	.LVL84
 4378 1333 E81B0000 		.4byte	0x1be8
 4379 1337 4D130000 		.4byte	0x134d
 4380 133b 25       		.uleb128 0x25
 4381 133c 01       		.uleb128 0x1
 4382 133d 50       		.byte	0x50
 4383 133e 02       		.uleb128 0x2
 4384 133f 7B       		.byte	0x7b
 4385 1340 00       		.sleb128 0
 4386 1341 25       		.uleb128 0x25
 4387 1342 01       		.uleb128 0x1
 4388 1343 51       		.byte	0x51
 4389 1344 01       		.uleb128 0x1
 4390 1345 30       		.byte	0x30
 4391 1346 25       		.uleb128 0x25
 4392 1347 01       		.uleb128 0x1
 4393 1348 52       		.byte	0x52
 4394 1349 02       		.uleb128 0x2
 4395 134a 08       		.byte	0x8
 4396 134b 6F       		.byte	0x6f
 4397 134c 00       		.byte	0
 4398 134d 24       		.uleb128 0x24
 4399 134e EC030000 		.4byte	.LVL109
 4400 1352 040C0000 		.4byte	0xc04
 4401 1356 7C130000 		.4byte	0x137c
 4402 135a 25       		.uleb128 0x25
 4403 135b 01       		.uleb128 0x1
 4404 135c 50       		.byte	0x50
 4405 135d 01       		.uleb128 0x1
 4406 135e 3A       		.byte	0x3a
 4407 135f 25       		.uleb128 0x25
 4408 1360 01       		.uleb128 0x1
 4409 1361 51       		.byte	0x51
 4410 1362 12       		.uleb128 0x12
ARM GAS  C:\Users\User\AppData\Local\Temp\ccsn8eRz.s 			page 111


 4411 1363 74       		.byte	0x74
 4412 1364 00       		.sleb128 0
 4413 1365 33       		.byte	0x33
 4414 1366 24       		.byte	0x24
 4415 1367 74       		.byte	0x74
 4416 1368 00       		.sleb128 0
 4417 1369 1C       		.byte	0x1c
 4418 136a 34       		.byte	0x34
 4419 136b 24       		.byte	0x24
 4420 136c 74       		.byte	0x74
 4421 136d 00       		.sleb128 0
 4422 136e 1C       		.byte	0x1c
 4423 136f 03       		.byte	0x3
 4424 1370 00000000 		.4byte	bulkDriverPacket
 4425 1374 22       		.byte	0x22
 4426 1375 25       		.uleb128 0x25
 4427 1376 01       		.uleb128 0x1
 4428 1377 52       		.byte	0x52
 4429 1378 02       		.uleb128 0x2
 4430 1379 08       		.byte	0x8
 4431 137a 6F       		.byte	0x6f
 4432 137b 00       		.byte	0
 4433 137c 24       		.uleb128 0x24
 4434 137d F4030000 		.4byte	.LVL110
 4435 1381 480D0000 		.4byte	0xd48
 4436 1385 94130000 		.4byte	0x1394
 4437 1389 25       		.uleb128 0x25
 4438 138a 01       		.uleb128 0x1
 4439 138b 50       		.byte	0x50
 4440 138c 01       		.uleb128 0x1
 4441 138d 32       		.byte	0x32
 4442 138e 25       		.uleb128 0x25
 4443 138f 01       		.uleb128 0x1
 4444 1390 51       		.byte	0x51
 4445 1391 01       		.uleb128 0x1
 4446 1392 37       		.byte	0x37
 4447 1393 00       		.byte	0
 4448 1394 26       		.uleb128 0x26
 4449 1395 06040000 		.4byte	.LVL114
 4450 1399 F11B0000 		.4byte	0x1bf1
 4451 139d 26       		.uleb128 0x26
 4452 139e 0E040000 		.4byte	.LVL115
 4453 13a2 071C0000 		.4byte	0x1c07
 4454 13a6 00       		.byte	0
 4455 13a7 11       		.uleb128 0x11
 4456 13a8 04       		.byte	0x4
 4457 13a9 C40A0000 		.4byte	0xac4
 4458 13ad 2C       		.uleb128 0x2c
 4459 13ae 8D0A0000 		.4byte	.LASF301
 4460 13b2 01       		.byte	0x1
 4461 13b3 B902     		.2byte	0x2b9
 4462 13b5 00000000 		.4byte	.LFB654
 4463 13b9 28020000 		.4byte	.LFE654-.LFB654
 4464 13bd 01       		.uleb128 0x1
 4465 13be 9C       		.byte	0x9c
 4466 13bf 14150000 		.4byte	0x1514
 4467 13c3 2F       		.uleb128 0x2f
ARM GAS  C:\Users\User\AppData\Local\Temp\ccsn8eRz.s 			page 112


 4468 13c4 6A170000 		.4byte	.LASF302
 4469 13c8 01       		.byte	0x1
 4470 13c9 B902     		.2byte	0x2b9
 4471 13cb A7130000 		.4byte	0x13a7
 4472 13cf AD060000 		.4byte	.LLST58
 4473 13d3 2F       		.uleb128 0x2f
 4474 13d4 3C180000 		.4byte	.LASF303
 4475 13d8 01       		.byte	0x1
 4476 13d9 BA02     		.2byte	0x2ba
 4477 13db A7130000 		.4byte	0x13a7
 4478 13df E1060000 		.4byte	.LLST59
 4479 13e3 30       		.uleb128 0x30
 4480 13e4 7800     		.ascii	"x\000"
 4481 13e6 01       		.byte	0x1
 4482 13e7 BD02     		.2byte	0x2bd
 4483 13e9 E5000000 		.4byte	0xe5
 4484 13ed 15070000 		.4byte	.LLST60
 4485 13f1 30       		.uleb128 0x30
 4486 13f2 7900     		.ascii	"y\000"
 4487 13f4 01       		.byte	0x1
 4488 13f5 BF02     		.2byte	0x2bf
 4489 13f7 E5000000 		.4byte	0xe5
 4490 13fb 3F070000 		.4byte	.LLST61
 4491 13ff 30       		.uleb128 0x30
 4492 1400 6B00     		.ascii	"k\000"
 4493 1402 01       		.byte	0x1
 4494 1403 C102     		.2byte	0x2c1
 4495 1405 E5000000 		.4byte	0xe5
 4496 1409 8B070000 		.4byte	.LLST62
 4497 140d 2B       		.uleb128 0x2b
 4498 140e 50150000 		.4byte	.LASF304
 4499 1412 01       		.byte	0x1
 4500 1413 C402     		.2byte	0x2c4
 4501 1415 CF000000 		.4byte	0xcf
 4502 1419 B6070000 		.4byte	.LLST63
 4503 141d 2B       		.uleb128 0x2b
 4504 141e 73070000 		.4byte	.LASF305
 4505 1422 01       		.byte	0x1
 4506 1423 C602     		.2byte	0x2c6
 4507 1425 CF000000 		.4byte	0xcf
 4508 1429 D5070000 		.4byte	.LLST64
 4509 142d 2B       		.uleb128 0x2b
 4510 142e B3030000 		.4byte	.LASF298
 4511 1432 01       		.byte	0x1
 4512 1433 C902     		.2byte	0x2c9
 4513 1435 D5020000 		.4byte	0x2d5
 4514 1439 E8070000 		.4byte	.LLST65
 4515 143d 26       		.uleb128 0x26
 4516 143e 0C000000 		.4byte	.LVL119
 4517 1442 DD1B0000 		.4byte	0x1bdd
 4518 1446 24       		.uleb128 0x24
 4519 1447 14000000 		.4byte	.LVL120
 4520 144b 480D0000 		.4byte	0xd48
 4521 144f 5F140000 		.4byte	0x145f
 4522 1453 25       		.uleb128 0x25
 4523 1454 01       		.uleb128 0x1
 4524 1455 50       		.byte	0x50
ARM GAS  C:\Users\User\AppData\Local\Temp\ccsn8eRz.s 			page 113


 4525 1456 01       		.uleb128 0x1
 4526 1457 39       		.byte	0x39
 4527 1458 25       		.uleb128 0x25
 4528 1459 01       		.uleb128 0x1
 4529 145a 51       		.byte	0x51
 4530 145b 02       		.uleb128 0x2
 4531 145c 09       		.byte	0x9
 4532 145d D2       		.byte	0xd2
 4533 145e 00       		.byte	0
 4534 145f 24       		.uleb128 0x24
 4535 1460 32000000 		.4byte	.LVL122
 4536 1464 E81B0000 		.4byte	0x1be8
 4537 1468 7E140000 		.4byte	0x147e
 4538 146c 25       		.uleb128 0x25
 4539 146d 01       		.uleb128 0x1
 4540 146e 50       		.byte	0x50
 4541 146f 02       		.uleb128 0x2
 4542 1470 79       		.byte	0x79
 4543 1471 00       		.sleb128 0
 4544 1472 25       		.uleb128 0x25
 4545 1473 01       		.uleb128 0x1
 4546 1474 51       		.byte	0x51
 4547 1475 01       		.uleb128 0x1
 4548 1476 30       		.byte	0x30
 4549 1477 25       		.uleb128 0x25
 4550 1478 01       		.uleb128 0x1
 4551 1479 52       		.byte	0x52
 4552 147a 02       		.uleb128 0x2
 4553 147b 08       		.byte	0x8
 4554 147c 6F       		.byte	0x6f
 4555 147d 00       		.byte	0
 4556 147e 24       		.uleb128 0x24
 4557 147f C6010000 		.4byte	.LVL144
 4558 1483 040C0000 		.4byte	0xc04
 4559 1487 9D140000 		.4byte	0x149d
 4560 148b 25       		.uleb128 0x25
 4561 148c 01       		.uleb128 0x1
 4562 148d 50       		.byte	0x50
 4563 148e 01       		.uleb128 0x1
 4564 148f 3A       		.byte	0x3a
 4565 1490 25       		.uleb128 0x25
 4566 1491 01       		.uleb128 0x1
 4567 1492 51       		.byte	0x51
 4568 1493 02       		.uleb128 0x2
 4569 1494 75       		.byte	0x75
 4570 1495 00       		.sleb128 0
 4571 1496 25       		.uleb128 0x25
 4572 1497 01       		.uleb128 0x1
 4573 1498 52       		.byte	0x52
 4574 1499 02       		.uleb128 0x2
 4575 149a 08       		.byte	0x8
 4576 149b 6F       		.byte	0x6f
 4577 149c 00       		.byte	0
 4578 149d 24       		.uleb128 0x24
 4579 149e CE010000 		.4byte	.LVL145
 4580 14a2 480D0000 		.4byte	0xd48
 4581 14a6 B5140000 		.4byte	0x14b5
ARM GAS  C:\Users\User\AppData\Local\Temp\ccsn8eRz.s 			page 114


 4582 14aa 25       		.uleb128 0x25
 4583 14ab 01       		.uleb128 0x1
 4584 14ac 50       		.byte	0x50
 4585 14ad 01       		.uleb128 0x1
 4586 14ae 32       		.byte	0x32
 4587 14af 25       		.uleb128 0x25
 4588 14b0 01       		.uleb128 0x1
 4589 14b1 51       		.byte	0x51
 4590 14b2 01       		.uleb128 0x1
 4591 14b3 37       		.byte	0x37
 4592 14b4 00       		.byte	0
 4593 14b5 24       		.uleb128 0x24
 4594 14b6 E8010000 		.4byte	.LVL148
 4595 14ba 040C0000 		.4byte	0xc04
 4596 14be D4140000 		.4byte	0x14d4
 4597 14c2 25       		.uleb128 0x25
 4598 14c3 01       		.uleb128 0x1
 4599 14c4 50       		.byte	0x50
 4600 14c5 01       		.uleb128 0x1
 4601 14c6 3A       		.byte	0x3a
 4602 14c7 25       		.uleb128 0x25
 4603 14c8 01       		.uleb128 0x1
 4604 14c9 51       		.byte	0x51
 4605 14ca 02       		.uleb128 0x2
 4606 14cb 75       		.byte	0x75
 4607 14cc 00       		.sleb128 0
 4608 14cd 25       		.uleb128 0x25
 4609 14ce 01       		.uleb128 0x1
 4610 14cf 52       		.byte	0x52
 4611 14d0 02       		.uleb128 0x2
 4612 14d1 08       		.byte	0x8
 4613 14d2 6F       		.byte	0x6f
 4614 14d3 00       		.byte	0
 4615 14d4 24       		.uleb128 0x24
 4616 14d5 F0010000 		.4byte	.LVL149
 4617 14d9 480D0000 		.4byte	0xd48
 4618 14dd EC140000 		.4byte	0x14ec
 4619 14e1 25       		.uleb128 0x25
 4620 14e2 01       		.uleb128 0x1
 4621 14e3 50       		.byte	0x50
 4622 14e4 01       		.uleb128 0x1
 4623 14e5 32       		.byte	0x32
 4624 14e6 25       		.uleb128 0x25
 4625 14e7 01       		.uleb128 0x1
 4626 14e8 51       		.byte	0x51
 4627 14e9 01       		.uleb128 0x1
 4628 14ea 37       		.byte	0x37
 4629 14eb 00       		.byte	0
 4630 14ec 26       		.uleb128 0x26
 4631 14ed 02020000 		.4byte	.LVL153
 4632 14f1 F11B0000 		.4byte	0x1bf1
 4633 14f5 26       		.uleb128 0x26
 4634 14f6 0A020000 		.4byte	.LVL154
 4635 14fa 071C0000 		.4byte	0x1c07
 4636 14fe 27       		.uleb128 0x27
 4637 14ff 12020000 		.4byte	.LVL155
 4638 1503 480D0000 		.4byte	0xd48
ARM GAS  C:\Users\User\AppData\Local\Temp\ccsn8eRz.s 			page 115


 4639 1507 25       		.uleb128 0x25
 4640 1508 01       		.uleb128 0x1
 4641 1509 50       		.byte	0x50
 4642 150a 01       		.uleb128 0x1
 4643 150b 39       		.byte	0x39
 4644 150c 25       		.uleb128 0x25
 4645 150d 01       		.uleb128 0x1
 4646 150e 51       		.byte	0x51
 4647 150f 02       		.uleb128 0x2
 4648 1510 09       		.byte	0x9
 4649 1511 C2       		.byte	0xc2
 4650 1512 00       		.byte	0
 4651 1513 00       		.byte	0
 4652 1514 2C       		.uleb128 0x2c
 4653 1515 90150000 		.4byte	.LASF306
 4654 1519 01       		.byte	0x1
 4655 151a 5303     		.2byte	0x353
 4656 151c 00000000 		.4byte	.LFB655
 4657 1520 5C000000 		.4byte	.LFE655-.LFB655
 4658 1524 01       		.uleb128 0x1
 4659 1525 9C       		.byte	0x9c
 4660 1526 6E150000 		.4byte	0x156e
 4661 152a 2B       		.uleb128 0x2b
 4662 152b 16100000 		.4byte	.LASF307
 4663 152f 01       		.byte	0x1
 4664 1530 5603     		.2byte	0x356
 4665 1532 E5000000 		.4byte	0xe5
 4666 1536 72080000 		.4byte	.LLST66
 4667 153a 24       		.uleb128 0x24
 4668 153b 3A000000 		.4byte	.LVL162
 4669 153f 040C0000 		.4byte	0xc04
 4670 1543 59150000 		.4byte	0x1559
 4671 1547 25       		.uleb128 0x25
 4672 1548 01       		.uleb128 0x1
 4673 1549 50       		.byte	0x50
 4674 154a 01       		.uleb128 0x1
 4675 154b 3A       		.byte	0x3a
 4676 154c 25       		.uleb128 0x25
 4677 154d 01       		.uleb128 0x1
 4678 154e 51       		.byte	0x51
 4679 154f 02       		.uleb128 0x2
 4680 1550 75       		.byte	0x75
 4681 1551 00       		.sleb128 0
 4682 1552 25       		.uleb128 0x25
 4683 1553 01       		.uleb128 0x1
 4684 1554 52       		.byte	0x52
 4685 1555 02       		.uleb128 0x2
 4686 1556 08       		.byte	0x8
 4687 1557 6F       		.byte	0x6f
 4688 1558 00       		.byte	0
 4689 1559 27       		.uleb128 0x27
 4690 155a 42000000 		.4byte	.LVL163
 4691 155e 480D0000 		.4byte	0xd48
 4692 1562 25       		.uleb128 0x25
 4693 1563 01       		.uleb128 0x1
 4694 1564 50       		.byte	0x50
 4695 1565 01       		.uleb128 0x1
ARM GAS  C:\Users\User\AppData\Local\Temp\ccsn8eRz.s 			page 116


 4696 1566 32       		.byte	0x32
 4697 1567 25       		.uleb128 0x25
 4698 1568 01       		.uleb128 0x1
 4699 1569 51       		.byte	0x51
 4700 156a 01       		.uleb128 0x1
 4701 156b 37       		.byte	0x37
 4702 156c 00       		.byte	0
 4703 156d 00       		.byte	0
 4704 156e 2C       		.uleb128 0x2c
 4705 156f C60C0000 		.4byte	.LASF308
 4706 1573 01       		.byte	0x1
 4707 1574 8203     		.2byte	0x382
 4708 1576 00000000 		.4byte	.LFB656
 4709 157a 34000000 		.4byte	.LFE656-.LFB656
 4710 157e 01       		.uleb128 0x1
 4711 157f 9C       		.byte	0x9c
 4712 1580 E3150000 		.4byte	0x15e3
 4713 1584 2B       		.uleb128 0x2b
 4714 1585 16100000 		.4byte	.LASF307
 4715 1589 01       		.byte	0x1
 4716 158a 8503     		.2byte	0x385
 4717 158c CF000000 		.4byte	0xcf
 4718 1590 B2080000 		.4byte	.LLST67
 4719 1594 24       		.uleb128 0x24
 4720 1595 1C000000 		.4byte	.LVL171
 4721 1599 480D0000 		.4byte	0xd48
 4722 159d AC150000 		.4byte	0x15ac
 4723 15a1 25       		.uleb128 0x25
 4724 15a2 01       		.uleb128 0x1
 4725 15a3 50       		.byte	0x50
 4726 15a4 01       		.uleb128 0x1
 4727 15a5 34       		.byte	0x34
 4728 15a6 25       		.uleb128 0x25
 4729 15a7 01       		.uleb128 0x1
 4730 15a8 51       		.byte	0x51
 4731 15a9 01       		.uleb128 0x1
 4732 15aa 30       		.byte	0x30
 4733 15ab 00       		.byte	0
 4734 15ac 24       		.uleb128 0x24
 4735 15ad 26000000 		.4byte	.LVL172
 4736 15b1 040C0000 		.4byte	0xc04
 4737 15b5 CE150000 		.4byte	0x15ce
 4738 15b9 25       		.uleb128 0x25
 4739 15ba 01       		.uleb128 0x1
 4740 15bb 50       		.byte	0x50
 4741 15bc 01       		.uleb128 0x1
 4742 15bd 3A       		.byte	0x3a
 4743 15be 25       		.uleb128 0x25
 4744 15bf 01       		.uleb128 0x1
 4745 15c0 51       		.byte	0x51
 4746 15c1 05       		.uleb128 0x5
 4747 15c2 03       		.byte	0x3
 4748 15c3 00000000 		.4byte	.LANCHOR0
 4749 15c7 25       		.uleb128 0x25
 4750 15c8 01       		.uleb128 0x1
 4751 15c9 52       		.byte	0x52
 4752 15ca 02       		.uleb128 0x2
ARM GAS  C:\Users\User\AppData\Local\Temp\ccsn8eRz.s 			page 117


 4753 15cb 08       		.byte	0x8
 4754 15cc 6F       		.byte	0x6f
 4755 15cd 00       		.byte	0
 4756 15ce 27       		.uleb128 0x27
 4757 15cf 2E000000 		.4byte	.LVL173
 4758 15d3 480D0000 		.4byte	0xd48
 4759 15d7 25       		.uleb128 0x25
 4760 15d8 01       		.uleb128 0x1
 4761 15d9 50       		.byte	0x50
 4762 15da 01       		.uleb128 0x1
 4763 15db 32       		.byte	0x32
 4764 15dc 25       		.uleb128 0x25
 4765 15dd 01       		.uleb128 0x1
 4766 15de 51       		.byte	0x51
 4767 15df 01       		.uleb128 0x1
 4768 15e0 37       		.byte	0x37
 4769 15e1 00       		.byte	0
 4770 15e2 00       		.byte	0
 4771 15e3 2A       		.uleb128 0x2a
 4772 15e4 E6190000 		.4byte	.LASF309
 4773 15e8 01       		.byte	0x1
 4774 15e9 AB03     		.2byte	0x3ab
 4775 15eb 000B0000 		.4byte	0xb00
 4776 15ef 00000000 		.4byte	.LFB657
 4777 15f3 44000000 		.4byte	.LFE657-.LFB657
 4778 15f7 01       		.uleb128 0x1
 4779 15f8 9C       		.byte	0x9c
 4780 15f9 7C170000 		.4byte	0x177c
 4781 15fd 31       		.uleb128 0x31
 4782 15fe D20B0000 		.4byte	0xbd2
 4783 1602 02000000 		.4byte	.LBB86
 4784 1606 06000000 		.4byte	.LBE86-.LBB86
 4785 160a 01       		.byte	0x1
 4786 160b AF03     		.2byte	0x3af
 4787 160d 2D160000 		.4byte	0x162d
 4788 1611 23       		.uleb128 0x23
 4789 1612 F70B0000 		.4byte	0xbf7
 4790 1616 DC080000 		.4byte	.LLST68
 4791 161a 23       		.uleb128 0x23
 4792 161b EB0B0000 		.4byte	0xbeb
 4793 161f F0080000 		.4byte	.LLST69
 4794 1623 23       		.uleb128 0x23
 4795 1624 DF0B0000 		.4byte	0xbdf
 4796 1628 04090000 		.4byte	.LLST70
 4797 162c 00       		.byte	0
 4798 162d 31       		.uleb128 0x31
 4799 162e D20B0000 		.4byte	0xbd2
 4800 1632 12000000 		.4byte	.LBB88
 4801 1636 06000000 		.4byte	.LBE88-.LBB88
 4802 163a 01       		.byte	0x1
 4803 163b B503     		.2byte	0x3b5
 4804 163d 5D160000 		.4byte	0x165d
 4805 1641 23       		.uleb128 0x23
 4806 1642 F70B0000 		.4byte	0xbf7
 4807 1646 1C090000 		.4byte	.LLST71
 4808 164a 23       		.uleb128 0x23
 4809 164b EB0B0000 		.4byte	0xbeb
ARM GAS  C:\Users\User\AppData\Local\Temp\ccsn8eRz.s 			page 118


 4810 164f 30090000 		.4byte	.LLST72
 4811 1653 23       		.uleb128 0x23
 4812 1654 DF0B0000 		.4byte	0xbdf
 4813 1658 44090000 		.4byte	.LLST73
 4814 165c 00       		.byte	0
 4815 165d 31       		.uleb128 0x31
 4816 165e D20B0000 		.4byte	0xbd2
 4817 1662 18000000 		.4byte	.LBB90
 4818 1666 04000000 		.4byte	.LBE90-.LBB90
 4819 166a 01       		.byte	0x1
 4820 166b B603     		.2byte	0x3b6
 4821 166d 8D160000 		.4byte	0x168d
 4822 1671 23       		.uleb128 0x23
 4823 1672 F70B0000 		.4byte	0xbf7
 4824 1676 5C090000 		.4byte	.LLST74
 4825 167a 23       		.uleb128 0x23
 4826 167b EB0B0000 		.4byte	0xbeb
 4827 167f 70090000 		.4byte	.LLST75
 4828 1683 23       		.uleb128 0x23
 4829 1684 DF0B0000 		.4byte	0xbdf
 4830 1688 84090000 		.4byte	.LLST76
 4831 168c 00       		.byte	0
 4832 168d 31       		.uleb128 0x31
 4833 168e D20B0000 		.4byte	0xbd2
 4834 1692 1C000000 		.4byte	.LBB92
 4835 1696 04000000 		.4byte	.LBE92-.LBB92
 4836 169a 01       		.byte	0x1
 4837 169b B903     		.2byte	0x3b9
 4838 169d BD160000 		.4byte	0x16bd
 4839 16a1 23       		.uleb128 0x23
 4840 16a2 F70B0000 		.4byte	0xbf7
 4841 16a6 9C090000 		.4byte	.LLST77
 4842 16aa 23       		.uleb128 0x23
 4843 16ab EB0B0000 		.4byte	0xbeb
 4844 16af B0090000 		.4byte	.LLST78
 4845 16b3 23       		.uleb128 0x23
 4846 16b4 DF0B0000 		.4byte	0xbdf
 4847 16b8 C4090000 		.4byte	.LLST79
 4848 16bc 00       		.byte	0
 4849 16bd 31       		.uleb128 0x31
 4850 16be D20B0000 		.4byte	0xbd2
 4851 16c2 26000000 		.4byte	.LBB94
 4852 16c6 02000000 		.4byte	.LBE94-.LBB94
 4853 16ca 01       		.byte	0x1
 4854 16cb BB03     		.2byte	0x3bb
 4855 16cd ED160000 		.4byte	0x16ed
 4856 16d1 23       		.uleb128 0x23
 4857 16d2 F70B0000 		.4byte	0xbf7
 4858 16d6 DC090000 		.4byte	.LLST80
 4859 16da 23       		.uleb128 0x23
 4860 16db EB0B0000 		.4byte	0xbeb
 4861 16df F0090000 		.4byte	.LLST81
 4862 16e3 23       		.uleb128 0x23
 4863 16e4 DF0B0000 		.4byte	0xbdf
 4864 16e8 040A0000 		.4byte	.LLST82
 4865 16ec 00       		.byte	0
 4866 16ed 31       		.uleb128 0x31
ARM GAS  C:\Users\User\AppData\Local\Temp\ccsn8eRz.s 			page 119


 4867 16ee D20B0000 		.4byte	0xbd2
 4868 16f2 2E000000 		.4byte	.LBB96
 4869 16f6 02000000 		.4byte	.LBE96-.LBB96
 4870 16fa 01       		.byte	0x1
 4871 16fb BD03     		.2byte	0x3bd
 4872 16fd 1D170000 		.4byte	0x171d
 4873 1701 23       		.uleb128 0x23
 4874 1702 F70B0000 		.4byte	0xbf7
 4875 1706 1C0A0000 		.4byte	.LLST83
 4876 170a 23       		.uleb128 0x23
 4877 170b EB0B0000 		.4byte	0xbeb
 4878 170f 300A0000 		.4byte	.LLST84
 4879 1713 23       		.uleb128 0x23
 4880 1714 DF0B0000 		.4byte	0xbdf
 4881 1718 440A0000 		.4byte	.LLST85
 4882 171c 00       		.byte	0
 4883 171d 24       		.uleb128 0x24
 4884 171e 0E000000 		.4byte	.LVL176
 4885 1722 121C0000 		.4byte	0x1c12
 4886 1726 30170000 		.4byte	0x1730
 4887 172a 25       		.uleb128 0x25
 4888 172b 01       		.uleb128 0x1
 4889 172c 50       		.byte	0x50
 4890 172d 01       		.uleb128 0x1
 4891 172e 44       		.byte	0x44
 4892 172f 00       		.byte	0
 4893 1730 26       		.uleb128 0x26
 4894 1731 12000000 		.4byte	.LVL177
 4895 1735 1E1C0000 		.4byte	0x1c1e
 4896 1739 24       		.uleb128 0x24
 4897 173a 26000000 		.4byte	.LVL181
 4898 173e 121C0000 		.4byte	0x1c12
 4899 1742 4C170000 		.4byte	0x174c
 4900 1746 25       		.uleb128 0x25
 4901 1747 01       		.uleb128 0x1
 4902 1748 50       		.byte	0x50
 4903 1749 01       		.uleb128 0x1
 4904 174a 3A       		.byte	0x3a
 4905 174b 00       		.byte	0
 4906 174c 24       		.uleb128 0x24
 4907 174d 2E000000 		.4byte	.LVL183
 4908 1751 121C0000 		.4byte	0x1c12
 4909 1755 5F170000 		.4byte	0x175f
 4910 1759 25       		.uleb128 0x25
 4911 175a 01       		.uleb128 0x1
 4912 175b 50       		.byte	0x50
 4913 175c 01       		.uleb128 0x1
 4914 175d 3A       		.byte	0x3a
 4915 175e 00       		.byte	0
 4916 175f 24       		.uleb128 0x24
 4917 1760 36000000 		.4byte	.LVL185
 4918 1764 121C0000 		.4byte	0x1c12
 4919 1768 72170000 		.4byte	0x1772
 4920 176c 25       		.uleb128 0x25
 4921 176d 01       		.uleb128 0x1
 4922 176e 50       		.byte	0x50
 4923 176f 01       		.uleb128 0x1
ARM GAS  C:\Users\User\AppData\Local\Temp\ccsn8eRz.s 			page 120


 4924 1770 3A       		.byte	0x3a
 4925 1771 00       		.byte	0
 4926 1772 26       		.uleb128 0x26
 4927 1773 3A000000 		.4byte	.LVL186
 4928 1777 20100000 		.4byte	0x1020
 4929 177b 00       		.byte	0
 4930 177c 2A       		.uleb128 0x2a
 4931 177d 64090000 		.4byte	.LASF310
 4932 1781 01       		.byte	0x1
 4933 1782 D403     		.2byte	0x3d4
 4934 1784 000B0000 		.4byte	0xb00
 4935 1788 00000000 		.4byte	.LFB658
 4936 178c A8000000 		.4byte	.LFE658-.LFB658
 4937 1790 01       		.uleb128 0x1
 4938 1791 9C       		.byte	0x9c
 4939 1792 631A0000 		.4byte	0x1a63
 4940 1796 31       		.uleb128 0x31
 4941 1797 D20B0000 		.4byte	0xbd2
 4942 179b 10000000 		.4byte	.LBB98
 4943 179f 06000000 		.4byte	.LBE98-.LBB98
 4944 17a3 01       		.byte	0x1
 4945 17a4 DD03     		.2byte	0x3dd
 4946 17a6 C6170000 		.4byte	0x17c6
 4947 17aa 23       		.uleb128 0x23
 4948 17ab F70B0000 		.4byte	0xbf7
 4949 17af 5C0A0000 		.4byte	.LLST86
 4950 17b3 23       		.uleb128 0x23
 4951 17b4 EB0B0000 		.4byte	0xbeb
 4952 17b8 700A0000 		.4byte	.LLST87
 4953 17bc 23       		.uleb128 0x23
 4954 17bd DF0B0000 		.4byte	0xbdf
 4955 17c1 840A0000 		.4byte	.LLST88
 4956 17c5 00       		.byte	0
 4957 17c6 31       		.uleb128 0x31
 4958 17c7 D20B0000 		.4byte	0xbd2
 4959 17cb 1C000000 		.4byte	.LBB100
 4960 17cf 02000000 		.4byte	.LBE100-.LBB100
 4961 17d3 01       		.byte	0x1
 4962 17d4 DF03     		.2byte	0x3df
 4963 17d6 F6170000 		.4byte	0x17f6
 4964 17da 23       		.uleb128 0x23
 4965 17db F70B0000 		.4byte	0xbf7
 4966 17df 9C0A0000 		.4byte	.LLST89
 4967 17e3 23       		.uleb128 0x23
 4968 17e4 EB0B0000 		.4byte	0xbeb
 4969 17e8 B00A0000 		.4byte	.LLST90
 4970 17ec 23       		.uleb128 0x23
 4971 17ed DF0B0000 		.4byte	0xbdf
 4972 17f1 C40A0000 		.4byte	.LLST91
 4973 17f5 00       		.byte	0
 4974 17f6 31       		.uleb128 0x31
 4975 17f7 D20B0000 		.4byte	0xbd2
 4976 17fb 74000000 		.4byte	.LBB102
 4977 17ff 04000000 		.4byte	.LBE102-.LBB102
 4978 1803 01       		.byte	0x1
 4979 1804 0504     		.2byte	0x405
 4980 1806 26180000 		.4byte	0x1826
ARM GAS  C:\Users\User\AppData\Local\Temp\ccsn8eRz.s 			page 121


 4981 180a 23       		.uleb128 0x23
 4982 180b F70B0000 		.4byte	0xbf7
 4983 180f DC0A0000 		.4byte	.LLST92
 4984 1813 23       		.uleb128 0x23
 4985 1814 EB0B0000 		.4byte	0xbeb
 4986 1818 F00A0000 		.4byte	.LLST93
 4987 181c 23       		.uleb128 0x23
 4988 181d DF0B0000 		.4byte	0xbdf
 4989 1821 040B0000 		.4byte	.LLST94
 4990 1825 00       		.byte	0
 4991 1826 31       		.uleb128 0x31
 4992 1827 D20B0000 		.4byte	0xbd2
 4993 182b 78000000 		.4byte	.LBB104
 4994 182f 02000000 		.4byte	.LBE104-.LBB104
 4995 1833 01       		.byte	0x1
 4996 1834 0804     		.2byte	0x408
 4997 1836 56180000 		.4byte	0x1856
 4998 183a 23       		.uleb128 0x23
 4999 183b F70B0000 		.4byte	0xbf7
 5000 183f 1C0B0000 		.4byte	.LLST95
 5001 1843 23       		.uleb128 0x23
 5002 1844 EB0B0000 		.4byte	0xbeb
 5003 1848 300B0000 		.4byte	.LLST96
 5004 184c 23       		.uleb128 0x23
 5005 184d DF0B0000 		.4byte	0xbdf
 5006 1851 440B0000 		.4byte	.LLST97
 5007 1855 00       		.byte	0
 5008 1856 31       		.uleb128 0x31
 5009 1857 D20B0000 		.4byte	0xbd2
 5010 185b 80000000 		.4byte	.LBB106
 5011 185f 06000000 		.4byte	.LBE106-.LBB106
 5012 1863 01       		.byte	0x1
 5013 1864 0A04     		.2byte	0x40a
 5014 1866 86180000 		.4byte	0x1886
 5015 186a 23       		.uleb128 0x23
 5016 186b F70B0000 		.4byte	0xbf7
 5017 186f 5C0B0000 		.4byte	.LLST98
 5018 1873 23       		.uleb128 0x23
 5019 1874 EB0B0000 		.4byte	0xbeb
 5020 1878 700B0000 		.4byte	.LLST99
 5021 187c 23       		.uleb128 0x23
 5022 187d DF0B0000 		.4byte	0xbdf
 5023 1881 840B0000 		.4byte	.LLST100
 5024 1885 00       		.byte	0
 5025 1886 31       		.uleb128 0x31
 5026 1887 D20B0000 		.4byte	0xbd2
 5027 188b 86000000 		.4byte	.LBB108
 5028 188f 04000000 		.4byte	.LBE108-.LBB108
 5029 1893 01       		.byte	0x1
 5030 1894 0B04     		.2byte	0x40b
 5031 1896 B6180000 		.4byte	0x18b6
 5032 189a 23       		.uleb128 0x23
 5033 189b F70B0000 		.4byte	0xbf7
 5034 189f 9C0B0000 		.4byte	.LLST101
 5035 18a3 23       		.uleb128 0x23
 5036 18a4 EB0B0000 		.4byte	0xbeb
 5037 18a8 B00B0000 		.4byte	.LLST102
ARM GAS  C:\Users\User\AppData\Local\Temp\ccsn8eRz.s 			page 122


 5038 18ac 23       		.uleb128 0x23
 5039 18ad DF0B0000 		.4byte	0xbdf
 5040 18b1 C40B0000 		.4byte	.LLST103
 5041 18b5 00       		.byte	0
 5042 18b6 31       		.uleb128 0x31
 5043 18b7 D20B0000 		.4byte	0xbd2
 5044 18bb 8A000000 		.4byte	.LBB110
 5045 18bf 04000000 		.4byte	.LBE110-.LBB110
 5046 18c3 01       		.byte	0x1
 5047 18c4 0C04     		.2byte	0x40c
 5048 18c6 E6180000 		.4byte	0x18e6
 5049 18ca 23       		.uleb128 0x23
 5050 18cb F70B0000 		.4byte	0xbf7
 5051 18cf DC0B0000 		.4byte	.LLST104
 5052 18d3 23       		.uleb128 0x23
 5053 18d4 EB0B0000 		.4byte	0xbeb
 5054 18d8 F00B0000 		.4byte	.LLST105
 5055 18dc 23       		.uleb128 0x23
 5056 18dd DF0B0000 		.4byte	0xbdf
 5057 18e1 040C0000 		.4byte	.LLST106
 5058 18e5 00       		.byte	0
 5059 18e6 31       		.uleb128 0x31
 5060 18e7 D20B0000 		.4byte	0xbd2
 5061 18eb 94000000 		.4byte	.LBB112
 5062 18ef 02000000 		.4byte	.LBE112-.LBB112
 5063 18f3 01       		.byte	0x1
 5064 18f4 0E04     		.2byte	0x40e
 5065 18f6 16190000 		.4byte	0x1916
 5066 18fa 23       		.uleb128 0x23
 5067 18fb F70B0000 		.4byte	0xbf7
 5068 18ff 1C0C0000 		.4byte	.LLST107
 5069 1903 23       		.uleb128 0x23
 5070 1904 EB0B0000 		.4byte	0xbeb
 5071 1908 300C0000 		.4byte	.LLST108
 5072 190c 23       		.uleb128 0x23
 5073 190d DF0B0000 		.4byte	0xbdf
 5074 1911 440C0000 		.4byte	.LLST109
 5075 1915 00       		.byte	0
 5076 1916 26       		.uleb128 0x26
 5077 1917 06000000 		.4byte	.LVL187
 5078 191b 14150000 		.4byte	0x1514
 5079 191f 26       		.uleb128 0x26
 5080 1920 0A000000 		.4byte	.LVL188
 5081 1924 6E150000 		.4byte	0x156e
 5082 1928 24       		.uleb128 0x24
 5083 1929 10000000 		.4byte	.LVL189
 5084 192d 121C0000 		.4byte	0x1c12
 5085 1931 3B190000 		.4byte	0x193b
 5086 1935 25       		.uleb128 0x25
 5087 1936 01       		.uleb128 0x1
 5088 1937 50       		.byte	0x50
 5089 1938 01       		.uleb128 0x1
 5090 1939 4E       		.byte	0x4e
 5091 193a 00       		.byte	0
 5092 193b 24       		.uleb128 0x24
 5093 193c 1C000000 		.4byte	.LVL191
 5094 1940 121C0000 		.4byte	0x1c12
ARM GAS  C:\Users\User\AppData\Local\Temp\ccsn8eRz.s 			page 123


 5095 1944 4F190000 		.4byte	0x194f
 5096 1948 25       		.uleb128 0x25
 5097 1949 01       		.uleb128 0x1
 5098 194a 50       		.byte	0x50
 5099 194b 02       		.uleb128 0x2
 5100 194c 08       		.byte	0x8
 5101 194d 32       		.byte	0x32
 5102 194e 00       		.byte	0
 5103 194f 24       		.uleb128 0x24
 5104 1950 26000000 		.4byte	.LVL193
 5105 1954 910D0000 		.4byte	0xd91
 5106 1958 67190000 		.4byte	0x1967
 5107 195c 25       		.uleb128 0x25
 5108 195d 01       		.uleb128 0x1
 5109 195e 50       		.byte	0x50
 5110 195f 01       		.uleb128 0x1
 5111 1960 3F       		.byte	0x3f
 5112 1961 25       		.uleb128 0x25
 5113 1962 01       		.uleb128 0x1
 5114 1963 51       		.byte	0x51
 5115 1964 01       		.uleb128 0x1
 5116 1965 30       		.byte	0x30
 5117 1966 00       		.byte	0
 5118 1967 24       		.uleb128 0x24
 5119 1968 34000000 		.4byte	.LVL194
 5120 196c 480D0000 		.4byte	0xd48
 5121 1970 7F190000 		.4byte	0x197f
 5122 1974 25       		.uleb128 0x25
 5123 1975 01       		.uleb128 0x1
 5124 1976 50       		.byte	0x50
 5125 1977 01       		.uleb128 0x1
 5126 1978 3B       		.byte	0x3b
 5127 1979 25       		.uleb128 0x25
 5128 197a 01       		.uleb128 0x1
 5129 197b 51       		.byte	0x51
 5130 197c 01       		.uleb128 0x1
 5131 197d 30       		.byte	0x30
 5132 197e 00       		.byte	0
 5133 197f 24       		.uleb128 0x24
 5134 1980 3C000000 		.4byte	.LVL195
 5135 1984 480D0000 		.4byte	0xd48
 5136 1988 97190000 		.4byte	0x1997
 5137 198c 25       		.uleb128 0x25
 5138 198d 01       		.uleb128 0x1
 5139 198e 50       		.byte	0x50
 5140 198f 01       		.uleb128 0x1
 5141 1990 33       		.byte	0x33
 5142 1991 25       		.uleb128 0x25
 5143 1992 01       		.uleb128 0x1
 5144 1993 51       		.byte	0x51
 5145 1994 01       		.uleb128 0x1
 5146 1995 31       		.byte	0x31
 5147 1996 00       		.byte	0
 5148 1997 24       		.uleb128 0x24
 5149 1998 44000000 		.4byte	.LVL196
 5150 199c 480D0000 		.4byte	0xd48
 5151 19a0 AF190000 		.4byte	0x19af
ARM GAS  C:\Users\User\AppData\Local\Temp\ccsn8eRz.s 			page 124


 5152 19a4 25       		.uleb128 0x25
 5153 19a5 01       		.uleb128 0x1
 5154 19a6 50       		.byte	0x50
 5155 19a7 01       		.uleb128 0x1
 5156 19a8 35       		.byte	0x35
 5157 19a9 25       		.uleb128 0x25
 5158 19aa 01       		.uleb128 0x1
 5159 19ab 51       		.byte	0x51
 5160 19ac 01       		.uleb128 0x1
 5161 19ad 33       		.byte	0x33
 5162 19ae 00       		.byte	0
 5163 19af 24       		.uleb128 0x24
 5164 19b0 4C000000 		.4byte	.LVL197
 5165 19b4 480D0000 		.4byte	0xd48
 5166 19b8 C7190000 		.4byte	0x19c7
 5167 19bc 25       		.uleb128 0x25
 5168 19bd 01       		.uleb128 0x1
 5169 19be 50       		.byte	0x50
 5170 19bf 01       		.uleb128 0x1
 5171 19c0 35       		.byte	0x35
 5172 19c1 25       		.uleb128 0x25
 5173 19c2 01       		.uleb128 0x1
 5174 19c3 51       		.byte	0x51
 5175 19c4 01       		.uleb128 0x1
 5176 19c5 31       		.byte	0x31
 5177 19c6 00       		.byte	0
 5178 19c7 24       		.uleb128 0x24
 5179 19c8 52000000 		.4byte	.LVL198
 5180 19cc 121C0000 		.4byte	0x1c12
 5181 19d0 DB190000 		.4byte	0x19db
 5182 19d4 25       		.uleb128 0x25
 5183 19d5 01       		.uleb128 0x1
 5184 19d6 50       		.byte	0x50
 5185 19d7 02       		.uleb128 0x2
 5186 19d8 08       		.byte	0x8
 5187 19d9 32       		.byte	0x32
 5188 19da 00       		.byte	0
 5189 19db 24       		.uleb128 0x24
 5190 19dc 5A000000 		.4byte	.LVL199
 5191 19e0 480D0000 		.4byte	0xd48
 5192 19e4 F4190000 		.4byte	0x19f4
 5193 19e8 25       		.uleb128 0x25
 5194 19e9 01       		.uleb128 0x1
 5195 19ea 50       		.byte	0x50
 5196 19eb 01       		.uleb128 0x1
 5197 19ec 34       		.byte	0x34
 5198 19ed 25       		.uleb128 0x25
 5199 19ee 01       		.uleb128 0x1
 5200 19ef 51       		.byte	0x51
 5201 19f0 02       		.uleb128 0x2
 5202 19f1 09       		.byte	0x9
 5203 19f2 80       		.byte	0x80
 5204 19f3 00       		.byte	0
 5205 19f4 24       		.uleb128 0x24
 5206 19f5 62000000 		.4byte	.LVL200
 5207 19f9 480D0000 		.4byte	0xd48
 5208 19fd 0C1A0000 		.4byte	0x1a0c
ARM GAS  C:\Users\User\AppData\Local\Temp\ccsn8eRz.s 			page 125


 5209 1a01 25       		.uleb128 0x25
 5210 1a02 01       		.uleb128 0x1
 5211 1a03 50       		.byte	0x50
 5212 1a04 01       		.uleb128 0x1
 5213 1a05 35       		.byte	0x35
 5214 1a06 25       		.uleb128 0x25
 5215 1a07 01       		.uleb128 0x1
 5216 1a08 51       		.byte	0x51
 5217 1a09 01       		.uleb128 0x1
 5218 1a0a 30       		.byte	0x30
 5219 1a0b 00       		.byte	0
 5220 1a0c 24       		.uleb128 0x24
 5221 1a0d 6A000000 		.4byte	.LVL201
 5222 1a11 480D0000 		.4byte	0xd48
 5223 1a15 241A0000 		.4byte	0x1a24
 5224 1a19 25       		.uleb128 0x25
 5225 1a1a 01       		.uleb128 0x1
 5226 1a1b 50       		.byte	0x50
 5227 1a1c 01       		.uleb128 0x1
 5228 1a1d 37       		.byte	0x37
 5229 1a1e 25       		.uleb128 0x25
 5230 1a1f 01       		.uleb128 0x1
 5231 1a20 51       		.byte	0x51
 5232 1a21 01       		.uleb128 0x1
 5233 1a22 31       		.byte	0x31
 5234 1a23 00       		.byte	0
 5235 1a24 24       		.uleb128 0x24
 5236 1a25 70000000 		.4byte	.LVL202
 5237 1a29 121C0000 		.4byte	0x1c12
 5238 1a2d 371A0000 		.4byte	0x1a37
 5239 1a31 25       		.uleb128 0x25
 5240 1a32 01       		.uleb128 0x1
 5241 1a33 50       		.byte	0x50
 5242 1a34 01       		.uleb128 0x1
 5243 1a35 4E       		.byte	0x4e
 5244 1a36 00       		.byte	0
 5245 1a37 26       		.uleb128 0x26
 5246 1a38 74000000 		.4byte	.LVL203
 5247 1a3c 291C0000 		.4byte	0x1c29
 5248 1a40 24       		.uleb128 0x24
 5249 1a41 80000000 		.4byte	.LVL206
 5250 1a45 121C0000 		.4byte	0x1c12
 5251 1a49 531A0000 		.4byte	0x1a53
 5252 1a4d 25       		.uleb128 0x25
 5253 1a4e 01       		.uleb128 0x1
 5254 1a4f 50       		.byte	0x50
 5255 1a50 01       		.uleb128 0x1
 5256 1a51 44       		.byte	0x44
 5257 1a52 00       		.byte	0
 5258 1a53 27       		.uleb128 0x27
 5259 1a54 94000000 		.4byte	.LVL210
 5260 1a58 121C0000 		.4byte	0x1c12
 5261 1a5c 25       		.uleb128 0x25
 5262 1a5d 01       		.uleb128 0x1
 5263 1a5e 50       		.byte	0x50
 5264 1a5f 01       		.uleb128 0x1
 5265 1a60 4E       		.byte	0x4e
ARM GAS  C:\Users\User\AppData\Local\Temp\ccsn8eRz.s 			page 126


 5266 1a61 00       		.byte	0
 5267 1a62 00       		.byte	0
 5268 1a63 29       		.uleb128 0x29
 5269 1a64 4C0F0000 		.4byte	.LASF311
 5270 1a68 01       		.byte	0x1
 5271 1a69 52       		.byte	0x52
 5272 1a6a C70B0000 		.4byte	0xbc7
 5273 1a6e 05       		.uleb128 0x5
 5274 1a6f 03       		.byte	0x3
 5275 1a70 00000000 		.4byte	driverPacket
 5276 1a74 29       		.uleb128 0x29
 5277 1a75 6C060000 		.4byte	.LASF312
 5278 1a79 01       		.byte	0x1
 5279 1a7a 5D       		.byte	0x5d
 5280 1a7b E5000000 		.4byte	0xe5
 5281 1a7f 05       		.uleb128 0x5
 5282 1a80 03       		.byte	0x3
 5283 1a81 7C000000 		.4byte	fullUpdateTime
 5284 1a85 29       		.uleb128 0x29
 5285 1a86 E60D0000 		.4byte	.LASF313
 5286 1a8a 01       		.byte	0x1
 5287 1a8b 5E       		.byte	0x5e
 5288 1a8c E5000000 		.4byte	0xe5
 5289 1a90 05       		.uleb128 0x5
 5290 1a91 03       		.byte	0x3
 5291 1a92 7E000000 		.4byte	partialUpdateTime
 5292 1a96 29       		.uleb128 0x29
 5293 1a97 54160000 		.4byte	.LASF314
 5294 1a9b 01       		.byte	0x1
 5295 1a9c 61       		.byte	0x61
 5296 1a9d F5030000 		.4byte	0x3f5
 5297 1aa1 05       		.uleb128 0x5
 5298 1aa2 03       		.byte	0x3
 5299 1aa3 70000000 		.4byte	dataLineEven
 5300 1aa7 29       		.uleb128 0x29
 5301 1aa8 14010000 		.4byte	.LASF315
 5302 1aac 01       		.byte	0x1
 5303 1aad 62       		.byte	0x62
 5304 1aae F5030000 		.4byte	0x3f5
 5305 1ab2 05       		.uleb128 0x5
 5306 1ab3 03       		.byte	0x3
 5307 1ab4 74000000 		.4byte	dataLineOdd
 5308 1ab8 29       		.uleb128 0x29
 5309 1ab9 561D0000 		.4byte	.LASF316
 5310 1abd 01       		.byte	0x1
 5311 1abe 63       		.byte	0x63
 5312 1abf F5030000 		.4byte	0x3f5
 5313 1ac3 05       		.uleb128 0x5
 5314 1ac4 03       		.byte	0x3
 5315 1ac5 78000000 		.4byte	dataLineScan
 5316 1ac9 32       		.uleb128 0x32
 5317 1aca F6150000 		.4byte	.LASF317
 5318 1ace 0F       		.byte	0xf
 5319 1acf EA07     		.2byte	0x7ea
 5320 1ad1 D51A0000 		.4byte	0x1ad5
 5321 1ad5 06       		.uleb128 0x6
 5322 1ad6 F0000000 		.4byte	0xf0
ARM GAS  C:\Users\User\AppData\Local\Temp\ccsn8eRz.s 			page 127


 5323 1ada 32       		.uleb128 0x32
 5324 1adb 7D0F0000 		.4byte	.LASF318
 5325 1adf 0D       		.byte	0xd
 5326 1ae0 2202     		.2byte	0x222
 5327 1ae2 6B0A0000 		.4byte	0xa6b
 5328 1ae6 08       		.uleb128 0x8
 5329 1ae7 3A0A0000 		.4byte	0xa3a
 5330 1aeb F61A0000 		.4byte	0x1af6
 5331 1aef 09       		.uleb128 0x9
 5332 1af0 B4000000 		.4byte	0xb4
 5333 1af4 00       		.byte	0
 5334 1af5 00       		.byte	0
 5335 1af6 32       		.uleb128 0x32
 5336 1af7 25020000 		.4byte	.LASF319
 5337 1afb 0D       		.byte	0xd
 5338 1afc 2C02     		.2byte	0x22c
 5339 1afe E61A0000 		.4byte	0x1ae6
 5340 1b02 08       		.uleb128 0x8
 5341 1b03 B30A0000 		.4byte	0xab3
 5342 1b07 121B0000 		.4byte	0x1b12
 5343 1b0b 09       		.uleb128 0x9
 5344 1b0c B4000000 		.4byte	0xb4
 5345 1b10 00       		.byte	0
 5346 1b11 00       		.byte	0
 5347 1b12 32       		.uleb128 0x32
 5348 1b13 00000000 		.4byte	.LASF320
 5349 1b17 0D       		.byte	0xd
 5350 1b18 2D02     		.2byte	0x22d
 5351 1b1a 021B0000 		.4byte	0x1b02
 5352 1b1e 33       		.uleb128 0x33
 5353 1b1f 42010000 		.4byte	.LASF321
 5354 1b23 10       		.byte	0x10
 5355 1b24 5E       		.byte	0x5e
 5356 1b25 F0050000 		.4byte	0x5f0
 5357 1b29 33       		.uleb128 0x33
 5358 1b2a D10D0000 		.4byte	.LASF322
 5359 1b2e 11       		.byte	0x11
 5360 1b2f 1F       		.byte	0x1f
 5361 1b30 341B0000 		.4byte	0x1b34
 5362 1b34 07       		.uleb128 0x7
 5363 1b35 D9030000 		.4byte	0x3d9
 5364 1b39 33       		.uleb128 0x33
 5365 1b3a 920C0000 		.4byte	.LASF323
 5366 1b3e 12       		.byte	0x12
 5367 1b3f 87       		.byte	0x87
 5368 1b40 CC060000 		.4byte	0x6cc
 5369 1b44 33       		.uleb128 0x33
 5370 1b45 94190000 		.4byte	.LASF324
 5371 1b49 13       		.byte	0x13
 5372 1b4a 4B       		.byte	0x4b
 5373 1b4b 55050000 		.4byte	0x555
 5374 1b4f 08       		.uleb128 0x8
 5375 1b50 C70B0000 		.4byte	0xbc7
 5376 1b54 5F1B0000 		.4byte	0x1b5f
 5377 1b58 09       		.uleb128 0x9
 5378 1b59 B4000000 		.4byte	0xb4
 5379 1b5d AF       		.byte	0xaf
ARM GAS  C:\Users\User\AppData\Local\Temp\ccsn8eRz.s 			page 128


 5380 1b5e 00       		.byte	0
 5381 1b5f 34       		.uleb128 0x34
 5382 1b60 01110000 		.4byte	.LASF325
 5383 1b64 01       		.byte	0x1
 5384 1b65 4E       		.byte	0x4e
 5385 1b66 4F1B0000 		.4byte	0x1b4f
 5386 1b6a 05       		.uleb128 0x5
 5387 1b6b 03       		.byte	0x3
 5388 1b6c 00000000 		.4byte	bulkDriverPacket
 5389 1b70 08       		.uleb128 0x8
 5390 1b71 110A0000 		.4byte	0xa11
 5391 1b75 801B0000 		.4byte	0x1b80
 5392 1b79 09       		.uleb128 0x9
 5393 1b7a B4000000 		.4byte	0xb4
 5394 1b7e 03       		.byte	0x3
 5395 1b7f 00       		.byte	0
 5396 1b80 34       		.uleb128 0x34
 5397 1b81 620C0000 		.4byte	.LASF326
 5398 1b85 01       		.byte	0x1
 5399 1b86 55       		.byte	0x55
 5400 1b87 911B0000 		.4byte	0x1b91
 5401 1b8b 05       		.uleb128 0x5
 5402 1b8c 03       		.byte	0x3
 5403 1b8d 00000000 		.4byte	scanTable
 5404 1b91 07       		.uleb128 0x7
 5405 1b92 701B0000 		.4byte	0x1b70
 5406 1b96 08       		.uleb128 0x8
 5407 1b97 110A0000 		.4byte	0xa11
 5408 1b9b A61B0000 		.4byte	0x1ba6
 5409 1b9f 09       		.uleb128 0x9
 5410 1ba0 B4000000 		.4byte	0xb4
 5411 1ba4 07       		.byte	0x7
 5412 1ba5 00       		.byte	0
 5413 1ba6 34       		.uleb128 0x34
 5414 1ba7 90160000 		.4byte	.LASF327
 5415 1bab 01       		.byte	0x1
 5416 1bac 59       		.byte	0x59
 5417 1bad B71B0000 		.4byte	0x1bb7
 5418 1bb1 05       		.uleb128 0x5
 5419 1bb2 03       		.byte	0x3
 5420 1bb3 00000000 		.4byte	channelSelect
 5421 1bb7 07       		.uleb128 0x7
 5422 1bb8 961B0000 		.4byte	0x1b96
 5423 1bbc 35       		.uleb128 0x35
 5424 1bbd E1050000 		.4byte	.LASF328
 5425 1bc1 E1050000 		.4byte	.LASF328
 5426 1bc5 14       		.byte	0x14
 5427 1bc6 87       		.byte	0x87
 5428 1bc7 35       		.uleb128 0x35
 5429 1bc8 2E1C0000 		.4byte	.LASF329
 5430 1bcc 2E1C0000 		.4byte	.LASF329
 5431 1bd0 14       		.byte	0x14
 5432 1bd1 88       		.byte	0x88
 5433 1bd2 35       		.uleb128 0x35
 5434 1bd3 AC160000 		.4byte	.LASF330
 5435 1bd7 AC160000 		.4byte	.LASF330
 5436 1bdb 14       		.byte	0x14
ARM GAS  C:\Users\User\AppData\Local\Temp\ccsn8eRz.s 			page 129


 5437 1bdc 84       		.byte	0x84
 5438 1bdd 35       		.uleb128 0x35
 5439 1bde E4150000 		.4byte	.LASF331
 5440 1be2 E4150000 		.4byte	.LASF331
 5441 1be6 14       		.byte	0x14
 5442 1be7 7F       		.byte	0x7f
 5443 1be8 36       		.uleb128 0x36
 5444 1be9 12110000 		.4byte	.LASF342
 5445 1bed 12110000 		.4byte	.LASF342
 5446 1bf1 35       		.uleb128 0x35
 5447 1bf2 57010000 		.4byte	.LASF332
 5448 1bf6 57010000 		.4byte	.LASF332
 5449 1bfa 14       		.byte	0x14
 5450 1bfb 81       		.byte	0x81
 5451 1bfc 35       		.uleb128 0x35
 5452 1bfd 290E0000 		.4byte	.LASF333
 5453 1c01 290E0000 		.4byte	.LASF333
 5454 1c05 14       		.byte	0x14
 5455 1c06 8A       		.byte	0x8a
 5456 1c07 35       		.uleb128 0x35
 5457 1c08 7B070000 		.4byte	.LASF334
 5458 1c0c 7B070000 		.4byte	.LASF334
 5459 1c10 14       		.byte	0x14
 5460 1c11 80       		.byte	0x80
 5461 1c12 37       		.uleb128 0x37
 5462 1c13 92070000 		.4byte	.LASF335
 5463 1c17 92070000 		.4byte	.LASF335
 5464 1c1b 06       		.byte	0x6
 5465 1c1c 2103     		.2byte	0x321
 5466 1c1e 35       		.uleb128 0x35
 5467 1c1f 3A0F0000 		.4byte	.LASF336
 5468 1c23 3A0F0000 		.4byte	.LASF336
 5469 1c27 14       		.byte	0x14
 5470 1c28 85       		.byte	0x85
 5471 1c29 35       		.uleb128 0x35
 5472 1c2a 3A190000 		.4byte	.LASF337
 5473 1c2e 3A190000 		.4byte	.LASF337
 5474 1c32 14       		.byte	0x14
 5475 1c33 86       		.byte	0x86
 5476 1c34 00       		.byte	0
 5477              		.section	.debug_abbrev,"",%progbits
 5478              	.Ldebug_abbrev0:
 5479 0000 01       		.uleb128 0x1
 5480 0001 11       		.uleb128 0x11
 5481 0002 01       		.byte	0x1
 5482 0003 25       		.uleb128 0x25
 5483 0004 0E       		.uleb128 0xe
 5484 0005 13       		.uleb128 0x13
 5485 0006 0B       		.uleb128 0xb
 5486 0007 03       		.uleb128 0x3
 5487 0008 0E       		.uleb128 0xe
 5488 0009 1B       		.uleb128 0x1b
 5489 000a 0E       		.uleb128 0xe
 5490 000b 55       		.uleb128 0x55
 5491 000c 17       		.uleb128 0x17
 5492 000d 11       		.uleb128 0x11
 5493 000e 01       		.uleb128 0x1
ARM GAS  C:\Users\User\AppData\Local\Temp\ccsn8eRz.s 			page 130


 5494 000f 10       		.uleb128 0x10
 5495 0010 17       		.uleb128 0x17
 5496 0011 00       		.byte	0
 5497 0012 00       		.byte	0
 5498 0013 02       		.uleb128 0x2
 5499 0014 24       		.uleb128 0x24
 5500 0015 00       		.byte	0
 5501 0016 0B       		.uleb128 0xb
 5502 0017 0B       		.uleb128 0xb
 5503 0018 3E       		.uleb128 0x3e
 5504 0019 0B       		.uleb128 0xb
 5505 001a 03       		.uleb128 0x3
 5506 001b 08       		.uleb128 0x8
 5507 001c 00       		.byte	0
 5508 001d 00       		.byte	0
 5509 001e 03       		.uleb128 0x3
 5510 001f 24       		.uleb128 0x24
 5511 0020 00       		.byte	0
 5512 0021 0B       		.uleb128 0xb
 5513 0022 0B       		.uleb128 0xb
 5514 0023 3E       		.uleb128 0x3e
 5515 0024 0B       		.uleb128 0xb
 5516 0025 03       		.uleb128 0x3
 5517 0026 0E       		.uleb128 0xe
 5518 0027 00       		.byte	0
 5519 0028 00       		.byte	0
 5520 0029 04       		.uleb128 0x4
 5521 002a 16       		.uleb128 0x16
 5522 002b 00       		.byte	0
 5523 002c 03       		.uleb128 0x3
 5524 002d 0E       		.uleb128 0xe
 5525 002e 3A       		.uleb128 0x3a
 5526 002f 0B       		.uleb128 0xb
 5527 0030 3B       		.uleb128 0x3b
 5528 0031 0B       		.uleb128 0xb
 5529 0032 49       		.uleb128 0x49
 5530 0033 13       		.uleb128 0x13
 5531 0034 00       		.byte	0
 5532 0035 00       		.byte	0
 5533 0036 05       		.uleb128 0x5
 5534 0037 0F       		.uleb128 0xf
 5535 0038 00       		.byte	0
 5536 0039 0B       		.uleb128 0xb
 5537 003a 0B       		.uleb128 0xb
 5538 003b 00       		.byte	0
 5539 003c 00       		.byte	0
 5540 003d 06       		.uleb128 0x6
 5541 003e 35       		.uleb128 0x35
 5542 003f 00       		.byte	0
 5543 0040 49       		.uleb128 0x49
 5544 0041 13       		.uleb128 0x13
 5545 0042 00       		.byte	0
 5546 0043 00       		.byte	0
 5547 0044 07       		.uleb128 0x7
 5548 0045 26       		.uleb128 0x26
 5549 0046 00       		.byte	0
 5550 0047 49       		.uleb128 0x49
ARM GAS  C:\Users\User\AppData\Local\Temp\ccsn8eRz.s 			page 131


 5551 0048 13       		.uleb128 0x13
 5552 0049 00       		.byte	0
 5553 004a 00       		.byte	0
 5554 004b 08       		.uleb128 0x8
 5555 004c 01       		.uleb128 0x1
 5556 004d 01       		.byte	0x1
 5557 004e 49       		.uleb128 0x49
 5558 004f 13       		.uleb128 0x13
 5559 0050 01       		.uleb128 0x1
 5560 0051 13       		.uleb128 0x13
 5561 0052 00       		.byte	0
 5562 0053 00       		.byte	0
 5563 0054 09       		.uleb128 0x9
 5564 0055 21       		.uleb128 0x21
 5565 0056 00       		.byte	0
 5566 0057 49       		.uleb128 0x49
 5567 0058 13       		.uleb128 0x13
 5568 0059 2F       		.uleb128 0x2f
 5569 005a 0B       		.uleb128 0xb
 5570 005b 00       		.byte	0
 5571 005c 00       		.byte	0
 5572 005d 0A       		.uleb128 0xa
 5573 005e 13       		.uleb128 0x13
 5574 005f 01       		.byte	0x1
 5575 0060 0B       		.uleb128 0xb
 5576 0061 0B       		.uleb128 0xb
 5577 0062 3A       		.uleb128 0x3a
 5578 0063 0B       		.uleb128 0xb
 5579 0064 3B       		.uleb128 0x3b
 5580 0065 0B       		.uleb128 0xb
 5581 0066 01       		.uleb128 0x1
 5582 0067 13       		.uleb128 0x13
 5583 0068 00       		.byte	0
 5584 0069 00       		.byte	0
 5585 006a 0B       		.uleb128 0xb
 5586 006b 0D       		.uleb128 0xd
 5587 006c 00       		.byte	0
 5588 006d 03       		.uleb128 0x3
 5589 006e 08       		.uleb128 0x8
 5590 006f 3A       		.uleb128 0x3a
 5591 0070 0B       		.uleb128 0xb
 5592 0071 3B       		.uleb128 0x3b
 5593 0072 0B       		.uleb128 0xb
 5594 0073 49       		.uleb128 0x49
 5595 0074 13       		.uleb128 0x13
 5596 0075 38       		.uleb128 0x38
 5597 0076 0B       		.uleb128 0xb
 5598 0077 00       		.byte	0
 5599 0078 00       		.byte	0
 5600 0079 0C       		.uleb128 0xc
 5601 007a 0D       		.uleb128 0xd
 5602 007b 00       		.byte	0
 5603 007c 03       		.uleb128 0x3
 5604 007d 0E       		.uleb128 0xe
 5605 007e 3A       		.uleb128 0x3a
 5606 007f 0B       		.uleb128 0xb
 5607 0080 3B       		.uleb128 0x3b
ARM GAS  C:\Users\User\AppData\Local\Temp\ccsn8eRz.s 			page 132


 5608 0081 0B       		.uleb128 0xb
 5609 0082 49       		.uleb128 0x49
 5610 0083 13       		.uleb128 0x13
 5611 0084 38       		.uleb128 0x38
 5612 0085 0B       		.uleb128 0xb
 5613 0086 00       		.byte	0
 5614 0087 00       		.byte	0
 5615 0088 0D       		.uleb128 0xd
 5616 0089 13       		.uleb128 0x13
 5617 008a 01       		.byte	0x1
 5618 008b 0B       		.uleb128 0xb
 5619 008c 05       		.uleb128 0x5
 5620 008d 3A       		.uleb128 0x3a
 5621 008e 0B       		.uleb128 0xb
 5622 008f 3B       		.uleb128 0x3b
 5623 0090 0B       		.uleb128 0xb
 5624 0091 01       		.uleb128 0x1
 5625 0092 13       		.uleb128 0x13
 5626 0093 00       		.byte	0
 5627 0094 00       		.byte	0
 5628 0095 0E       		.uleb128 0xe
 5629 0096 0D       		.uleb128 0xd
 5630 0097 00       		.byte	0
 5631 0098 03       		.uleb128 0x3
 5632 0099 0E       		.uleb128 0xe
 5633 009a 3A       		.uleb128 0x3a
 5634 009b 0B       		.uleb128 0xb
 5635 009c 3B       		.uleb128 0x3b
 5636 009d 0B       		.uleb128 0xb
 5637 009e 49       		.uleb128 0x49
 5638 009f 13       		.uleb128 0x13
 5639 00a0 38       		.uleb128 0x38
 5640 00a1 05       		.uleb128 0x5
 5641 00a2 00       		.byte	0
 5642 00a3 00       		.byte	0
 5643 00a4 0F       		.uleb128 0xf
 5644 00a5 16       		.uleb128 0x16
 5645 00a6 00       		.byte	0
 5646 00a7 03       		.uleb128 0x3
 5647 00a8 0E       		.uleb128 0xe
 5648 00a9 3A       		.uleb128 0x3a
 5649 00aa 0B       		.uleb128 0xb
 5650 00ab 3B       		.uleb128 0x3b
 5651 00ac 05       		.uleb128 0x5
 5652 00ad 49       		.uleb128 0x49
 5653 00ae 13       		.uleb128 0x13
 5654 00af 00       		.byte	0
 5655 00b0 00       		.byte	0
 5656 00b1 10       		.uleb128 0x10
 5657 00b2 13       		.uleb128 0x13
 5658 00b3 01       		.byte	0x1
 5659 00b4 03       		.uleb128 0x3
 5660 00b5 0E       		.uleb128 0xe
 5661 00b6 0B       		.uleb128 0xb
 5662 00b7 0B       		.uleb128 0xb
 5663 00b8 3A       		.uleb128 0x3a
 5664 00b9 0B       		.uleb128 0xb
ARM GAS  C:\Users\User\AppData\Local\Temp\ccsn8eRz.s 			page 133


 5665 00ba 3B       		.uleb128 0x3b
 5666 00bb 0B       		.uleb128 0xb
 5667 00bc 01       		.uleb128 0x1
 5668 00bd 13       		.uleb128 0x13
 5669 00be 00       		.byte	0
 5670 00bf 00       		.byte	0
 5671 00c0 11       		.uleb128 0x11
 5672 00c1 0F       		.uleb128 0xf
 5673 00c2 00       		.byte	0
 5674 00c3 0B       		.uleb128 0xb
 5675 00c4 0B       		.uleb128 0xb
 5676 00c5 49       		.uleb128 0x49
 5677 00c6 13       		.uleb128 0x13
 5678 00c7 00       		.byte	0
 5679 00c8 00       		.byte	0
 5680 00c9 12       		.uleb128 0x12
 5681 00ca 15       		.uleb128 0x15
 5682 00cb 01       		.byte	0x1
 5683 00cc 27       		.uleb128 0x27
 5684 00cd 19       		.uleb128 0x19
 5685 00ce 01       		.uleb128 0x1
 5686 00cf 13       		.uleb128 0x13
 5687 00d0 00       		.byte	0
 5688 00d1 00       		.byte	0
 5689 00d2 13       		.uleb128 0x13
 5690 00d3 05       		.uleb128 0x5
 5691 00d4 00       		.byte	0
 5692 00d5 49       		.uleb128 0x49
 5693 00d6 13       		.uleb128 0x13
 5694 00d7 00       		.byte	0
 5695 00d8 00       		.byte	0
 5696 00d9 14       		.uleb128 0x14
 5697 00da 04       		.uleb128 0x4
 5698 00db 01       		.byte	0x1
 5699 00dc 0B       		.uleb128 0xb
 5700 00dd 0B       		.uleb128 0xb
 5701 00de 49       		.uleb128 0x49
 5702 00df 13       		.uleb128 0x13
 5703 00e0 3A       		.uleb128 0x3a
 5704 00e1 0B       		.uleb128 0xb
 5705 00e2 3B       		.uleb128 0x3b
 5706 00e3 05       		.uleb128 0x5
 5707 00e4 01       		.uleb128 0x1
 5708 00e5 13       		.uleb128 0x13
 5709 00e6 00       		.byte	0
 5710 00e7 00       		.byte	0
 5711 00e8 15       		.uleb128 0x15
 5712 00e9 28       		.uleb128 0x28
 5713 00ea 00       		.byte	0
 5714 00eb 03       		.uleb128 0x3
 5715 00ec 0E       		.uleb128 0xe
 5716 00ed 1C       		.uleb128 0x1c
 5717 00ee 0B       		.uleb128 0xb
 5718 00ef 00       		.byte	0
 5719 00f0 00       		.byte	0
 5720 00f1 16       		.uleb128 0x16
 5721 00f2 13       		.uleb128 0x13
ARM GAS  C:\Users\User\AppData\Local\Temp\ccsn8eRz.s 			page 134


 5722 00f3 01       		.byte	0x1
 5723 00f4 03       		.uleb128 0x3
 5724 00f5 0E       		.uleb128 0xe
 5725 00f6 0B       		.uleb128 0xb
 5726 00f7 0B       		.uleb128 0xb
 5727 00f8 3A       		.uleb128 0x3a
 5728 00f9 0B       		.uleb128 0xb
 5729 00fa 3B       		.uleb128 0x3b
 5730 00fb 05       		.uleb128 0x5
 5731 00fc 01       		.uleb128 0x1
 5732 00fd 13       		.uleb128 0x13
 5733 00fe 00       		.byte	0
 5734 00ff 00       		.byte	0
 5735 0100 17       		.uleb128 0x17
 5736 0101 0D       		.uleb128 0xd
 5737 0102 00       		.byte	0
 5738 0103 03       		.uleb128 0x3
 5739 0104 0E       		.uleb128 0xe
 5740 0105 3A       		.uleb128 0x3a
 5741 0106 0B       		.uleb128 0xb
 5742 0107 3B       		.uleb128 0x3b
 5743 0108 05       		.uleb128 0x5
 5744 0109 49       		.uleb128 0x49
 5745 010a 13       		.uleb128 0x13
 5746 010b 38       		.uleb128 0x38
 5747 010c 0B       		.uleb128 0xb
 5748 010d 00       		.byte	0
 5749 010e 00       		.byte	0
 5750 010f 18       		.uleb128 0x18
 5751 0110 0D       		.uleb128 0xd
 5752 0111 00       		.byte	0
 5753 0112 03       		.uleb128 0x3
 5754 0113 08       		.uleb128 0x8
 5755 0114 3A       		.uleb128 0x3a
 5756 0115 0B       		.uleb128 0xb
 5757 0116 3B       		.uleb128 0x3b
 5758 0117 05       		.uleb128 0x5
 5759 0118 49       		.uleb128 0x49
 5760 0119 13       		.uleb128 0x13
 5761 011a 38       		.uleb128 0x38
 5762 011b 0B       		.uleb128 0xb
 5763 011c 00       		.byte	0
 5764 011d 00       		.byte	0
 5765 011e 19       		.uleb128 0x19
 5766 011f 28       		.uleb128 0x28
 5767 0120 00       		.byte	0
 5768 0121 03       		.uleb128 0x3
 5769 0122 0E       		.uleb128 0xe
 5770 0123 1C       		.uleb128 0x1c
 5771 0124 05       		.uleb128 0x5
 5772 0125 00       		.byte	0
 5773 0126 00       		.byte	0
 5774 0127 1A       		.uleb128 0x1a
 5775 0128 13       		.uleb128 0x13
 5776 0129 01       		.byte	0x1
 5777 012a 0B       		.uleb128 0xb
 5778 012b 0B       		.uleb128 0xb
ARM GAS  C:\Users\User\AppData\Local\Temp\ccsn8eRz.s 			page 135


 5779 012c 3A       		.uleb128 0x3a
 5780 012d 0B       		.uleb128 0xb
 5781 012e 3B       		.uleb128 0x3b
 5782 012f 05       		.uleb128 0x5
 5783 0130 01       		.uleb128 0x1
 5784 0131 13       		.uleb128 0x13
 5785 0132 00       		.byte	0
 5786 0133 00       		.byte	0
 5787 0134 1B       		.uleb128 0x1b
 5788 0135 04       		.uleb128 0x4
 5789 0136 01       		.byte	0x1
 5790 0137 0B       		.uleb128 0xb
 5791 0138 0B       		.uleb128 0xb
 5792 0139 49       		.uleb128 0x49
 5793 013a 13       		.uleb128 0x13
 5794 013b 3A       		.uleb128 0x3a
 5795 013c 0B       		.uleb128 0xb
 5796 013d 3B       		.uleb128 0x3b
 5797 013e 0B       		.uleb128 0xb
 5798 013f 01       		.uleb128 0x1
 5799 0140 13       		.uleb128 0x13
 5800 0141 00       		.byte	0
 5801 0142 00       		.byte	0
 5802 0143 1C       		.uleb128 0x1c
 5803 0144 17       		.uleb128 0x17
 5804 0145 01       		.byte	0x1
 5805 0146 0B       		.uleb128 0xb
 5806 0147 0B       		.uleb128 0xb
 5807 0148 3A       		.uleb128 0x3a
 5808 0149 0B       		.uleb128 0xb
 5809 014a 3B       		.uleb128 0x3b
 5810 014b 0B       		.uleb128 0xb
 5811 014c 01       		.uleb128 0x1
 5812 014d 13       		.uleb128 0x13
 5813 014e 00       		.byte	0
 5814 014f 00       		.byte	0
 5815 0150 1D       		.uleb128 0x1d
 5816 0151 0D       		.uleb128 0xd
 5817 0152 00       		.byte	0
 5818 0153 03       		.uleb128 0x3
 5819 0154 0E       		.uleb128 0xe
 5820 0155 3A       		.uleb128 0x3a
 5821 0156 0B       		.uleb128 0xb
 5822 0157 3B       		.uleb128 0x3b
 5823 0158 0B       		.uleb128 0xb
 5824 0159 49       		.uleb128 0x49
 5825 015a 13       		.uleb128 0x13
 5826 015b 00       		.byte	0
 5827 015c 00       		.byte	0
 5828 015d 1E       		.uleb128 0x1e
 5829 015e 2E       		.uleb128 0x2e
 5830 015f 01       		.byte	0x1
 5831 0160 03       		.uleb128 0x3
 5832 0161 0E       		.uleb128 0xe
 5833 0162 3A       		.uleb128 0x3a
 5834 0163 0B       		.uleb128 0xb
 5835 0164 3B       		.uleb128 0x3b
ARM GAS  C:\Users\User\AppData\Local\Temp\ccsn8eRz.s 			page 136


 5836 0165 05       		.uleb128 0x5
 5837 0166 27       		.uleb128 0x27
 5838 0167 19       		.uleb128 0x19
 5839 0168 20       		.uleb128 0x20
 5840 0169 0B       		.uleb128 0xb
 5841 016a 01       		.uleb128 0x1
 5842 016b 13       		.uleb128 0x13
 5843 016c 00       		.byte	0
 5844 016d 00       		.byte	0
 5845 016e 1F       		.uleb128 0x1f
 5846 016f 05       		.uleb128 0x5
 5847 0170 00       		.byte	0
 5848 0171 03       		.uleb128 0x3
 5849 0172 0E       		.uleb128 0xe
 5850 0173 3A       		.uleb128 0x3a
 5851 0174 0B       		.uleb128 0xb
 5852 0175 3B       		.uleb128 0x3b
 5853 0176 05       		.uleb128 0x5
 5854 0177 49       		.uleb128 0x49
 5855 0178 13       		.uleb128 0x13
 5856 0179 00       		.byte	0
 5857 017a 00       		.byte	0
 5858 017b 20       		.uleb128 0x20
 5859 017c 2E       		.uleb128 0x2e
 5860 017d 01       		.byte	0x1
 5861 017e 3F       		.uleb128 0x3f
 5862 017f 19       		.uleb128 0x19
 5863 0180 03       		.uleb128 0x3
 5864 0181 0E       		.uleb128 0xe
 5865 0182 3A       		.uleb128 0x3a
 5866 0183 0B       		.uleb128 0xb
 5867 0184 3B       		.uleb128 0x3b
 5868 0185 0B       		.uleb128 0xb
 5869 0186 27       		.uleb128 0x27
 5870 0187 19       		.uleb128 0x19
 5871 0188 11       		.uleb128 0x11
 5872 0189 01       		.uleb128 0x1
 5873 018a 12       		.uleb128 0x12
 5874 018b 06       		.uleb128 0x6
 5875 018c 40       		.uleb128 0x40
 5876 018d 18       		.uleb128 0x18
 5877 018e 9742     		.uleb128 0x2117
 5878 0190 19       		.uleb128 0x19
 5879 0191 01       		.uleb128 0x1
 5880 0192 13       		.uleb128 0x13
 5881 0193 00       		.byte	0
 5882 0194 00       		.byte	0
 5883 0195 21       		.uleb128 0x21
 5884 0196 05       		.uleb128 0x5
 5885 0197 00       		.byte	0
 5886 0198 03       		.uleb128 0x3
 5887 0199 0E       		.uleb128 0xe
 5888 019a 3A       		.uleb128 0x3a
 5889 019b 0B       		.uleb128 0xb
 5890 019c 3B       		.uleb128 0x3b
 5891 019d 0B       		.uleb128 0xb
 5892 019e 49       		.uleb128 0x49
ARM GAS  C:\Users\User\AppData\Local\Temp\ccsn8eRz.s 			page 137


 5893 019f 13       		.uleb128 0x13
 5894 01a0 02       		.uleb128 0x2
 5895 01a1 17       		.uleb128 0x17
 5896 01a2 00       		.byte	0
 5897 01a3 00       		.byte	0
 5898 01a4 22       		.uleb128 0x22
 5899 01a5 1D       		.uleb128 0x1d
 5900 01a6 01       		.byte	0x1
 5901 01a7 31       		.uleb128 0x31
 5902 01a8 13       		.uleb128 0x13
 5903 01a9 11       		.uleb128 0x11
 5904 01aa 01       		.uleb128 0x1
 5905 01ab 12       		.uleb128 0x12
 5906 01ac 06       		.uleb128 0x6
 5907 01ad 58       		.uleb128 0x58
 5908 01ae 0B       		.uleb128 0xb
 5909 01af 59       		.uleb128 0x59
 5910 01b0 0B       		.uleb128 0xb
 5911 01b1 01       		.uleb128 0x1
 5912 01b2 13       		.uleb128 0x13
 5913 01b3 00       		.byte	0
 5914 01b4 00       		.byte	0
 5915 01b5 23       		.uleb128 0x23
 5916 01b6 05       		.uleb128 0x5
 5917 01b7 00       		.byte	0
 5918 01b8 31       		.uleb128 0x31
 5919 01b9 13       		.uleb128 0x13
 5920 01ba 02       		.uleb128 0x2
 5921 01bb 17       		.uleb128 0x17
 5922 01bc 00       		.byte	0
 5923 01bd 00       		.byte	0
 5924 01be 24       		.uleb128 0x24
 5925 01bf 898201   		.uleb128 0x4109
 5926 01c2 01       		.byte	0x1
 5927 01c3 11       		.uleb128 0x11
 5928 01c4 01       		.uleb128 0x1
 5929 01c5 31       		.uleb128 0x31
 5930 01c6 13       		.uleb128 0x13
 5931 01c7 01       		.uleb128 0x1
 5932 01c8 13       		.uleb128 0x13
 5933 01c9 00       		.byte	0
 5934 01ca 00       		.byte	0
 5935 01cb 25       		.uleb128 0x25
 5936 01cc 8A8201   		.uleb128 0x410a
 5937 01cf 00       		.byte	0
 5938 01d0 02       		.uleb128 0x2
 5939 01d1 18       		.uleb128 0x18
 5940 01d2 9142     		.uleb128 0x2111
 5941 01d4 18       		.uleb128 0x18
 5942 01d5 00       		.byte	0
 5943 01d6 00       		.byte	0
 5944 01d7 26       		.uleb128 0x26
 5945 01d8 898201   		.uleb128 0x4109
 5946 01db 00       		.byte	0
 5947 01dc 11       		.uleb128 0x11
 5948 01dd 01       		.uleb128 0x1
 5949 01de 31       		.uleb128 0x31
ARM GAS  C:\Users\User\AppData\Local\Temp\ccsn8eRz.s 			page 138


 5950 01df 13       		.uleb128 0x13
 5951 01e0 00       		.byte	0
 5952 01e1 00       		.byte	0
 5953 01e2 27       		.uleb128 0x27
 5954 01e3 898201   		.uleb128 0x4109
 5955 01e6 01       		.byte	0x1
 5956 01e7 11       		.uleb128 0x11
 5957 01e8 01       		.uleb128 0x1
 5958 01e9 31       		.uleb128 0x31
 5959 01ea 13       		.uleb128 0x13
 5960 01eb 00       		.byte	0
 5961 01ec 00       		.byte	0
 5962 01ed 28       		.uleb128 0x28
 5963 01ee 2E       		.uleb128 0x2e
 5964 01ef 01       		.byte	0x1
 5965 01f0 3F       		.uleb128 0x3f
 5966 01f1 19       		.uleb128 0x19
 5967 01f2 03       		.uleb128 0x3
 5968 01f3 0E       		.uleb128 0xe
 5969 01f4 3A       		.uleb128 0x3a
 5970 01f5 0B       		.uleb128 0xb
 5971 01f6 3B       		.uleb128 0x3b
 5972 01f7 0B       		.uleb128 0xb
 5973 01f8 27       		.uleb128 0x27
 5974 01f9 19       		.uleb128 0x19
 5975 01fa 49       		.uleb128 0x49
 5976 01fb 13       		.uleb128 0x13
 5977 01fc 11       		.uleb128 0x11
 5978 01fd 01       		.uleb128 0x1
 5979 01fe 12       		.uleb128 0x12
 5980 01ff 06       		.uleb128 0x6
 5981 0200 40       		.uleb128 0x40
 5982 0201 18       		.uleb128 0x18
 5983 0202 9742     		.uleb128 0x2117
 5984 0204 19       		.uleb128 0x19
 5985 0205 01       		.uleb128 0x1
 5986 0206 13       		.uleb128 0x13
 5987 0207 00       		.byte	0
 5988 0208 00       		.byte	0
 5989 0209 29       		.uleb128 0x29
 5990 020a 34       		.uleb128 0x34
 5991 020b 00       		.byte	0
 5992 020c 03       		.uleb128 0x3
 5993 020d 0E       		.uleb128 0xe
 5994 020e 3A       		.uleb128 0x3a
 5995 020f 0B       		.uleb128 0xb
 5996 0210 3B       		.uleb128 0x3b
 5997 0211 0B       		.uleb128 0xb
 5998 0212 49       		.uleb128 0x49
 5999 0213 13       		.uleb128 0x13
 6000 0214 02       		.uleb128 0x2
 6001 0215 18       		.uleb128 0x18
 6002 0216 00       		.byte	0
 6003 0217 00       		.byte	0
 6004 0218 2A       		.uleb128 0x2a
 6005 0219 2E       		.uleb128 0x2e
 6006 021a 01       		.byte	0x1
ARM GAS  C:\Users\User\AppData\Local\Temp\ccsn8eRz.s 			page 139


 6007 021b 3F       		.uleb128 0x3f
 6008 021c 19       		.uleb128 0x19
 6009 021d 03       		.uleb128 0x3
 6010 021e 0E       		.uleb128 0xe
 6011 021f 3A       		.uleb128 0x3a
 6012 0220 0B       		.uleb128 0xb
 6013 0221 3B       		.uleb128 0x3b
 6014 0222 05       		.uleb128 0x5
 6015 0223 27       		.uleb128 0x27
 6016 0224 19       		.uleb128 0x19
 6017 0225 49       		.uleb128 0x49
 6018 0226 13       		.uleb128 0x13
 6019 0227 11       		.uleb128 0x11
 6020 0228 01       		.uleb128 0x1
 6021 0229 12       		.uleb128 0x12
 6022 022a 06       		.uleb128 0x6
 6023 022b 40       		.uleb128 0x40
 6024 022c 18       		.uleb128 0x18
 6025 022d 9742     		.uleb128 0x2117
 6026 022f 19       		.uleb128 0x19
 6027 0230 01       		.uleb128 0x1
 6028 0231 13       		.uleb128 0x13
 6029 0232 00       		.byte	0
 6030 0233 00       		.byte	0
 6031 0234 2B       		.uleb128 0x2b
 6032 0235 34       		.uleb128 0x34
 6033 0236 00       		.byte	0
 6034 0237 03       		.uleb128 0x3
 6035 0238 0E       		.uleb128 0xe
 6036 0239 3A       		.uleb128 0x3a
 6037 023a 0B       		.uleb128 0xb
 6038 023b 3B       		.uleb128 0x3b
 6039 023c 05       		.uleb128 0x5
 6040 023d 49       		.uleb128 0x49
 6041 023e 13       		.uleb128 0x13
 6042 023f 02       		.uleb128 0x2
 6043 0240 17       		.uleb128 0x17
 6044 0241 00       		.byte	0
 6045 0242 00       		.byte	0
 6046 0243 2C       		.uleb128 0x2c
 6047 0244 2E       		.uleb128 0x2e
 6048 0245 01       		.byte	0x1
 6049 0246 3F       		.uleb128 0x3f
 6050 0247 19       		.uleb128 0x19
 6051 0248 03       		.uleb128 0x3
 6052 0249 0E       		.uleb128 0xe
 6053 024a 3A       		.uleb128 0x3a
 6054 024b 0B       		.uleb128 0xb
 6055 024c 3B       		.uleb128 0x3b
 6056 024d 05       		.uleb128 0x5
 6057 024e 27       		.uleb128 0x27
 6058 024f 19       		.uleb128 0x19
 6059 0250 11       		.uleb128 0x11
 6060 0251 01       		.uleb128 0x1
 6061 0252 12       		.uleb128 0x12
 6062 0253 06       		.uleb128 0x6
 6063 0254 40       		.uleb128 0x40
ARM GAS  C:\Users\User\AppData\Local\Temp\ccsn8eRz.s 			page 140


 6064 0255 18       		.uleb128 0x18
 6065 0256 9742     		.uleb128 0x2117
 6066 0258 19       		.uleb128 0x19
 6067 0259 01       		.uleb128 0x1
 6068 025a 13       		.uleb128 0x13
 6069 025b 00       		.byte	0
 6070 025c 00       		.byte	0
 6071 025d 2D       		.uleb128 0x2d
 6072 025e 05       		.uleb128 0x5
 6073 025f 00       		.byte	0
 6074 0260 03       		.uleb128 0x3
 6075 0261 0E       		.uleb128 0xe
 6076 0262 3A       		.uleb128 0x3a
 6077 0263 0B       		.uleb128 0xb
 6078 0264 3B       		.uleb128 0x3b
 6079 0265 05       		.uleb128 0x5
 6080 0266 49       		.uleb128 0x49
 6081 0267 13       		.uleb128 0x13
 6082 0268 02       		.uleb128 0x2
 6083 0269 18       		.uleb128 0x18
 6084 026a 00       		.byte	0
 6085 026b 00       		.byte	0
 6086 026c 2E       		.uleb128 0x2e
 6087 026d 34       		.uleb128 0x34
 6088 026e 00       		.byte	0
 6089 026f 03       		.uleb128 0x3
 6090 0270 0E       		.uleb128 0xe
 6091 0271 3A       		.uleb128 0x3a
 6092 0272 0B       		.uleb128 0xb
 6093 0273 3B       		.uleb128 0x3b
 6094 0274 05       		.uleb128 0x5
 6095 0275 49       		.uleb128 0x49
 6096 0276 13       		.uleb128 0x13
 6097 0277 02       		.uleb128 0x2
 6098 0278 18       		.uleb128 0x18
 6099 0279 00       		.byte	0
 6100 027a 00       		.byte	0
 6101 027b 2F       		.uleb128 0x2f
 6102 027c 05       		.uleb128 0x5
 6103 027d 00       		.byte	0
 6104 027e 03       		.uleb128 0x3
 6105 027f 0E       		.uleb128 0xe
 6106 0280 3A       		.uleb128 0x3a
 6107 0281 0B       		.uleb128 0xb
 6108 0282 3B       		.uleb128 0x3b
 6109 0283 05       		.uleb128 0x5
 6110 0284 49       		.uleb128 0x49
 6111 0285 13       		.uleb128 0x13
 6112 0286 02       		.uleb128 0x2
 6113 0287 17       		.uleb128 0x17
 6114 0288 00       		.byte	0
 6115 0289 00       		.byte	0
 6116 028a 30       		.uleb128 0x30
 6117 028b 34       		.uleb128 0x34
 6118 028c 00       		.byte	0
 6119 028d 03       		.uleb128 0x3
 6120 028e 08       		.uleb128 0x8
ARM GAS  C:\Users\User\AppData\Local\Temp\ccsn8eRz.s 			page 141


 6121 028f 3A       		.uleb128 0x3a
 6122 0290 0B       		.uleb128 0xb
 6123 0291 3B       		.uleb128 0x3b
 6124 0292 05       		.uleb128 0x5
 6125 0293 49       		.uleb128 0x49
 6126 0294 13       		.uleb128 0x13
 6127 0295 02       		.uleb128 0x2
 6128 0296 17       		.uleb128 0x17
 6129 0297 00       		.byte	0
 6130 0298 00       		.byte	0
 6131 0299 31       		.uleb128 0x31
 6132 029a 1D       		.uleb128 0x1d
 6133 029b 01       		.byte	0x1
 6134 029c 31       		.uleb128 0x31
 6135 029d 13       		.uleb128 0x13
 6136 029e 11       		.uleb128 0x11
 6137 029f 01       		.uleb128 0x1
 6138 02a0 12       		.uleb128 0x12
 6139 02a1 06       		.uleb128 0x6
 6140 02a2 58       		.uleb128 0x58
 6141 02a3 0B       		.uleb128 0xb
 6142 02a4 59       		.uleb128 0x59
 6143 02a5 05       		.uleb128 0x5
 6144 02a6 01       		.uleb128 0x1
 6145 02a7 13       		.uleb128 0x13
 6146 02a8 00       		.byte	0
 6147 02a9 00       		.byte	0
 6148 02aa 32       		.uleb128 0x32
 6149 02ab 34       		.uleb128 0x34
 6150 02ac 00       		.byte	0
 6151 02ad 03       		.uleb128 0x3
 6152 02ae 0E       		.uleb128 0xe
 6153 02af 3A       		.uleb128 0x3a
 6154 02b0 0B       		.uleb128 0xb
 6155 02b1 3B       		.uleb128 0x3b
 6156 02b2 05       		.uleb128 0x5
 6157 02b3 49       		.uleb128 0x49
 6158 02b4 13       		.uleb128 0x13
 6159 02b5 3F       		.uleb128 0x3f
 6160 02b6 19       		.uleb128 0x19
 6161 02b7 3C       		.uleb128 0x3c
 6162 02b8 19       		.uleb128 0x19
 6163 02b9 00       		.byte	0
 6164 02ba 00       		.byte	0
 6165 02bb 33       		.uleb128 0x33
 6166 02bc 34       		.uleb128 0x34
 6167 02bd 00       		.byte	0
 6168 02be 03       		.uleb128 0x3
 6169 02bf 0E       		.uleb128 0xe
 6170 02c0 3A       		.uleb128 0x3a
 6171 02c1 0B       		.uleb128 0xb
 6172 02c2 3B       		.uleb128 0x3b
 6173 02c3 0B       		.uleb128 0xb
 6174 02c4 49       		.uleb128 0x49
 6175 02c5 13       		.uleb128 0x13
 6176 02c6 3F       		.uleb128 0x3f
 6177 02c7 19       		.uleb128 0x19
ARM GAS  C:\Users\User\AppData\Local\Temp\ccsn8eRz.s 			page 142


 6178 02c8 3C       		.uleb128 0x3c
 6179 02c9 19       		.uleb128 0x19
 6180 02ca 00       		.byte	0
 6181 02cb 00       		.byte	0
 6182 02cc 34       		.uleb128 0x34
 6183 02cd 34       		.uleb128 0x34
 6184 02ce 00       		.byte	0
 6185 02cf 03       		.uleb128 0x3
 6186 02d0 0E       		.uleb128 0xe
 6187 02d1 3A       		.uleb128 0x3a
 6188 02d2 0B       		.uleb128 0xb
 6189 02d3 3B       		.uleb128 0x3b
 6190 02d4 0B       		.uleb128 0xb
 6191 02d5 49       		.uleb128 0x49
 6192 02d6 13       		.uleb128 0x13
 6193 02d7 3F       		.uleb128 0x3f
 6194 02d8 19       		.uleb128 0x19
 6195 02d9 02       		.uleb128 0x2
 6196 02da 18       		.uleb128 0x18
 6197 02db 00       		.byte	0
 6198 02dc 00       		.byte	0
 6199 02dd 35       		.uleb128 0x35
 6200 02de 2E       		.uleb128 0x2e
 6201 02df 00       		.byte	0
 6202 02e0 3F       		.uleb128 0x3f
 6203 02e1 19       		.uleb128 0x19
 6204 02e2 3C       		.uleb128 0x3c
 6205 02e3 19       		.uleb128 0x19
 6206 02e4 6E       		.uleb128 0x6e
 6207 02e5 0E       		.uleb128 0xe
 6208 02e6 03       		.uleb128 0x3
 6209 02e7 0E       		.uleb128 0xe
 6210 02e8 3A       		.uleb128 0x3a
 6211 02e9 0B       		.uleb128 0xb
 6212 02ea 3B       		.uleb128 0x3b
 6213 02eb 0B       		.uleb128 0xb
 6214 02ec 00       		.byte	0
 6215 02ed 00       		.byte	0
 6216 02ee 36       		.uleb128 0x36
 6217 02ef 2E       		.uleb128 0x2e
 6218 02f0 00       		.byte	0
 6219 02f1 3F       		.uleb128 0x3f
 6220 02f2 19       		.uleb128 0x19
 6221 02f3 3C       		.uleb128 0x3c
 6222 02f4 19       		.uleb128 0x19
 6223 02f5 6E       		.uleb128 0x6e
 6224 02f6 0E       		.uleb128 0xe
 6225 02f7 03       		.uleb128 0x3
 6226 02f8 0E       		.uleb128 0xe
 6227 02f9 00       		.byte	0
 6228 02fa 00       		.byte	0
 6229 02fb 37       		.uleb128 0x37
 6230 02fc 2E       		.uleb128 0x2e
 6231 02fd 00       		.byte	0
 6232 02fe 3F       		.uleb128 0x3f
 6233 02ff 19       		.uleb128 0x19
 6234 0300 3C       		.uleb128 0x3c
ARM GAS  C:\Users\User\AppData\Local\Temp\ccsn8eRz.s 			page 143


 6235 0301 19       		.uleb128 0x19
 6236 0302 6E       		.uleb128 0x6e
 6237 0303 0E       		.uleb128 0xe
 6238 0304 03       		.uleb128 0x3
 6239 0305 0E       		.uleb128 0xe
 6240 0306 3A       		.uleb128 0x3a
 6241 0307 0B       		.uleb128 0xb
 6242 0308 3B       		.uleb128 0x3b
 6243 0309 05       		.uleb128 0x5
 6244 030a 00       		.byte	0
 6245 030b 00       		.byte	0
 6246 030c 00       		.byte	0
 6247              		.section	.debug_loc,"",%progbits
 6248              	.Ldebug_loc0:
 6249              	.LLST0:
 6250 0000 00000000 		.4byte	.LVL0
 6251 0004 12000000 		.4byte	.LVL3
 6252 0008 0100     		.2byte	0x1
 6253 000a 50       		.byte	0x50
 6254 000b 12000000 		.4byte	.LVL3
 6255 000f 4C000000 		.4byte	.LFE647
 6256 0013 0400     		.2byte	0x4
 6257 0015 F3       		.byte	0xf3
 6258 0016 01       		.uleb128 0x1
 6259 0017 50       		.byte	0x50
 6260 0018 9F       		.byte	0x9f
 6261 0019 00000000 		.4byte	0
 6262 001d 00000000 		.4byte	0
 6263              	.LLST1:
 6264 0021 00000000 		.4byte	.LVL0
 6265 0025 15000000 		.4byte	.LVL4-1
 6266 0029 0100     		.2byte	0x1
 6267 002b 51       		.byte	0x51
 6268 002c 15000000 		.4byte	.LVL4-1
 6269 0030 2A000000 		.4byte	.LVL10
 6270 0034 0100     		.2byte	0x1
 6271 0036 56       		.byte	0x56
 6272 0037 2A000000 		.4byte	.LVL10
 6273 003b 34000000 		.4byte	.LVL12
 6274 003f 0100     		.2byte	0x1
 6275 0041 57       		.byte	0x57
 6276 0042 34000000 		.4byte	.LVL12
 6277 0046 46000000 		.4byte	.LVL16
 6278 004a 0100     		.2byte	0x1
 6279 004c 56       		.byte	0x56
 6280 004d 00000000 		.4byte	0
 6281 0051 00000000 		.4byte	0
 6282              	.LLST2:
 6283 0055 00000000 		.4byte	.LVL0
 6284 0059 15000000 		.4byte	.LVL4-1
 6285 005d 0100     		.2byte	0x1
 6286 005f 52       		.byte	0x52
 6287 0060 15000000 		.4byte	.LVL4-1
 6288 0064 28000000 		.4byte	.LVL9
 6289 0068 0400     		.2byte	0x4
 6290 006a F3       		.byte	0xf3
 6291 006b 01       		.uleb128 0x1
ARM GAS  C:\Users\User\AppData\Local\Temp\ccsn8eRz.s 			page 144


 6292 006c 52       		.byte	0x52
 6293 006d 9F       		.byte	0x9f
 6294 006e 28000000 		.4byte	.LVL9
 6295 0072 34000000 		.4byte	.LVL12
 6296 0076 0100     		.2byte	0x1
 6297 0078 54       		.byte	0x54
 6298 0079 34000000 		.4byte	.LVL12
 6299 007d 38000000 		.4byte	.LVL13
 6300 0081 0100     		.2byte	0x1
 6301 0083 55       		.byte	0x55
 6302 0084 38000000 		.4byte	.LVL13
 6303 0088 46000000 		.4byte	.LVL16
 6304 008c 0100     		.2byte	0x1
 6305 008e 54       		.byte	0x54
 6306 008f 00000000 		.4byte	0
 6307 0093 00000000 		.4byte	0
 6308              	.LLST3:
 6309 0097 0A000000 		.4byte	.LVL1
 6310 009b 10000000 		.4byte	.LVL2
 6311 009f 0200     		.2byte	0x2
 6312 00a1 30       		.byte	0x30
 6313 00a2 9F       		.byte	0x9f
 6314 00a3 00000000 		.4byte	0
 6315 00a7 00000000 		.4byte	0
 6316              	.LLST4:
 6317 00ab 0A000000 		.4byte	.LVL1
 6318 00af 10000000 		.4byte	.LVL2
 6319 00b3 0200     		.2byte	0x2
 6320 00b5 33       		.byte	0x33
 6321 00b6 9F       		.byte	0x9f
 6322 00b7 00000000 		.4byte	0
 6323 00bb 00000000 		.4byte	0
 6324              	.LLST5:
 6325 00bf 0A000000 		.4byte	.LVL1
 6326 00c3 10000000 		.4byte	.LVL2
 6327 00c7 0600     		.2byte	0x6
 6328 00c9 0C       		.byte	0xc
 6329 00ca 00063240 		.4byte	0x40320600
 6330 00ce 9F       		.byte	0x9f
 6331 00cf 00000000 		.4byte	0
 6332 00d3 00000000 		.4byte	0
 6333              	.LLST6:
 6334 00d7 1C000000 		.4byte	.LVL5
 6335 00db 1E000000 		.4byte	.LVL6
 6336 00df 0200     		.2byte	0x2
 6337 00e1 31       		.byte	0x31
 6338 00e2 9F       		.byte	0x9f
 6339 00e3 00000000 		.4byte	0
 6340 00e7 00000000 		.4byte	0
 6341              	.LLST7:
 6342 00eb 1C000000 		.4byte	.LVL5
 6343 00ef 1E000000 		.4byte	.LVL6
 6344 00f3 0200     		.2byte	0x2
 6345 00f5 33       		.byte	0x33
 6346 00f6 9F       		.byte	0x9f
 6347 00f7 00000000 		.4byte	0
 6348 00fb 00000000 		.4byte	0
ARM GAS  C:\Users\User\AppData\Local\Temp\ccsn8eRz.s 			page 145


 6349              	.LLST8:
 6350 00ff 1C000000 		.4byte	.LVL5
 6351 0103 1E000000 		.4byte	.LVL6
 6352 0107 0600     		.2byte	0x6
 6353 0109 0C       		.byte	0xc
 6354 010a 00063240 		.4byte	0x40320600
 6355 010e 9F       		.byte	0x9f
 6356 010f 00000000 		.4byte	0
 6357 0113 00000000 		.4byte	0
 6358              	.LLST9:
 6359 0117 1E000000 		.4byte	.LVL6
 6360 011b 20000000 		.4byte	.LVL7
 6361 011f 0200     		.2byte	0x2
 6362 0121 30       		.byte	0x30
 6363 0122 9F       		.byte	0x9f
 6364 0123 00000000 		.4byte	0
 6365 0127 00000000 		.4byte	0
 6366              	.LLST10:
 6367 012b 1E000000 		.4byte	.LVL6
 6368 012f 20000000 		.4byte	.LVL7
 6369 0133 0200     		.2byte	0x2
 6370 0135 33       		.byte	0x33
 6371 0136 9F       		.byte	0x9f
 6372 0137 00000000 		.4byte	0
 6373 013b 00000000 		.4byte	0
 6374              	.LLST11:
 6375 013f 1E000000 		.4byte	.LVL6
 6376 0143 20000000 		.4byte	.LVL7
 6377 0147 0600     		.2byte	0x6
 6378 0149 0C       		.byte	0xc
 6379 014a 00063240 		.4byte	0x40320600
 6380 014e 9F       		.byte	0x9f
 6381 014f 00000000 		.4byte	0
 6382 0153 00000000 		.4byte	0
 6383              	.LLST12:
 6384 0157 3C000000 		.4byte	.LVL14
 6385 015b 42000000 		.4byte	.LVL15
 6386 015f 0200     		.2byte	0x2
 6387 0161 31       		.byte	0x31
 6388 0162 9F       		.byte	0x9f
 6389 0163 00000000 		.4byte	0
 6390 0167 00000000 		.4byte	0
 6391              	.LLST13:
 6392 016b 3C000000 		.4byte	.LVL14
 6393 016f 42000000 		.4byte	.LVL15
 6394 0173 0200     		.2byte	0x2
 6395 0175 33       		.byte	0x33
 6396 0176 9F       		.byte	0x9f
 6397 0177 00000000 		.4byte	0
 6398 017b 00000000 		.4byte	0
 6399              	.LLST14:
 6400 017f 3C000000 		.4byte	.LVL14
 6401 0183 42000000 		.4byte	.LVL15
 6402 0187 0600     		.2byte	0x6
 6403 0189 0C       		.byte	0xc
 6404 018a 00063240 		.4byte	0x40320600
 6405 018e 9F       		.byte	0x9f
ARM GAS  C:\Users\User\AppData\Local\Temp\ccsn8eRz.s 			page 146


 6406 018f 00000000 		.4byte	0
 6407 0193 00000000 		.4byte	0
 6408              	.LLST15:
 6409 0197 00000000 		.4byte	.LVL17
 6410 019b 11000000 		.4byte	.LVL19-1
 6411 019f 0100     		.2byte	0x1
 6412 01a1 50       		.byte	0x50
 6413 01a2 11000000 		.4byte	.LVL19-1
 6414 01a6 18000000 		.4byte	.LFE648
 6415 01aa 0400     		.2byte	0x4
 6416 01ac F3       		.byte	0xf3
 6417 01ad 01       		.uleb128 0x1
 6418 01ae 50       		.byte	0x50
 6419 01af 9F       		.byte	0x9f
 6420 01b0 00000000 		.4byte	0
 6421 01b4 00000000 		.4byte	0
 6422              	.LLST16:
 6423 01b8 00000000 		.4byte	.LVL17
 6424 01bc 0E000000 		.4byte	.LVL18
 6425 01c0 0100     		.2byte	0x1
 6426 01c2 51       		.byte	0x51
 6427 01c3 0E000000 		.4byte	.LVL18
 6428 01c7 11000000 		.4byte	.LVL19-1
 6429 01cb 0200     		.2byte	0x2
 6430 01cd 71       		.byte	0x71
 6431 01ce 00       		.sleb128 0
 6432 01cf 11000000 		.4byte	.LVL19-1
 6433 01d3 18000000 		.4byte	.LFE648
 6434 01d7 0200     		.2byte	0x2
 6435 01d9 91       		.byte	0x91
 6436 01da 77       		.sleb128 -9
 6437 01db 00000000 		.4byte	0
 6438 01df 00000000 		.4byte	0
 6439              	.LLST17:
 6440 01e3 00000000 		.4byte	.LVL20
 6441 01e7 0E000000 		.4byte	.LVL23
 6442 01eb 0100     		.2byte	0x1
 6443 01ed 50       		.byte	0x50
 6444 01ee 0E000000 		.4byte	.LVL23
 6445 01f2 30000000 		.4byte	.LFE649
 6446 01f6 0400     		.2byte	0x4
 6447 01f8 F3       		.byte	0xf3
 6448 01f9 01       		.uleb128 0x1
 6449 01fa 50       		.byte	0x50
 6450 01fb 9F       		.byte	0x9f
 6451 01fc 00000000 		.4byte	0
 6452 0200 00000000 		.4byte	0
 6453              	.LLST18:
 6454 0204 00000000 		.4byte	.LVL20
 6455 0208 11000000 		.4byte	.LVL24-1
 6456 020c 0100     		.2byte	0x1
 6457 020e 51       		.byte	0x51
 6458 020f 11000000 		.4byte	.LVL24-1
 6459 0213 30000000 		.4byte	.LFE649
 6460 0217 0400     		.2byte	0x4
 6461 0219 F3       		.byte	0xf3
 6462 021a 01       		.uleb128 0x1
ARM GAS  C:\Users\User\AppData\Local\Temp\ccsn8eRz.s 			page 147


 6463 021b 51       		.byte	0x51
 6464 021c 9F       		.byte	0x9f
 6465 021d 00000000 		.4byte	0
 6466 0221 00000000 		.4byte	0
 6467              	.LLST19:
 6468 0225 06000000 		.4byte	.LVL21
 6469 0229 0C000000 		.4byte	.LVL22
 6470 022d 0200     		.2byte	0x2
 6471 022f 30       		.byte	0x30
 6472 0230 9F       		.byte	0x9f
 6473 0231 00000000 		.4byte	0
 6474 0235 00000000 		.4byte	0
 6475              	.LLST20:
 6476 0239 06000000 		.4byte	.LVL21
 6477 023d 0C000000 		.4byte	.LVL22
 6478 0241 0200     		.2byte	0x2
 6479 0243 33       		.byte	0x33
 6480 0244 9F       		.byte	0x9f
 6481 0245 00000000 		.4byte	0
 6482 0249 00000000 		.4byte	0
 6483              	.LLST21:
 6484 024d 06000000 		.4byte	.LVL21
 6485 0251 0C000000 		.4byte	.LVL22
 6486 0255 0600     		.2byte	0x6
 6487 0257 0C       		.byte	0xc
 6488 0258 00063240 		.4byte	0x40320600
 6489 025c 9F       		.byte	0x9f
 6490 025d 00000000 		.4byte	0
 6491 0261 00000000 		.4byte	0
 6492              	.LLST22:
 6493 0265 18000000 		.4byte	.LVL25
 6494 0269 1A000000 		.4byte	.LVL26
 6495 026d 0200     		.2byte	0x2
 6496 026f 31       		.byte	0x31
 6497 0270 9F       		.byte	0x9f
 6498 0271 00000000 		.4byte	0
 6499 0275 00000000 		.4byte	0
 6500              	.LLST23:
 6501 0279 18000000 		.4byte	.LVL25
 6502 027d 1A000000 		.4byte	.LVL26
 6503 0281 0200     		.2byte	0x2
 6504 0283 33       		.byte	0x33
 6505 0284 9F       		.byte	0x9f
 6506 0285 00000000 		.4byte	0
 6507 0289 00000000 		.4byte	0
 6508              	.LLST24:
 6509 028d 18000000 		.4byte	.LVL25
 6510 0291 1A000000 		.4byte	.LVL26
 6511 0295 0600     		.2byte	0x6
 6512 0297 0C       		.byte	0xc
 6513 0298 00063240 		.4byte	0x40320600
 6514 029c 9F       		.byte	0x9f
 6515 029d 00000000 		.4byte	0
 6516 02a1 00000000 		.4byte	0
 6517              	.LLST25:
 6518 02a5 1A000000 		.4byte	.LVL26
 6519 02a9 1C000000 		.4byte	.LVL27
ARM GAS  C:\Users\User\AppData\Local\Temp\ccsn8eRz.s 			page 148


 6520 02ad 0200     		.2byte	0x2
 6521 02af 30       		.byte	0x30
 6522 02b0 9F       		.byte	0x9f
 6523 02b1 00000000 		.4byte	0
 6524 02b5 00000000 		.4byte	0
 6525              	.LLST26:
 6526 02b9 1A000000 		.4byte	.LVL26
 6527 02bd 1C000000 		.4byte	.LVL27
 6528 02c1 0200     		.2byte	0x2
 6529 02c3 33       		.byte	0x33
 6530 02c4 9F       		.byte	0x9f
 6531 02c5 00000000 		.4byte	0
 6532 02c9 00000000 		.4byte	0
 6533              	.LLST27:
 6534 02cd 1A000000 		.4byte	.LVL26
 6535 02d1 1C000000 		.4byte	.LVL27
 6536 02d5 0600     		.2byte	0x6
 6537 02d7 0C       		.byte	0xc
 6538 02d8 00063240 		.4byte	0x40320600
 6539 02dc 9F       		.byte	0x9f
 6540 02dd 00000000 		.4byte	0
 6541 02e1 00000000 		.4byte	0
 6542              	.LLST28:
 6543 02e5 28000000 		.4byte	.LVL29
 6544 02e9 2A000000 		.4byte	.LVL30
 6545 02ed 0200     		.2byte	0x2
 6546 02ef 31       		.byte	0x31
 6547 02f0 9F       		.byte	0x9f
 6548 02f1 00000000 		.4byte	0
 6549 02f5 00000000 		.4byte	0
 6550              	.LLST29:
 6551 02f9 28000000 		.4byte	.LVL29
 6552 02fd 2A000000 		.4byte	.LVL30
 6553 0301 0200     		.2byte	0x2
 6554 0303 33       		.byte	0x33
 6555 0304 9F       		.byte	0x9f
 6556 0305 00000000 		.4byte	0
 6557 0309 00000000 		.4byte	0
 6558              	.LLST30:
 6559 030d 28000000 		.4byte	.LVL29
 6560 0311 2A000000 		.4byte	.LVL30
 6561 0315 0600     		.2byte	0x6
 6562 0317 0C       		.byte	0xc
 6563 0318 00063240 		.4byte	0x40320600
 6564 031c 9F       		.byte	0x9f
 6565 031d 00000000 		.4byte	0
 6566 0321 00000000 		.4byte	0
 6567              	.LLST31:
 6568 0325 02000000 		.4byte	.LVL31
 6569 0329 08000000 		.4byte	.LVL32
 6570 032d 0200     		.2byte	0x2
 6571 032f 30       		.byte	0x30
 6572 0330 9F       		.byte	0x9f
 6573 0331 00000000 		.4byte	0
 6574 0335 00000000 		.4byte	0
 6575              	.LLST32:
 6576 0339 02000000 		.4byte	.LVL31
ARM GAS  C:\Users\User\AppData\Local\Temp\ccsn8eRz.s 			page 149


 6577 033d 08000000 		.4byte	.LVL32
 6578 0341 0200     		.2byte	0x2
 6579 0343 32       		.byte	0x32
 6580 0344 9F       		.byte	0x9f
 6581 0345 00000000 		.4byte	0
 6582 0349 00000000 		.4byte	0
 6583              	.LLST33:
 6584 034d 02000000 		.4byte	.LVL31
 6585 0351 08000000 		.4byte	.LVL32
 6586 0355 0600     		.2byte	0x6
 6587 0357 0C       		.byte	0xc
 6588 0358 00003240 		.4byte	0x40320000
 6589 035c 9F       		.byte	0x9f
 6590 035d 00000000 		.4byte	0
 6591 0361 00000000 		.4byte	0
 6592              	.LLST34:
 6593 0365 08000000 		.4byte	.LVL32
 6594 0369 0E000000 		.4byte	.LVL33
 6595 036d 0200     		.2byte	0x2
 6596 036f 30       		.byte	0x30
 6597 0370 9F       		.byte	0x9f
 6598 0371 00000000 		.4byte	0
 6599 0375 00000000 		.4byte	0
 6600              	.LLST35:
 6601 0379 08000000 		.4byte	.LVL32
 6602 037d 0E000000 		.4byte	.LVL33
 6603 0381 0200     		.2byte	0x2
 6604 0383 36       		.byte	0x36
 6605 0384 9F       		.byte	0x9f
 6606 0385 00000000 		.4byte	0
 6607 0389 00000000 		.4byte	0
 6608              	.LLST36:
 6609 038d 08000000 		.4byte	.LVL32
 6610 0391 0E000000 		.4byte	.LVL33
 6611 0395 0600     		.2byte	0x6
 6612 0397 0C       		.byte	0xc
 6613 0398 80023240 		.4byte	0x40320280
 6614 039c 9F       		.byte	0x9f
 6615 039d 00000000 		.4byte	0
 6616 03a1 00000000 		.4byte	0
 6617              	.LLST37:
 6618 03a5 0E000000 		.4byte	.LVL33
 6619 03a9 12000000 		.4byte	.LVL34
 6620 03ad 0200     		.2byte	0x2
 6621 03af 30       		.byte	0x30
 6622 03b0 9F       		.byte	0x9f
 6623 03b1 00000000 		.4byte	0
 6624 03b5 00000000 		.4byte	0
 6625              	.LLST38:
 6626 03b9 0E000000 		.4byte	.LVL33
 6627 03bd 12000000 		.4byte	.LVL34
 6628 03c1 0200     		.2byte	0x2
 6629 03c3 34       		.byte	0x34
 6630 03c4 9F       		.byte	0x9f
 6631 03c5 00000000 		.4byte	0
 6632 03c9 00000000 		.4byte	0
 6633              	.LLST39:
ARM GAS  C:\Users\User\AppData\Local\Temp\ccsn8eRz.s 			page 150


 6634 03cd 0E000000 		.4byte	.LVL33
 6635 03d1 12000000 		.4byte	.LVL34
 6636 03d5 0600     		.2byte	0x6
 6637 03d7 0C       		.byte	0xc
 6638 03d8 80023240 		.4byte	0x40320280
 6639 03dc 9F       		.byte	0x9f
 6640 03dd 00000000 		.4byte	0
 6641 03e1 00000000 		.4byte	0
 6642              	.LLST40:
 6643 03e5 16000000 		.4byte	.LVL35
 6644 03e9 1C000000 		.4byte	.LVL36
 6645 03ed 0200     		.2byte	0x2
 6646 03ef 30       		.byte	0x30
 6647 03f0 9F       		.byte	0x9f
 6648 03f1 00000000 		.4byte	0
 6649 03f5 00000000 		.4byte	0
 6650              	.LLST41:
 6651 03f9 16000000 		.4byte	.LVL35
 6652 03fd 1C000000 		.4byte	.LVL36
 6653 0401 0200     		.2byte	0x2
 6654 0403 33       		.byte	0x33
 6655 0404 9F       		.byte	0x9f
 6656 0405 00000000 		.4byte	0
 6657 0409 00000000 		.4byte	0
 6658              	.LLST42:
 6659 040d 16000000 		.4byte	.LVL35
 6660 0411 1C000000 		.4byte	.LVL36
 6661 0415 0600     		.2byte	0x6
 6662 0417 0C       		.byte	0xc
 6663 0418 00063240 		.4byte	0x40320600
 6664 041c 9F       		.byte	0x9f
 6665 041d 00000000 		.4byte	0
 6666 0421 00000000 		.4byte	0
 6667              	.LLST43:
 6668 0425 1C000000 		.4byte	.LVL36
 6669 0429 1E000000 		.4byte	.LVL37
 6670 042d 0200     		.2byte	0x2
 6671 042f 30       		.byte	0x30
 6672 0430 9F       		.byte	0x9f
 6673 0431 00000000 		.4byte	0
 6674 0435 00000000 		.4byte	0
 6675              	.LLST44:
 6676 0439 1C000000 		.4byte	.LVL36
 6677 043d 1E000000 		.4byte	.LVL37
 6678 0441 0200     		.2byte	0x2
 6679 0443 32       		.byte	0x32
 6680 0444 9F       		.byte	0x9f
 6681 0445 00000000 		.4byte	0
 6682 0449 00000000 		.4byte	0
 6683              	.LLST45:
 6684 044d 1C000000 		.4byte	.LVL36
 6685 0451 1E000000 		.4byte	.LVL37
 6686 0455 0600     		.2byte	0x6
 6687 0457 0C       		.byte	0xc
 6688 0458 80023240 		.4byte	0x40320280
 6689 045c 9F       		.byte	0x9f
 6690 045d 00000000 		.4byte	0
ARM GAS  C:\Users\User\AppData\Local\Temp\ccsn8eRz.s 			page 151


 6691 0461 00000000 		.4byte	0
 6692              	.LLST46:
 6693 0465 1E000000 		.4byte	.LVL37
 6694 0469 22000000 		.4byte	.LVL38
 6695 046d 0200     		.2byte	0x2
 6696 046f 30       		.byte	0x30
 6697 0470 9F       		.byte	0x9f
 6698 0471 00000000 		.4byte	0
 6699 0475 00000000 		.4byte	0
 6700              	.LLST47:
 6701 0479 1E000000 		.4byte	.LVL37
 6702 047d 22000000 		.4byte	.LVL38
 6703 0481 0200     		.2byte	0x2
 6704 0483 35       		.byte	0x35
 6705 0484 9F       		.byte	0x9f
 6706 0485 00000000 		.4byte	0
 6707 0489 00000000 		.4byte	0
 6708              	.LLST48:
 6709 048d 1E000000 		.4byte	.LVL37
 6710 0491 22000000 		.4byte	.LVL38
 6711 0495 0600     		.2byte	0x6
 6712 0497 0C       		.byte	0xc
 6713 0498 80023240 		.4byte	0x40320280
 6714 049c 9F       		.byte	0x9f
 6715 049d 00000000 		.4byte	0
 6716 04a1 00000000 		.4byte	0
 6717              	.LLST49:
 6718 04a5 02000000 		.4byte	.LVL40
 6719 04a9 A8000000 		.4byte	.LVL58
 6720 04ad 0200     		.2byte	0x2
 6721 04af 30       		.byte	0x30
 6722 04b0 9F       		.byte	0x9f
 6723 04b1 A8000000 		.4byte	.LVL58
 6724 04b5 AA000000 		.4byte	.LVL59
 6725 04b9 0100     		.2byte	0x1
 6726 04bb 53       		.byte	0x53
 6727 04bc AA000000 		.4byte	.LVL59
 6728 04c0 F2000000 		.4byte	.LVL68
 6729 04c4 0100     		.2byte	0x1
 6730 04c6 54       		.byte	0x54
 6731 04c7 F2000000 		.4byte	.LVL68
 6732 04cb FE000000 		.4byte	.LVL70
 6733 04cf 0100     		.2byte	0x1
 6734 04d1 53       		.byte	0x53
 6735 04d2 FE000000 		.4byte	.LVL70
 6736 04d6 0A010000 		.4byte	.LVL71
 6737 04da 0200     		.2byte	0x2
 6738 04dc 30       		.byte	0x30
 6739 04dd 9F       		.byte	0x9f
 6740 04de 0A010000 		.4byte	.LVL71
 6741 04e2 18010000 		.4byte	.LFE651
 6742 04e6 0100     		.2byte	0x1
 6743 04e8 53       		.byte	0x53
 6744 04e9 00000000 		.4byte	0
 6745 04ed 00000000 		.4byte	0
 6746              	.LLST50:
 6747 04f1 00000000 		.4byte	.LVL74
ARM GAS  C:\Users\User\AppData\Local\Temp\ccsn8eRz.s 			page 152


 6748 04f5 23000000 		.4byte	.LVL82-1
 6749 04f9 0100     		.2byte	0x1
 6750 04fb 50       		.byte	0x50
 6751 04fc 23000000 		.4byte	.LVL82-1
 6752 0500 6E000000 		.4byte	.LVL87
 6753 0504 0100     		.2byte	0x1
 6754 0506 56       		.byte	0x56
 6755 0507 6E000000 		.4byte	.LVL87
 6756 050b 72000000 		.4byte	.LVL89
 6757 050f 0300     		.2byte	0x3
 6758 0511 76       		.byte	0x76
 6759 0512 01       		.sleb128 1
 6760 0513 9F       		.byte	0x9f
 6761 0514 72000000 		.4byte	.LVL89
 6762 0518 12040000 		.4byte	.LVL116
 6763 051c 0100     		.2byte	0x1
 6764 051e 56       		.byte	0x56
 6765 051f 00000000 		.4byte	0
 6766 0523 00000000 		.4byte	0
 6767              	.LLST51:
 6768 0527 00000000 		.4byte	.LVL74
 6769 052b 23000000 		.4byte	.LVL82-1
 6770 052f 0100     		.2byte	0x1
 6771 0531 51       		.byte	0x51
 6772 0532 23000000 		.4byte	.LVL82-1
 6773 0536 24040000 		.4byte	.LFE653
 6774 053a 0400     		.2byte	0x4
 6775 053c F3       		.byte	0xf3
 6776 053d 01       		.uleb128 0x1
 6777 053e 51       		.byte	0x51
 6778 053f 9F       		.byte	0x9f
 6779 0540 00000000 		.4byte	0
 6780 0544 00000000 		.4byte	0
 6781              	.LLST52:
 6782 0548 66000000 		.4byte	.LVL85
 6783 054c 6C000000 		.4byte	.LVL86
 6784 0550 0200     		.2byte	0x2
 6785 0552 30       		.byte	0x30
 6786 0553 9F       		.byte	0x9f
 6787 0554 6C000000 		.4byte	.LVL86
 6788 0558 9A030000 		.4byte	.LVL98
 6789 055c 0100     		.2byte	0x1
 6790 055e 53       		.byte	0x53
 6791 055f 9C030000 		.4byte	.LVL99
 6792 0563 A6030000 		.4byte	.LVL101
 6793 0567 0100     		.2byte	0x1
 6794 0569 53       		.byte	0x53
 6795 056a 00000000 		.4byte	0
 6796 056e 00000000 		.4byte	0
 6797              	.LLST53:
 6798 0572 24000000 		.4byte	.LVL82
 6799 0576 2A000000 		.4byte	.LVL83
 6800 057a 0200     		.2byte	0x2
 6801 057c 30       		.byte	0x30
 6802 057d 9F       		.byte	0x9f
 6803 057e 2A000000 		.4byte	.LVL83
 6804 0582 C8030000 		.4byte	.LVL105
ARM GAS  C:\Users\User\AppData\Local\Temp\ccsn8eRz.s 			page 153


 6805 0586 0100     		.2byte	0x1
 6806 0588 58       		.byte	0x58
 6807 0589 CC030000 		.4byte	.LVL106
 6808 058d D4030000 		.4byte	.LVL107
 6809 0591 0100     		.2byte	0x1
 6810 0593 58       		.byte	0x58
 6811 0594 D4030000 		.4byte	.LVL107
 6812 0598 D8030000 		.4byte	.LVL108
 6813 059c 0200     		.2byte	0x2
 6814 059e 30       		.byte	0x30
 6815 059f 9F       		.byte	0x9f
 6816 05a0 D8030000 		.4byte	.LVL108
 6817 05a4 F6030000 		.4byte	.LVL111
 6818 05a8 0100     		.2byte	0x1
 6819 05aa 54       		.byte	0x54
 6820 05ab F8030000 		.4byte	.LVL112
 6821 05af 02040000 		.4byte	.LVL113
 6822 05b3 0100     		.2byte	0x1
 6823 05b5 54       		.byte	0x54
 6824 05b6 00000000 		.4byte	0
 6825 05ba 00000000 		.4byte	0
 6826              	.LLST54:
 6827 05be 66000000 		.4byte	.LVL85
 6828 05c2 6C000000 		.4byte	.LVL86
 6829 05c6 0300     		.2byte	0x3
 6830 05c8 08       		.byte	0x8
 6831 05c9 20       		.byte	0x20
 6832 05ca 9F       		.byte	0x9f
 6833 05cb 6C000000 		.4byte	.LVL86
 6834 05cf 2A010000 		.4byte	.LVL90
 6835 05d3 0100     		.2byte	0x1
 6836 05d5 52       		.byte	0x52
 6837 05d6 2C010000 		.4byte	.LVL91
 6838 05da EC010000 		.4byte	.LVL92
 6839 05de 0100     		.2byte	0x1
 6840 05e0 52       		.byte	0x52
 6841 05e1 EE010000 		.4byte	.LVL93
 6842 05e5 AE020000 		.4byte	.LVL94
 6843 05e9 0100     		.2byte	0x1
 6844 05eb 52       		.byte	0x52
 6845 05ec B0020000 		.4byte	.LVL95
 6846 05f0 7E030000 		.4byte	.LVL96
 6847 05f4 0100     		.2byte	0x1
 6848 05f6 52       		.byte	0x52
 6849 05f7 80030000 		.4byte	.LVL97
 6850 05fb AC030000 		.4byte	.LVL103
 6851 05ff 0100     		.2byte	0x1
 6852 0601 52       		.byte	0x52
 6853 0602 00000000 		.4byte	0
 6854 0606 00000000 		.4byte	0
 6855              	.LLST55:
 6856 060a 08000000 		.4byte	.LVL75
 6857 060e 2A000000 		.4byte	.LVL83
 6858 0612 0200     		.2byte	0x2
 6859 0614 30       		.byte	0x30
 6860 0615 9F       		.byte	0x9f
 6861 0616 A2030000 		.4byte	.LVL100
ARM GAS  C:\Users\User\AppData\Local\Temp\ccsn8eRz.s 			page 154


 6862 061a A8030000 		.4byte	.LVL102
 6863 061e 0600     		.2byte	0x6
 6864 0620 08       		.byte	0x8
 6865 0621 B0       		.byte	0xb0
 6866 0622 78       		.byte	0x78
 6867 0623 00       		.sleb128 0
 6868 0624 1C       		.byte	0x1c
 6869 0625 9F       		.byte	0x9f
 6870 0626 A8030000 		.4byte	.LVL102
 6871 062a AE030000 		.4byte	.LVL104
 6872 062e 0100     		.2byte	0x1
 6873 0630 53       		.byte	0x53
 6874 0631 AE030000 		.4byte	.LVL104
 6875 0635 C8030000 		.4byte	.LVL105
 6876 0639 0600     		.2byte	0x6
 6877 063b 08       		.byte	0x8
 6878 063c AF       		.byte	0xaf
 6879 063d 78       		.byte	0x78
 6880 063e 00       		.sleb128 0
 6881 063f 1C       		.byte	0x1c
 6882 0640 9F       		.byte	0x9f
 6883 0641 C8030000 		.4byte	.LVL105
 6884 0645 CC030000 		.4byte	.LVL106
 6885 0649 0600     		.2byte	0x6
 6886 064b 08       		.byte	0x8
 6887 064c B0       		.byte	0xb0
 6888 064d 78       		.byte	0x78
 6889 064e 00       		.sleb128 0
 6890 064f 1C       		.byte	0x1c
 6891 0650 9F       		.byte	0x9f
 6892 0651 00000000 		.4byte	0
 6893 0655 00000000 		.4byte	0
 6894              	.LLST56:
 6895 0659 0A000000 		.4byte	.LVL76
 6896 065d 16000000 		.4byte	.LVL77
 6897 0661 0100     		.2byte	0x1
 6898 0663 54       		.byte	0x54
 6899 0664 16000000 		.4byte	.LVL77
 6900 0668 18000000 		.4byte	.LVL78
 6901 066c 0200     		.2byte	0x2
 6902 066e 70       		.byte	0x70
 6903 066f 00       		.sleb128 0
 6904 0670 18000000 		.4byte	.LVL78
 6905 0674 1C000000 		.4byte	.LVL79
 6906 0678 0100     		.2byte	0x1
 6907 067a 54       		.byte	0x54
 6908 067b 1C000000 		.4byte	.LVL79
 6909 067f 1E000000 		.4byte	.LVL80
 6910 0683 0200     		.2byte	0x2
 6911 0685 70       		.byte	0x70
 6912 0686 00       		.sleb128 0
 6913 0687 1E000000 		.4byte	.LVL80
 6914 068b D4030000 		.4byte	.LVL107
 6915 068f 0100     		.2byte	0x1
 6916 0691 54       		.byte	0x54
 6917 0692 00000000 		.4byte	0
 6918 0696 00000000 		.4byte	0
ARM GAS  C:\Users\User\AppData\Local\Temp\ccsn8eRz.s 			page 155


 6919              	.LLST57:
 6920 069a 20000000 		.4byte	.LVL81
 6921 069e 12040000 		.4byte	.LVL116
 6922 06a2 0100     		.2byte	0x1
 6923 06a4 57       		.byte	0x57
 6924 06a5 00000000 		.4byte	0
 6925 06a9 00000000 		.4byte	0
 6926              	.LLST58:
 6927 06ad 00000000 		.4byte	.LVL117
 6928 06b1 0B000000 		.4byte	.LVL119-1
 6929 06b5 0100     		.2byte	0x1
 6930 06b7 50       		.byte	0x50
 6931 06b8 0B000000 		.4byte	.LVL119-1
 6932 06bc 5E000000 		.4byte	.LVL125
 6933 06c0 0100     		.2byte	0x1
 6934 06c2 56       		.byte	0x56
 6935 06c3 5E000000 		.4byte	.LVL125
 6936 06c7 7A010000 		.4byte	.LVL135
 6937 06cb 0100     		.2byte	0x1
 6938 06cd 57       		.byte	0x57
 6939 06ce 7A010000 		.4byte	.LVL135
 6940 06d2 16020000 		.4byte	.LVL156
 6941 06d6 0100     		.2byte	0x1
 6942 06d8 56       		.byte	0x56
 6943 06d9 00000000 		.4byte	0
 6944 06dd 00000000 		.4byte	0
 6945              	.LLST59:
 6946 06e1 00000000 		.4byte	.LVL117
 6947 06e5 0B000000 		.4byte	.LVL119-1
 6948 06e9 0100     		.2byte	0x1
 6949 06eb 51       		.byte	0x51
 6950 06ec 0B000000 		.4byte	.LVL119-1
 6951 06f0 62000000 		.4byte	.LVL127
 6952 06f4 0100     		.2byte	0x1
 6953 06f6 55       		.byte	0x55
 6954 06f7 62000000 		.4byte	.LVL127
 6955 06fb 7A010000 		.4byte	.LVL135
 6956 06ff 0100     		.2byte	0x1
 6957 0701 56       		.byte	0x56
 6958 0702 7A010000 		.4byte	.LVL135
 6959 0706 AC010000 		.4byte	.LVL142
 6960 070a 0100     		.2byte	0x1
 6961 070c 55       		.byte	0x55
 6962 070d 00000000 		.4byte	0
 6963 0711 00000000 		.4byte	0
 6964              	.LLST60:
 6965 0715 56000000 		.4byte	.LVL123
 6966 0719 5C000000 		.4byte	.LVL124
 6967 071d 0200     		.2byte	0x2
 6968 071f 30       		.byte	0x30
 6969 0720 9F       		.byte	0x9f
 6970 0721 5C000000 		.4byte	.LVL124
 6971 0725 74010000 		.4byte	.LVL133
 6972 0729 0100     		.2byte	0x1
 6973 072b 51       		.byte	0x51
 6974 072c 76010000 		.4byte	.LVL134
 6975 0730 88010000 		.4byte	.LVL138
ARM GAS  C:\Users\User\AppData\Local\Temp\ccsn8eRz.s 			page 156


 6976 0734 0100     		.2byte	0x1
 6977 0736 51       		.byte	0x51
 6978 0737 00000000 		.4byte	0
 6979 073b 00000000 		.4byte	0
 6980              	.LLST61:
 6981 073f 14000000 		.4byte	.LVL120
 6982 0743 18000000 		.4byte	.LVL121
 6983 0747 0200     		.2byte	0x2
 6984 0749 30       		.byte	0x30
 6985 074a 9F       		.byte	0x9f
 6986 074b 18000000 		.4byte	.LVL121
 6987 074f A4010000 		.4byte	.LVL140
 6988 0753 0100     		.2byte	0x1
 6989 0755 54       		.byte	0x54
 6990 0756 A6010000 		.4byte	.LVL141
 6991 075a AC010000 		.4byte	.LVL142
 6992 075e 0100     		.2byte	0x1
 6993 0760 54       		.byte	0x54
 6994 0761 AC010000 		.4byte	.LVL142
 6995 0765 B0010000 		.4byte	.LVL143
 6996 0769 0200     		.2byte	0x2
 6997 076b 30       		.byte	0x30
 6998 076c 9F       		.byte	0x9f
 6999 076d B0010000 		.4byte	.LVL143
 7000 0771 F2010000 		.4byte	.LVL150
 7001 0775 0100     		.2byte	0x1
 7002 0777 54       		.byte	0x54
 7003 0778 F4010000 		.4byte	.LVL151
 7004 077c FE010000 		.4byte	.LVL152
 7005 0780 0100     		.2byte	0x1
 7006 0782 54       		.byte	0x54
 7007 0783 00000000 		.4byte	0
 7008 0787 00000000 		.4byte	0
 7009              	.LLST62:
 7010 078b 56000000 		.4byte	.LVL123
 7011 078f 5C000000 		.4byte	.LVL124
 7012 0793 0300     		.2byte	0x3
 7013 0795 08       		.byte	0x8
 7014 0796 20       		.byte	0x20
 7015 0797 9F       		.byte	0x9f
 7016 0798 5C000000 		.4byte	.LVL124
 7017 079c 52010000 		.4byte	.LVL131
 7018 07a0 0100     		.2byte	0x1
 7019 07a2 50       		.byte	0x50
 7020 07a3 54010000 		.4byte	.LVL132
 7021 07a7 A6010000 		.4byte	.LVL141
 7022 07ab 0100     		.2byte	0x1
 7023 07ad 50       		.byte	0x50
 7024 07ae 00000000 		.4byte	0
 7025 07b2 00000000 		.4byte	0
 7026              	.LLST63:
 7027 07b6 60000000 		.4byte	.LVL126
 7028 07ba 6E000000 		.4byte	.LVL129
 7029 07be 0100     		.2byte	0x1
 7030 07c0 52       		.byte	0x52
 7031 07c1 6E000000 		.4byte	.LVL129
 7032 07c5 86000000 		.4byte	.LVL130
ARM GAS  C:\Users\User\AppData\Local\Temp\ccsn8eRz.s 			page 157


 7033 07c9 0200     		.2byte	0x2
 7034 07cb 77       		.byte	0x77
 7035 07cc 7F       		.sleb128 -1
 7036 07cd 00000000 		.4byte	0
 7037 07d1 00000000 		.4byte	0
 7038              	.LLST64:
 7039 07d5 66000000 		.4byte	.LVL128
 7040 07d9 7A010000 		.4byte	.LVL135
 7041 07dd 0100     		.2byte	0x1
 7042 07df 59       		.byte	0x59
 7043 07e0 00000000 		.4byte	0
 7044 07e4 00000000 		.4byte	0
 7045              	.LLST65:
 7046 07e8 08000000 		.4byte	.LVL118
 7047 07ec 18000000 		.4byte	.LVL121
 7048 07f0 0200     		.2byte	0x2
 7049 07f2 30       		.byte	0x30
 7050 07f3 9F       		.byte	0x9f
 7051 07f4 80010000 		.4byte	.LVL136
 7052 07f8 86010000 		.4byte	.LVL137
 7053 07fc 0600     		.2byte	0x6
 7054 07fe 08       		.byte	0x8
 7055 07ff B0       		.byte	0xb0
 7056 0800 74       		.byte	0x74
 7057 0801 00       		.sleb128 0
 7058 0802 1C       		.byte	0x1c
 7059 0803 9F       		.byte	0x9f
 7060 0804 86010000 		.4byte	.LVL137
 7061 0808 8C010000 		.4byte	.LVL139
 7062 080c 0100     		.2byte	0x1
 7063 080e 53       		.byte	0x53
 7064 080f 8C010000 		.4byte	.LVL139
 7065 0813 A4010000 		.4byte	.LVL140
 7066 0817 0600     		.2byte	0x6
 7067 0819 08       		.byte	0x8
 7068 081a AF       		.byte	0xaf
 7069 081b 74       		.byte	0x74
 7070 081c 00       		.sleb128 0
 7071 081d 1C       		.byte	0x1c
 7072 081e 9F       		.byte	0x9f
 7073 081f A4010000 		.4byte	.LVL140
 7074 0823 A6010000 		.4byte	.LVL141
 7075 0827 0600     		.2byte	0x6
 7076 0829 08       		.byte	0x8
 7077 082a B0       		.byte	0xb0
 7078 082b 74       		.byte	0x74
 7079 082c 00       		.sleb128 0
 7080 082d 1C       		.byte	0x1c
 7081 082e 9F       		.byte	0x9f
 7082 082f CE010000 		.4byte	.LVL145
 7083 0833 D2010000 		.4byte	.LVL146
 7084 0837 0600     		.2byte	0x6
 7085 0839 08       		.byte	0x8
 7086 083a B0       		.byte	0xb0
 7087 083b 74       		.byte	0x74
 7088 083c 00       		.sleb128 0
 7089 083d 1C       		.byte	0x1c
ARM GAS  C:\Users\User\AppData\Local\Temp\ccsn8eRz.s 			page 158


 7090 083e 9F       		.byte	0x9f
 7091 083f D2010000 		.4byte	.LVL146
 7092 0843 D6010000 		.4byte	.LVL147
 7093 0847 0100     		.2byte	0x1
 7094 0849 53       		.byte	0x53
 7095 084a D6010000 		.4byte	.LVL147
 7096 084e F2010000 		.4byte	.LVL150
 7097 0852 0600     		.2byte	0x6
 7098 0854 08       		.byte	0x8
 7099 0855 AF       		.byte	0xaf
 7100 0856 74       		.byte	0x74
 7101 0857 00       		.sleb128 0
 7102 0858 1C       		.byte	0x1c
 7103 0859 9F       		.byte	0x9f
 7104 085a F2010000 		.4byte	.LVL150
 7105 085e F4010000 		.4byte	.LVL151
 7106 0862 0600     		.2byte	0x6
 7107 0864 08       		.byte	0x8
 7108 0865 B0       		.byte	0xb0
 7109 0866 74       		.byte	0x74
 7110 0867 00       		.sleb128 0
 7111 0868 1C       		.byte	0x1c
 7112 0869 9F       		.byte	0x9f
 7113 086a 00000000 		.4byte	0
 7114 086e 00000000 		.4byte	0
 7115              	.LLST66:
 7116 0872 00000000 		.4byte	.LVL157
 7117 0876 04000000 		.4byte	.LVL158
 7118 087a 0200     		.2byte	0x2
 7119 087c 30       		.byte	0x30
 7120 087d 9F       		.byte	0x9f
 7121 087e 04000000 		.4byte	.LVL158
 7122 0882 12000000 		.4byte	.LVL159
 7123 0886 0100     		.2byte	0x1
 7124 0888 53       		.byte	0x53
 7125 0889 14000000 		.4byte	.LVL160
 7126 088d 1E000000 		.4byte	.LVL161
 7127 0891 0100     		.2byte	0x1
 7128 0893 53       		.byte	0x53
 7129 0894 1E000000 		.4byte	.LVL161
 7130 0898 4A000000 		.4byte	.LVL164
 7131 089c 0100     		.2byte	0x1
 7132 089e 54       		.byte	0x54
 7133 089f 4C000000 		.4byte	.LVL165
 7134 08a3 52000000 		.4byte	.LVL166
 7135 08a7 0100     		.2byte	0x1
 7136 08a9 54       		.byte	0x54
 7137 08aa 00000000 		.4byte	0
 7138 08ae 00000000 		.4byte	0
 7139              	.LLST67:
 7140 08b2 02000000 		.4byte	.LVL167
 7141 08b6 06000000 		.4byte	.LVL168
 7142 08ba 0200     		.2byte	0x2
 7143 08bc 30       		.byte	0x30
 7144 08bd 9F       		.byte	0x9f
 7145 08be 06000000 		.4byte	.LVL168
 7146 08c2 0E000000 		.4byte	.LVL169
ARM GAS  C:\Users\User\AppData\Local\Temp\ccsn8eRz.s 			page 159


 7147 08c6 0100     		.2byte	0x1
 7148 08c8 53       		.byte	0x53
 7149 08c9 10000000 		.4byte	.LVL170
 7150 08cd 1B000000 		.4byte	.LVL171-1
 7151 08d1 0100     		.2byte	0x1
 7152 08d3 53       		.byte	0x53
 7153 08d4 00000000 		.4byte	0
 7154 08d8 00000000 		.4byte	0
 7155              	.LLST68:
 7156 08dc 02000000 		.4byte	.LVL174
 7157 08e0 08000000 		.4byte	.LVL175
 7158 08e4 0200     		.2byte	0x2
 7159 08e6 31       		.byte	0x31
 7160 08e7 9F       		.byte	0x9f
 7161 08e8 00000000 		.4byte	0
 7162 08ec 00000000 		.4byte	0
 7163              	.LLST69:
 7164 08f0 02000000 		.4byte	.LVL174
 7165 08f4 08000000 		.4byte	.LVL175
 7166 08f8 0200     		.2byte	0x2
 7167 08fa 34       		.byte	0x34
 7168 08fb 9F       		.byte	0x9f
 7169 08fc 00000000 		.4byte	0
 7170 0900 00000000 		.4byte	0
 7171              	.LLST70:
 7172 0904 02000000 		.4byte	.LVL174
 7173 0908 08000000 		.4byte	.LVL175
 7174 090c 0600     		.2byte	0x6
 7175 090e 0C       		.byte	0xc
 7176 090f 80023240 		.4byte	0x40320280
 7177 0913 9F       		.byte	0x9f
 7178 0914 00000000 		.4byte	0
 7179 0918 00000000 		.4byte	0
 7180              	.LLST71:
 7181 091c 12000000 		.4byte	.LVL177
 7182 0920 18000000 		.4byte	.LVL178
 7183 0924 0200     		.2byte	0x2
 7184 0926 31       		.byte	0x31
 7185 0927 9F       		.byte	0x9f
 7186 0928 00000000 		.4byte	0
 7187 092c 00000000 		.4byte	0
 7188              	.LLST72:
 7189 0930 12000000 		.4byte	.LVL177
 7190 0934 18000000 		.4byte	.LVL178
 7191 0938 0200     		.2byte	0x2
 7192 093a 33       		.byte	0x33
 7193 093b 9F       		.byte	0x9f
 7194 093c 00000000 		.4byte	0
 7195 0940 00000000 		.4byte	0
 7196              	.LLST73:
 7197 0944 12000000 		.4byte	.LVL177
 7198 0948 18000000 		.4byte	.LVL178
 7199 094c 0600     		.2byte	0x6
 7200 094e 0C       		.byte	0xc
 7201 094f 00063240 		.4byte	0x40320600
 7202 0953 9F       		.byte	0x9f
 7203 0954 00000000 		.4byte	0
ARM GAS  C:\Users\User\AppData\Local\Temp\ccsn8eRz.s 			page 160


 7204 0958 00000000 		.4byte	0
 7205              	.LLST74:
 7206 095c 18000000 		.4byte	.LVL178
 7207 0960 1C000000 		.4byte	.LVL179
 7208 0964 0200     		.2byte	0x2
 7209 0966 31       		.byte	0x31
 7210 0967 9F       		.byte	0x9f
 7211 0968 00000000 		.4byte	0
 7212 096c 00000000 		.4byte	0
 7213              	.LLST75:
 7214 0970 18000000 		.4byte	.LVL178
 7215 0974 1C000000 		.4byte	.LVL179
 7216 0978 0200     		.2byte	0x2
 7217 097a 36       		.byte	0x36
 7218 097b 9F       		.byte	0x9f
 7219 097c 00000000 		.4byte	0
 7220 0980 00000000 		.4byte	0
 7221              	.LLST76:
 7222 0984 18000000 		.4byte	.LVL178
 7223 0988 1C000000 		.4byte	.LVL179
 7224 098c 0600     		.2byte	0x6
 7225 098e 0C       		.byte	0xc
 7226 098f 80023240 		.4byte	0x40320280
 7227 0993 9F       		.byte	0x9f
 7228 0994 00000000 		.4byte	0
 7229 0998 00000000 		.4byte	0
 7230              	.LLST77:
 7231 099c 1C000000 		.4byte	.LVL179
 7232 09a0 20000000 		.4byte	.LVL180
 7233 09a4 0200     		.2byte	0x2
 7234 09a6 31       		.byte	0x31
 7235 09a7 9F       		.byte	0x9f
 7236 09a8 00000000 		.4byte	0
 7237 09ac 00000000 		.4byte	0
 7238              	.LLST78:
 7239 09b0 1C000000 		.4byte	.LVL179
 7240 09b4 20000000 		.4byte	.LVL180
 7241 09b8 0200     		.2byte	0x2
 7242 09ba 32       		.byte	0x32
 7243 09bb 9F       		.byte	0x9f
 7244 09bc 00000000 		.4byte	0
 7245 09c0 00000000 		.4byte	0
 7246              	.LLST79:
 7247 09c4 1C000000 		.4byte	.LVL179
 7248 09c8 20000000 		.4byte	.LVL180
 7249 09cc 0600     		.2byte	0x6
 7250 09ce 0C       		.byte	0xc
 7251 09cf 80023240 		.4byte	0x40320280
 7252 09d3 9F       		.byte	0x9f
 7253 09d4 00000000 		.4byte	0
 7254 09d8 00000000 		.4byte	0
 7255              	.LLST80:
 7256 09dc 26000000 		.4byte	.LVL181
 7257 09e0 28000000 		.4byte	.LVL182
 7258 09e4 0200     		.2byte	0x2
 7259 09e6 30       		.byte	0x30
 7260 09e7 9F       		.byte	0x9f
ARM GAS  C:\Users\User\AppData\Local\Temp\ccsn8eRz.s 			page 161


 7261 09e8 00000000 		.4byte	0
 7262 09ec 00000000 		.4byte	0
 7263              	.LLST81:
 7264 09f0 26000000 		.4byte	.LVL181
 7265 09f4 28000000 		.4byte	.LVL182
 7266 09f8 0200     		.2byte	0x2
 7267 09fa 32       		.byte	0x32
 7268 09fb 9F       		.byte	0x9f
 7269 09fc 00000000 		.4byte	0
 7270 0a00 00000000 		.4byte	0
 7271              	.LLST82:
 7272 0a04 26000000 		.4byte	.LVL181
 7273 0a08 28000000 		.4byte	.LVL182
 7274 0a0c 0600     		.2byte	0x6
 7275 0a0e 0C       		.byte	0xc
 7276 0a0f 80023240 		.4byte	0x40320280
 7277 0a13 9F       		.byte	0x9f
 7278 0a14 00000000 		.4byte	0
 7279 0a18 00000000 		.4byte	0
 7280              	.LLST83:
 7281 0a1c 2E000000 		.4byte	.LVL183
 7282 0a20 30000000 		.4byte	.LVL184
 7283 0a24 0200     		.2byte	0x2
 7284 0a26 31       		.byte	0x31
 7285 0a27 9F       		.byte	0x9f
 7286 0a28 00000000 		.4byte	0
 7287 0a2c 00000000 		.4byte	0
 7288              	.LLST84:
 7289 0a30 2E000000 		.4byte	.LVL183
 7290 0a34 30000000 		.4byte	.LVL184
 7291 0a38 0200     		.2byte	0x2
 7292 0a3a 32       		.byte	0x32
 7293 0a3b 9F       		.byte	0x9f
 7294 0a3c 00000000 		.4byte	0
 7295 0a40 00000000 		.4byte	0
 7296              	.LLST85:
 7297 0a44 2E000000 		.4byte	.LVL183
 7298 0a48 30000000 		.4byte	.LVL184
 7299 0a4c 0600     		.2byte	0x6
 7300 0a4e 0C       		.byte	0xc
 7301 0a4f 80023240 		.4byte	0x40320280
 7302 0a53 9F       		.byte	0x9f
 7303 0a54 00000000 		.4byte	0
 7304 0a58 00000000 		.4byte	0
 7305              	.LLST86:
 7306 0a5c 10000000 		.4byte	.LVL189
 7307 0a60 16000000 		.4byte	.LVL190
 7308 0a64 0200     		.2byte	0x2
 7309 0a66 30       		.byte	0x30
 7310 0a67 9F       		.byte	0x9f
 7311 0a68 00000000 		.4byte	0
 7312 0a6c 00000000 		.4byte	0
 7313              	.LLST87:
 7314 0a70 10000000 		.4byte	.LVL189
 7315 0a74 16000000 		.4byte	.LVL190
 7316 0a78 0200     		.2byte	0x2
 7317 0a7a 36       		.byte	0x36
ARM GAS  C:\Users\User\AppData\Local\Temp\ccsn8eRz.s 			page 162


 7318 0a7b 9F       		.byte	0x9f
 7319 0a7c 00000000 		.4byte	0
 7320 0a80 00000000 		.4byte	0
 7321              	.LLST88:
 7322 0a84 10000000 		.4byte	.LVL189
 7323 0a88 16000000 		.4byte	.LVL190
 7324 0a8c 0600     		.2byte	0x6
 7325 0a8e 0C       		.byte	0xc
 7326 0a8f 80023240 		.4byte	0x40320280
 7327 0a93 9F       		.byte	0x9f
 7328 0a94 00000000 		.4byte	0
 7329 0a98 00000000 		.4byte	0
 7330              	.LLST89:
 7331 0a9c 1C000000 		.4byte	.LVL191
 7332 0aa0 1E000000 		.4byte	.LVL192
 7333 0aa4 0200     		.2byte	0x2
 7334 0aa6 31       		.byte	0x31
 7335 0aa7 9F       		.byte	0x9f
 7336 0aa8 00000000 		.4byte	0
 7337 0aac 00000000 		.4byte	0
 7338              	.LLST90:
 7339 0ab0 1C000000 		.4byte	.LVL191
 7340 0ab4 1E000000 		.4byte	.LVL192
 7341 0ab8 0200     		.2byte	0x2
 7342 0aba 36       		.byte	0x36
 7343 0abb 9F       		.byte	0x9f
 7344 0abc 00000000 		.4byte	0
 7345 0ac0 00000000 		.4byte	0
 7346              	.LLST91:
 7347 0ac4 1C000000 		.4byte	.LVL191
 7348 0ac8 1E000000 		.4byte	.LVL192
 7349 0acc 0600     		.2byte	0x6
 7350 0ace 0C       		.byte	0xc
 7351 0acf 80023240 		.4byte	0x40320280
 7352 0ad3 9F       		.byte	0x9f
 7353 0ad4 00000000 		.4byte	0
 7354 0ad8 00000000 		.4byte	0
 7355              	.LLST92:
 7356 0adc 74000000 		.4byte	.LVL203
 7357 0ae0 78000000 		.4byte	.LVL204
 7358 0ae4 0200     		.2byte	0x2
 7359 0ae6 30       		.byte	0x30
 7360 0ae7 9F       		.byte	0x9f
 7361 0ae8 00000000 		.4byte	0
 7362 0aec 00000000 		.4byte	0
 7363              	.LLST93:
 7364 0af0 74000000 		.4byte	.LVL203
 7365 0af4 78000000 		.4byte	.LVL204
 7366 0af8 0200     		.2byte	0x2
 7367 0afa 34       		.byte	0x34
 7368 0afb 9F       		.byte	0x9f
 7369 0afc 00000000 		.4byte	0
 7370 0b00 00000000 		.4byte	0
 7371              	.LLST94:
 7372 0b04 74000000 		.4byte	.LVL203
 7373 0b08 78000000 		.4byte	.LVL204
 7374 0b0c 0600     		.2byte	0x6
ARM GAS  C:\Users\User\AppData\Local\Temp\ccsn8eRz.s 			page 163


 7375 0b0e 0C       		.byte	0xc
 7376 0b0f 80023240 		.4byte	0x40320280
 7377 0b13 9F       		.byte	0x9f
 7378 0b14 00000000 		.4byte	0
 7379 0b18 00000000 		.4byte	0
 7380              	.LLST95:
 7381 0b1c 78000000 		.4byte	.LVL204
 7382 0b20 7A000000 		.4byte	.LVL205
 7383 0b24 0200     		.2byte	0x2
 7384 0b26 30       		.byte	0x30
 7385 0b27 9F       		.byte	0x9f
 7386 0b28 00000000 		.4byte	0
 7387 0b2c 00000000 		.4byte	0
 7388              	.LLST96:
 7389 0b30 78000000 		.4byte	.LVL204
 7390 0b34 7A000000 		.4byte	.LVL205
 7391 0b38 0200     		.2byte	0x2
 7392 0b3a 36       		.byte	0x36
 7393 0b3b 9F       		.byte	0x9f
 7394 0b3c 00000000 		.4byte	0
 7395 0b40 00000000 		.4byte	0
 7396              	.LLST97:
 7397 0b44 78000000 		.4byte	.LVL204
 7398 0b48 7A000000 		.4byte	.LVL205
 7399 0b4c 0600     		.2byte	0x6
 7400 0b4e 0C       		.byte	0xc
 7401 0b4f 80023240 		.4byte	0x40320280
 7402 0b53 9F       		.byte	0x9f
 7403 0b54 00000000 		.4byte	0
 7404 0b58 00000000 		.4byte	0
 7405              	.LLST98:
 7406 0b5c 80000000 		.4byte	.LVL206
 7407 0b60 86000000 		.4byte	.LVL207
 7408 0b64 0200     		.2byte	0x2
 7409 0b66 30       		.byte	0x30
 7410 0b67 9F       		.byte	0x9f
 7411 0b68 00000000 		.4byte	0
 7412 0b6c 00000000 		.4byte	0
 7413              	.LLST99:
 7414 0b70 80000000 		.4byte	.LVL206
 7415 0b74 86000000 		.4byte	.LVL207
 7416 0b78 0200     		.2byte	0x2
 7417 0b7a 33       		.byte	0x33
 7418 0b7b 9F       		.byte	0x9f
 7419 0b7c 00000000 		.4byte	0
 7420 0b80 00000000 		.4byte	0
 7421              	.LLST100:
 7422 0b84 80000000 		.4byte	.LVL206
 7423 0b88 86000000 		.4byte	.LVL207
 7424 0b8c 0600     		.2byte	0x6
 7425 0b8e 0C       		.byte	0xc
 7426 0b8f 00063240 		.4byte	0x40320600
 7427 0b93 9F       		.byte	0x9f
 7428 0b94 00000000 		.4byte	0
 7429 0b98 00000000 		.4byte	0
 7430              	.LLST101:
 7431 0b9c 86000000 		.4byte	.LVL207
ARM GAS  C:\Users\User\AppData\Local\Temp\ccsn8eRz.s 			page 164


 7432 0ba0 8A000000 		.4byte	.LVL208
 7433 0ba4 0200     		.2byte	0x2
 7434 0ba6 30       		.byte	0x30
 7435 0ba7 9F       		.byte	0x9f
 7436 0ba8 00000000 		.4byte	0
 7437 0bac 00000000 		.4byte	0
 7438              	.LLST102:
 7439 0bb0 86000000 		.4byte	.LVL207
 7440 0bb4 8A000000 		.4byte	.LVL208
 7441 0bb8 0200     		.2byte	0x2
 7442 0bba 32       		.byte	0x32
 7443 0bbb 9F       		.byte	0x9f
 7444 0bbc 00000000 		.4byte	0
 7445 0bc0 00000000 		.4byte	0
 7446              	.LLST103:
 7447 0bc4 86000000 		.4byte	.LVL207
 7448 0bc8 8A000000 		.4byte	.LVL208
 7449 0bcc 0600     		.2byte	0x6
 7450 0bce 0C       		.byte	0xc
 7451 0bcf 80023240 		.4byte	0x40320280
 7452 0bd3 9F       		.byte	0x9f
 7453 0bd4 00000000 		.4byte	0
 7454 0bd8 00000000 		.4byte	0
 7455              	.LLST104:
 7456 0bdc 8A000000 		.4byte	.LVL208
 7457 0be0 8E000000 		.4byte	.LVL209
 7458 0be4 0200     		.2byte	0x2
 7459 0be6 31       		.byte	0x31
 7460 0be7 9F       		.byte	0x9f
 7461 0be8 00000000 		.4byte	0
 7462 0bec 00000000 		.4byte	0
 7463              	.LLST105:
 7464 0bf0 8A000000 		.4byte	.LVL208
 7465 0bf4 8E000000 		.4byte	.LVL209
 7466 0bf8 0200     		.2byte	0x2
 7467 0bfa 35       		.byte	0x35
 7468 0bfb 9F       		.byte	0x9f
 7469 0bfc 00000000 		.4byte	0
 7470 0c00 00000000 		.4byte	0
 7471              	.LLST106:
 7472 0c04 8A000000 		.4byte	.LVL208
 7473 0c08 8E000000 		.4byte	.LVL209
 7474 0c0c 0600     		.2byte	0x6
 7475 0c0e 0C       		.byte	0xc
 7476 0c0f 80023240 		.4byte	0x40320280
 7477 0c13 9F       		.byte	0x9f
 7478 0c14 00000000 		.4byte	0
 7479 0c18 00000000 		.4byte	0
 7480              	.LLST107:
 7481 0c1c 94000000 		.4byte	.LVL210
 7482 0c20 96000000 		.4byte	.LVL211
 7483 0c24 0200     		.2byte	0x2
 7484 0c26 30       		.byte	0x30
 7485 0c27 9F       		.byte	0x9f
 7486 0c28 00000000 		.4byte	0
 7487 0c2c 00000000 		.4byte	0
 7488              	.LLST108:
ARM GAS  C:\Users\User\AppData\Local\Temp\ccsn8eRz.s 			page 165


 7489 0c30 94000000 		.4byte	.LVL210
 7490 0c34 96000000 		.4byte	.LVL211
 7491 0c38 0200     		.2byte	0x2
 7492 0c3a 35       		.byte	0x35
 7493 0c3b 9F       		.byte	0x9f
 7494 0c3c 00000000 		.4byte	0
 7495 0c40 00000000 		.4byte	0
 7496              	.LLST109:
 7497 0c44 94000000 		.4byte	.LVL210
 7498 0c48 96000000 		.4byte	.LVL211
 7499 0c4c 0600     		.2byte	0x6
 7500 0c4e 0C       		.byte	0xc
 7501 0c4f 80023240 		.4byte	0x40320280
 7502 0c53 9F       		.byte	0x9f
 7503 0c54 00000000 		.4byte	0
 7504 0c58 00000000 		.4byte	0
 7505              		.section	.debug_aranges,"",%progbits
 7506 0000 74000000 		.4byte	0x74
 7507 0004 0200     		.2byte	0x2
 7508 0006 00000000 		.4byte	.Ldebug_info0
 7509 000a 04       		.byte	0x4
 7510 000b 00       		.byte	0
 7511 000c 0000     		.2byte	0
 7512 000e 0000     		.2byte	0
 7513 0010 00000000 		.4byte	.LFB647
 7514 0014 4C000000 		.4byte	.LFE647-.LFB647
 7515 0018 00000000 		.4byte	.LFB648
 7516 001c 18000000 		.4byte	.LFE648-.LFB648
 7517 0020 00000000 		.4byte	.LFB649
 7518 0024 30000000 		.4byte	.LFE649-.LFB649
 7519 0028 00000000 		.4byte	.LFB650
 7520 002c 34000000 		.4byte	.LFE650-.LFB650
 7521 0030 00000000 		.4byte	.LFB651
 7522 0034 18010000 		.4byte	.LFE651-.LFB651
 7523 0038 00000000 		.4byte	.LFB652
 7524 003c 58000000 		.4byte	.LFE652-.LFB652
 7525 0040 00000000 		.4byte	.LFB653
 7526 0044 24040000 		.4byte	.LFE653-.LFB653
 7527 0048 00000000 		.4byte	.LFB654
 7528 004c 28020000 		.4byte	.LFE654-.LFB654
 7529 0050 00000000 		.4byte	.LFB655
 7530 0054 5C000000 		.4byte	.LFE655-.LFB655
 7531 0058 00000000 		.4byte	.LFB656
 7532 005c 34000000 		.4byte	.LFE656-.LFB656
 7533 0060 00000000 		.4byte	.LFB657
 7534 0064 44000000 		.4byte	.LFE657-.LFB657
 7535 0068 00000000 		.4byte	.LFB658
 7536 006c A8000000 		.4byte	.LFE658-.LFB658
 7537 0070 00000000 		.4byte	0
 7538 0074 00000000 		.4byte	0
 7539              		.section	.debug_ranges,"",%progbits
 7540              	.Ldebug_ranges0:
 7541 0000 00000000 		.4byte	.LFB647
 7542 0004 4C000000 		.4byte	.LFE647
 7543 0008 00000000 		.4byte	.LFB648
 7544 000c 18000000 		.4byte	.LFE648
 7545 0010 00000000 		.4byte	.LFB649
ARM GAS  C:\Users\User\AppData\Local\Temp\ccsn8eRz.s 			page 166


 7546 0014 30000000 		.4byte	.LFE649
 7547 0018 00000000 		.4byte	.LFB650
 7548 001c 34000000 		.4byte	.LFE650
 7549 0020 00000000 		.4byte	.LFB651
 7550 0024 18010000 		.4byte	.LFE651
 7551 0028 00000000 		.4byte	.LFB652
 7552 002c 58000000 		.4byte	.LFE652
 7553 0030 00000000 		.4byte	.LFB653
 7554 0034 24040000 		.4byte	.LFE653
 7555 0038 00000000 		.4byte	.LFB654
 7556 003c 28020000 		.4byte	.LFE654
 7557 0040 00000000 		.4byte	.LFB655
 7558 0044 5C000000 		.4byte	.LFE655
 7559 0048 00000000 		.4byte	.LFB656
 7560 004c 34000000 		.4byte	.LFE656
 7561 0050 00000000 		.4byte	.LFB657
 7562 0054 44000000 		.4byte	.LFE657
 7563 0058 00000000 		.4byte	.LFB658
 7564 005c A8000000 		.4byte	.LFE658
 7565 0060 00000000 		.4byte	0
 7566 0064 00000000 		.4byte	0
 7567              		.section	.debug_line,"",%progbits
 7568              	.Ldebug_line0:
 7569 0000 3A090000 		.section	.debug_str,"MS",%progbits,1
 7569      0200BF03 
 7569      00000201 
 7569      FB0E0D00 
 7569      01010101 
 7570              	.LASF320:
 7571 0000 63795F62 		.ascii	"cy_ble_connState\000"
 7571      6C655F63 
 7571      6F6E6E53 
 7571      74617465 
 7571      00
 7572              	.LASF35:
 7573 0011 52455345 		.ascii	"RESERVED\000"
 7573      52564544 
 7573      00
 7574              	.LASF40:
 7575 001a 494E5452 		.ascii	"INTR_CAUSE1\000"
 7575      5F434155 
 7575      53453100 
 7576              	.LASF237:
 7577 0026 43595F42 		.ascii	"CY_BLE_EVT_L2CAP_CBFC_DATA_READ\000"
 7577      4C455F45 
 7577      56545F4C 
 7577      32434150 
 7577      5F434246 
 7578              	.LASF105:
 7579 0046 63795F63 		.ascii	"cy_cb_scb_spi_handle_events_t\000"
 7579      625F7363 
 7579      625F7370 
 7579      695F6861 
 7579      6E646C65 
 7580              	.LASF70:
 7581 0064 73746F70 		.ascii	"stopInputMode\000"
 7581      496E7075 
ARM GAS  C:\Users\User\AppData\Local\Temp\ccsn8eRz.s 			page 167


 7581      744D6F64 
 7581      6500
 7582              	.LASF184:
 7583 0072 43595F42 		.ascii	"CY_BLE_EVT_GAPP_ADVERTISEMENT_START_STOP\000"
 7583      4C455F45 
 7583      56545F47 
 7583      4150505F 
 7583      41445645 
 7584              	.LASF239:
 7585 009b 43595F42 		.ascii	"CY_BLE_EVT_L2CAP_CBFC_TX_CREDIT_IND\000"
 7585      4C455F45 
 7585      56545F4C 
 7585      32434150 
 7585      5F434246 
 7586              	.LASF97:
 7587 00bf 62756653 		.ascii	"bufSize\000"
 7587      697A6500 
 7588              	.LASF276:
 7589 00c7 6C696E65 		.ascii	"lineDataBySize\000"
 7589      44617461 
 7589      42795369 
 7589      7A6500
 7590              	.LASF340:
 7591 00d6 433A5C55 		.ascii	"C:\\Users\\User\\Desktop\\SmartBottle_v0p1\\SmartBo"
 7591      73657273 
 7591      5C557365 
 7591      725C4465 
 7591      736B746F 
 7592 0104 74746C65 		.ascii	"ttle_v0p1.cydsn\000"
 7592      5F763070 
 7592      312E6379 
 7592      64736E00 
 7593              	.LASF315:
 7594 0114 64617461 		.ascii	"dataLineOdd\000"
 7594      4C696E65 
 7594      4F646400 
 7595              	.LASF223:
 7596 0120 43595F42 		.ascii	"CY_BLE_EVT_GATTC_HANDLE_VALUE_NTF\000"
 7596      4C455F45 
 7596      56545F47 
 7596      41545443 
 7596      5F48414E 
 7597              	.LASF321:
 7598 0142 43595F45 		.ascii	"CY_EINK_SPIM_context\000"
 7598      494E4B5F 
 7598      5350494D 
 7598      5F636F6E 
 7598      74657874 
 7599              	.LASF332:
 7600 0157 43795F45 		.ascii	"Cy_EINK_GetTimeTick\000"
 7600      494E4B5F 
 7600      47657454 
 7600      696D6554 
 7600      69636B00 
 7601              	.LASF202:
 7602 016b 43595F42 		.ascii	"CY_BLE_EVT_GAP_CONN_ESTB\000"
 7602      4C455F45 
ARM GAS  C:\Users\User\AppData\Local\Temp\ccsn8eRz.s 			page 168


 7602      56545F47 
 7602      41505F43 
 7602      4F4E4E5F 
 7603              	.LASF293:
 7604 0184 74656D70 		.ascii	"temperature\000"
 7604      65726174 
 7604      75726500 
 7605              	.LASF257:
 7606 0190 43595F42 		.ascii	"CY_BLE_CONN_STATE_CLIENT_DISCOVERED\000"
 7606      4C455F43 
 7606      4F4E4E5F 
 7606      53544154 
 7606      455F434C 
 7607              	.LASF118:
 7608 01b4 74785374 		.ascii	"txStatus\000"
 7608      61747573 
 7608      00
 7609              	.LASF163:
 7610 01bd 43595F42 		.ascii	"CY_BLE_EVT_SET_TX_PWR_COMPLETE\000"
 7610      4C455F45 
 7610      56545F53 
 7610      45545F54 
 7610      585F5057 
 7611              	.LASF78:
 7612 01dc 43595F53 		.ascii	"CY_SCB_EZI2C_STATE_IDLE\000"
 7612      43425F45 
 7612      5A493243 
 7612      5F535441 
 7612      54455F49 
 7613              	.LASF238:
 7614 01f4 43595F42 		.ascii	"CY_BLE_EVT_L2CAP_CBFC_RX_CREDIT_IND\000"
 7614      4C455F45 
 7614      56545F4C 
 7614      32434150 
 7614      5F434246 
 7615              	.LASF0:
 7616 0218 756E7369 		.ascii	"unsigned int\000"
 7616      676E6564 
 7616      20696E74 
 7616      00
 7617              	.LASF319:
 7618 0225 63795F62 		.ascii	"cy_ble_connHandle\000"
 7618      6C655F63 
 7618      6F6E6E48 
 7618      616E646C 
 7618      6500
 7619              	.LASF201:
 7620 0237 43595F42 		.ascii	"CY_BLE_EVT_GAP_CREATE_CONN_CANCEL_COMPLETE\000"
 7620      4C455F45 
 7620      56545F47 
 7620      41505F43 
 7620      52454154 
 7621              	.LASF186:
 7622 0262 43595F42 		.ascii	"CY_BLE_EVT_GAP_DEVICE_DISCONNECTED\000"
 7622      4C455F45 
 7622      56545F47 
 7622      41505F44 
ARM GAS  C:\Users\User\AppData\Local\Temp\ccsn8eRz.s 			page 169


 7622      45564943 
 7623              	.LASF112:
 7624 0285 74784275 		.ascii	"txBufIdx\000"
 7624      66496478 
 7624      00
 7625              	.LASF69:
 7626 028e 73746172 		.ascii	"startInput\000"
 7626      74496E70 
 7626      757400
 7627              	.LASF11:
 7628 0299 5F5F696E 		.ascii	"__int32_t\000"
 7628      7433325F 
 7628      7400
 7629              	.LASF53:
 7630 02a3 696E7431 		.ascii	"int16\000"
 7630      3600
 7631              	.LASF125:
 7632 02a9 63795F73 		.ascii	"cy_stc_scb_uart_context_t\000"
 7632      74635F73 
 7632      63625F75 
 7632      6172745F 
 7632      636F6E74 
 7633              	.LASF32:
 7634 02c3 4346475F 		.ascii	"CFG_IN\000"
 7634      494E00
 7635              	.LASF260:
 7636 02ca 50565F45 		.ascii	"PV_EINK_RES_OK\000"
 7636      494E4B5F 
 7636      5245535F 
 7636      4F4B00
 7637              	.LASF77:
 7638 02d9 63795F65 		.ascii	"cy_en_scb_ezi2c_sub_addr_size_t\000"
 7638      6E5F7363 
 7638      625F657A 
 7638      6932635F 
 7638      7375625F 
 7639              	.LASF212:
 7640 02f9 43595F42 		.ascii	"CY_BLE_EVT_GATTC_FIND_INFO_RSP\000"
 7640      4C455F45 
 7640      56545F47 
 7640      41545443 
 7640      5F46494E 
 7641              	.LASF282:
 7642 0318 72656741 		.ascii	"regAddr\000"
 7642      64647200 
 7643              	.LASF156:
 7644 0320 43595F42 		.ascii	"CY_BLE_EVT_SET_PRIVACY_MODE_COMPLETE\000"
 7644      4C455F45 
 7644      56545F53 
 7644      45545F50 
 7644      52495641 
 7645              	.LASF25:
 7646 0345 4F55545F 		.ascii	"OUT_SET\000"
 7646      53455400 
 7647              	.LASF300:
 7648 034d 626C6163 		.ascii	"blackOrWhiteFrame\000"
 7648      6B4F7257 
ARM GAS  C:\Users\User\AppData\Local\Temp\ccsn8eRz.s 			page 170


 7648      68697465 
 7648      4672616D 
 7648      6500
 7649              	.LASF71:
 7650 035f 73746F70 		.ascii	"stopInput\000"
 7650      496E7075 
 7650      7400
 7651              	.LASF121:
 7652 0369 72785269 		.ascii	"rxRingBufSize\000"
 7652      6E674275 
 7652      6653697A 
 7652      6500
 7653              	.LASF216:
 7654 0377 43595F42 		.ascii	"CY_BLE_EVT_GATTC_READ_MULTI_RSP\000"
 7654      4C455F45 
 7654      56545F47 
 7654      41545443 
 7654      5F524541 
 7655              	.LASF206:
 7656 0397 43595F42 		.ascii	"CY_BLE_EVT_GATT_CONNECT_IND\000"
 7656      4C455F45 
 7656      56545F47 
 7656      4154545F 
 7656      434F4E4E 
 7657              	.LASF298:
 7658 03b3 7363616E 		.ascii	"scanlineNumber\000"
 7658      6C696E65 
 7658      4E756D62 
 7658      657200
 7659              	.LASF100:
 7660 03c2 62756631 		.ascii	"buf1rwBondary\000"
 7660      7277426F 
 7660      6E646172 
 7660      7900
 7661              	.LASF30:
 7662 03d0 494E5452 		.ascii	"INTR_SET\000"
 7662      5F534554 
 7662      00
 7663              	.LASF245:
 7664 03d9 43595F42 		.ascii	"CY_BLE_ADV_STATE_STOPPED\000"
 7664      4C455F41 
 7664      44565F53 
 7664      54415445 
 7664      5F53544F 
 7665              	.LASF295:
 7666 03f2 50765F45 		.ascii	"Pv_EINK_FullStageHandler\000"
 7666      494E4B5F 
 7666      46756C6C 
 7666      53746167 
 7666      6548616E 
 7667              	.LASF213:
 7668 040b 43595F42 		.ascii	"CY_BLE_EVT_GATTC_FIND_BY_TYPE_VALUE_RSP\000"
 7668      4C455F45 
 7668      56545F47 
 7668      41545443 
 7668      5F46494E 
 7669              	.LASF154:
ARM GAS  C:\Users\User\AppData\Local\Temp\ccsn8eRz.s 			page 171


 7670 0433 43595F42 		.ascii	"CY_BLE_EVT_SET_PHY_COMPLETE\000"
 7670      4C455F45 
 7670      56545F53 
 7670      45545F50 
 7670      48595F43 
 7671              	.LASF273:
 7672 044f 64756D6D 		.ascii	"dummyData\000"
 7672      79446174 
 7672      6100
 7673              	.LASF228:
 7674 0459 43595F42 		.ascii	"CY_BLE_EVT_GATTS_READ_CHAR_VAL_ACCESS_REQ\000"
 7674      4C455F45 
 7674      56545F47 
 7674      41545453 
 7674      5F524541 
 7675              	.LASF60:
 7676 0483 636F6D70 		.ascii	"compare0\000"
 7676      61726530 
 7676      00
 7677              	.LASF61:
 7678 048c 636F6D70 		.ascii	"compare1\000"
 7678      61726531 
 7678      00
 7679              	.LASF338:
 7680 0495 474E5520 		.ascii	"GNU C11 5.4.1 20160609 (release) [ARM/embedded-5-br"
 7680      43313120 
 7680      352E342E 
 7680      31203230 
 7680      31363036 
 7681 04c8 616E6368 		.ascii	"anch revision 237715] -mcpu=cortex-m4 -mfloat-abi=s"
 7681      20726576 
 7681      6973696F 
 7681      6E203233 
 7681      37373135 
 7682 04fb 6F667466 		.ascii	"oftfp -mfpu=fpv4-sp-d16 -mthumb -g -Og -ffunction-s"
 7682      70202D6D 
 7682      6670753D 
 7682      66707634 
 7682      2D73702D 
 7683 052e 65637469 		.ascii	"ections -ffat-lto-objects\000"
 7683      6F6E7320 
 7683      2D666661 
 7683      742D6C74 
 7683      6F2D6F62 
 7684              	.LASF199:
 7685 0548 43595F42 		.ascii	"CY_BLE_EVT_GAP_RESOLVE_DEVICE_COMPLETE\000"
 7685      4C455F45 
 7685      56545F47 
 7685      41505F52 
 7685      45534F4C 
 7686              	.LASF251:
 7687 056f 43595F42 		.ascii	"CY_BLE_CONN_STATE_CLIENT_DISCONNECTED_DISCOVERED\000"
 7687      4C455F43 
 7687      4F4E4E5F 
 7687      53544154 
 7687      455F434C 
 7688              	.LASF209:
ARM GAS  C:\Users\User\AppData\Local\Temp\ccsn8eRz.s 			page 172


 7689 05a0 43595F42 		.ascii	"CY_BLE_EVT_GATTC_XCHNG_MTU_RSP\000"
 7689      4C455F45 
 7689      56545F47 
 7689      41545443 
 7689      5F584348 
 7690              	.LASF225:
 7691 05bf 43595F42 		.ascii	"CY_BLE_EVT_GATTS_HANDLE_VALUE_CNF\000"
 7691      4C455F45 
 7691      56545F47 
 7691      41545453 
 7691      5F48414E 
 7692              	.LASF328:
 7693 05e1 43795F45 		.ascii	"Cy_EINK_WriteSPI\000"
 7693      494E4B5F 
 7693      57726974 
 7693      65535049 
 7693      00
 7694              	.LASF155:
 7695 05f2 43595F42 		.ascii	"CY_BLE_EVT_PHY_UPDATE_COMPLETE\000"
 7695      4C455F45 
 7695      56545F50 
 7695      48595F55 
 7695      50444154 
 7696              	.LASF271:
 7697 0611 70765F65 		.ascii	"pv_eink_stage_t\000"
 7697      696E6B5F 
 7697      73746167 
 7697      655F7400 
 7698              	.LASF52:
 7699 0621 75696E74 		.ascii	"uint8\000"
 7699      3800
 7700              	.LASF214:
 7701 0627 43595F42 		.ascii	"CY_BLE_EVT_GATTC_READ_RSP\000"
 7701      4C455F45 
 7701      56545F47 
 7701      41545443 
 7701      5F524541 
 7702              	.LASF3:
 7703 0641 7369676E 		.ascii	"signed char\000"
 7703      65642063 
 7703      68617200 
 7704              	.LASF131:
 7705 064d 43595F42 		.ascii	"CY_BLE_EVT_PENDING_FLASH_WRITE\000"
 7705      4C455F45 
 7705      56545F50 
 7705      454E4449 
 7705      4E475F46 
 7706              	.LASF312:
 7707 066c 66756C6C 		.ascii	"fullUpdateTime\000"
 7707      55706461 
 7707      74655469 
 7707      6D6500
 7708              	.LASF63:
 7709 067b 696E7465 		.ascii	"interruptSources\000"
 7709      72727570 
 7709      74536F75 
 7709      72636573 
ARM GAS  C:\Users\User\AppData\Local\Temp\ccsn8eRz.s 			page 173


 7709      00
 7710              	.LASF215:
 7711 068c 43595F42 		.ascii	"CY_BLE_EVT_GATTC_READ_BLOB_RSP\000"
 7711      4C455F45 
 7711      56545F47 
 7711      41545443 
 7711      5F524541 
 7712              	.LASF23:
 7713 06ab 75696E74 		.ascii	"uint32_t\000"
 7713      33325F74 
 7713      00
 7714              	.LASF18:
 7715 06b4 696E7438 		.ascii	"int8_t\000"
 7715      5F7400
 7716              	.LASF146:
 7717 06bb 43595F42 		.ascii	"CY_BLE_EVT_SET_RPA_ENABLE_COMPLETE\000"
 7717      4C455F45 
 7717      56545F53 
 7717      45545F52 
 7717      50415F45 
 7718              	.LASF263:
 7719 06de 50565F45 		.ascii	"PV_EINK_ERROR_BREAKAGE\000"
 7719      494E4B5F 
 7719      4552524F 
 7719      525F4252 
 7719      45414B41 
 7720              	.LASF127:
 7721 06f5 43595F42 		.ascii	"CY_BLE_EVT_STACK_ON\000"
 7721      4C455F45 
 7721      56545F53 
 7721      5441434B 
 7721      5F4F4E00 
 7722              	.LASF157:
 7723 0709 43595F42 		.ascii	"CY_BLE_EVT_LL_CNTRL_PROC_PENDING_COMPLETE\000"
 7723      4C455F45 
 7723      56545F4C 
 7723      4C5F434E 
 7723      54524C5F 
 7724              	.LASF234:
 7725 0733 43595F42 		.ascii	"CY_BLE_EVT_L2CAP_CBFC_CONN_CNF\000"
 7725      4C455F45 
 7725      56545F4C 
 7725      32434150 
 7725      5F434246 
 7726              	.LASF143:
 7727 0752 43595F42 		.ascii	"CY_BLE_EVT_GET_PEER_RPA_COMPLETE\000"
 7727      4C455F45 
 7727      56545F47 
 7727      45545F50 
 7727      4545525F 
 7728              	.LASF305:
 7729 0773 6E657742 		.ascii	"newByte\000"
 7729      79746500 
 7730              	.LASF334:
 7731 077b 43795F45 		.ascii	"Cy_EINK_TimerStop\000"
 7731      494E4B5F 
 7731      54696D65 
ARM GAS  C:\Users\User\AppData\Local\Temp\ccsn8eRz.s 			page 174


 7731      7253746F 
 7731      7000
 7732              	.LASF279:
 7733 078d 62617365 		.ascii	"base\000"
 7733      00
 7734              	.LASF335:
 7735 0792 43795F53 		.ascii	"Cy_SysLib_Delay\000"
 7735      79734C69 
 7735      625F4465 
 7735      6C617900 
 7736              	.LASF129:
 7737 07a2 43595F42 		.ascii	"CY_BLE_EVT_STACK_BUSY_STATUS\000"
 7737      4C455F45 
 7737      56545F53 
 7737      5441434B 
 7737      5F425553 
 7738              	.LASF117:
 7739 07bf 63795F73 		.ascii	"cy_stc_scb_uart_context\000"
 7739      74635F73 
 7739      63625F75 
 7739      6172745F 
 7739      636F6E74 
 7740              	.LASF24:
 7741 07d7 4F55545F 		.ascii	"OUT_CLR\000"
 7741      434C5200 
 7742              	.LASF67:
 7743 07df 72656C6F 		.ascii	"reloadInput\000"
 7743      6164496E 
 7743      70757400 
 7744              	.LASF20:
 7745 07eb 696E7431 		.ascii	"int16_t\000"
 7745      365F7400 
 7746              	.LASF194:
 7747 07f3 43595F42 		.ascii	"CY_BLE_EVT_GAP_ENHANCE_CONN_COMPLETE\000"
 7747      4C455F45 
 7747      56545F47 
 7747      41505F45 
 7747      4E48414E 
 7748              	.LASF81:
 7749 0818 43595F53 		.ascii	"CY_SCB_EZI2C_STATE_RX_OFFSET_LSB\000"
 7749      43425F45 
 7749      5A493243 
 7749      5F535441 
 7749      54455F52 
 7750              	.LASF15:
 7751 0839 6C6F6E67 		.ascii	"long long unsigned int\000"
 7751      206C6F6E 
 7751      6720756E 
 7751      7369676E 
 7751      65642069 
 7752              	.LASF341:
 7753 0850 43795F47 		.ascii	"Cy_GPIO_Write\000"
 7753      50494F5F 
 7753      57726974 
 7753      6500
 7754              	.LASF249:
 7755 085e 63795F65 		.ascii	"cy_en_ble_adv_state_t\000"
ARM GAS  C:\Users\User\AppData\Local\Temp\ccsn8eRz.s 			page 175


 7755      6E5F626C 
 7755      655F6164 
 7755      765F7374 
 7755      6174655F 
 7756              	.LASF161:
 7757 0874 43595F42 		.ascii	"CY_BLE_EVT_GET_RSSI_COMPLETE\000"
 7757      4C455F45 
 7757      56545F47 
 7757      45545F52 
 7757      5353495F 
 7758              	.LASF292:
 7759 0891 50765F45 		.ascii	"Pv_EINK_SetTempFactor\000"
 7759      494E4B5F 
 7759      53657454 
 7759      656D7046 
 7759      6163746F 
 7760              	.LASF98:
 7761 08a7 62756631 		.ascii	"buf1\000"
 7761      00
 7762              	.LASF101:
 7763 08ac 62756632 		.ascii	"buf2\000"
 7763      00
 7764              	.LASF339:
 7765 08b1 70657276 		.ascii	"pervasive_eink_hardware_driver.c\000"
 7765      61736976 
 7765      655F6569 
 7765      6E6B5F68 
 7765      61726477 
 7766              	.LASF262:
 7767 08d2 50565F45 		.ascii	"PV_EINK_ERROR_ID\000"
 7767      494E4B5F 
 7767      4552524F 
 7767      525F4944 
 7767      00
 7768              	.LASF246:
 7769 08e3 43595F42 		.ascii	"CY_BLE_ADV_STATE_ADV_INITIATED\000"
 7769      4C455F41 
 7769      44565F53 
 7769      54415445 
 7769      5F414456 
 7770              	.LASF9:
 7771 0902 5F5F7569 		.ascii	"__uint16_t\000"
 7771      6E743136 
 7771      5F7400
 7772              	.LASF187:
 7773 090d 43595F42 		.ascii	"CY_BLE_EVT_GAP_ENCRYPT_CHANGE\000"
 7773      4C455F45 
 7773      56545F47 
 7773      41505F45 
 7773      4E435259 
 7774              	.LASF159:
 7775 092b 43595F42 		.ascii	"CY_BLE_EVT_SET_DEVICE_ADDR_COMPLETE\000"
 7775      4C455F45 
 7775      56545F53 
 7775      45545F44 
 7775      45564943 
 7776              	.LASF243:
ARM GAS  C:\Users\User\AppData\Local\Temp\ccsn8eRz.s 			page 176


 7777 094f 61747449 		.ascii	"attId\000"
 7777      6400
 7778              	.LASF68:
 7779 0955 73746172 		.ascii	"startInputMode\000"
 7779      74496E70 
 7779      75744D6F 
 7779      646500
 7780              	.LASF310:
 7781 0964 50765F45 		.ascii	"Pv_EINK_HardwarePowerOff\000"
 7781      494E4B5F 
 7781      48617264 
 7781      77617265 
 7781      506F7765 
 7782              	.LASF64:
 7783 097d 63617074 		.ascii	"captureInputMode\000"
 7783      75726549 
 7783      6E707574 
 7783      4D6F6465 
 7783      00
 7784              	.LASF272:
 7785 098e 65696E6B 		.ascii	"eink_lineData\000"
 7785      5F6C696E 
 7785      65446174 
 7785      6100
 7786              	.LASF152:
 7787 099c 43595F42 		.ascii	"CY_BLE_EVT_GET_PHY_COMPLETE\000"
 7787      4C455F45 
 7787      56545F47 
 7787      45545F50 
 7787      48595F43 
 7788              	.LASF281:
 7789 09b8 76616C75 		.ascii	"value\000"
 7789      6500
 7790              	.LASF33:
 7791 09be 4346475F 		.ascii	"CFG_OUT\000"
 7791      4F555400 
 7792              	.LASF119:
 7793 09c6 72785374 		.ascii	"rxStatus\000"
 7793      61747573 
 7793      00
 7794              	.LASF107:
 7795 09cf 72784275 		.ascii	"rxBuf\000"
 7795      6600
 7796              	.LASF207:
 7797 09d5 43595F42 		.ascii	"CY_BLE_EVT_GATT_DISCONNECT_IND\000"
 7797      4C455F45 
 7797      56545F47 
 7797      4154545F 
 7797      44495343 
 7798              	.LASF102:
 7799 09f4 62756632 		.ascii	"buf2Size\000"
 7799      53697A65 
 7799      00
 7800              	.LASF285:
 7801 09fd 50765F45 		.ascii	"Pv_EINK_SendData\000"
 7801      494E4B5F 
 7801      53656E64 
ARM GAS  C:\Users\User\AppData\Local\Temp\ccsn8eRz.s 			page 177


 7801      44617461 
 7801      00
 7802              	.LASF158:
 7803 0a0e 43595F42 		.ascii	"CY_BLE_EVT_SOFT_RESET_COMPLETE\000"
 7803      4C455F45 
 7803      56545F53 
 7803      4F46545F 
 7803      52455345 
 7804              	.LASF220:
 7805 0a2d 43595F42 		.ascii	"CY_BLE_EVT_GATTS_PREP_WRITE_REQ\000"
 7805      4C455F45 
 7805      56545F47 
 7805      41545453 
 7805      5F505245 
 7806              	.LASF113:
 7807 0a4d 63624576 		.ascii	"cbEvents\000"
 7807      656E7473 
 7807      00
 7808              	.LASF54:
 7809 0a56 5F426F6F 		.ascii	"_Bool\000"
 7809      6C00
 7810              	.LASF241:
 7811 0a5c 43595F42 		.ascii	"CY_BLE_EVT_MAX\000"
 7811      4C455F45 
 7811      56545F4D 
 7811      415800
 7812              	.LASF236:
 7813 0a6b 43595F42 		.ascii	"CY_BLE_EVT_L2CAP_CBFC_DISCONN_CNF\000"
 7813      4C455F45 
 7813      56545F4C 
 7813      32434150 
 7813      5F434246 
 7814              	.LASF301:
 7815 0a8d 50765F45 		.ascii	"Pv_EINK_PartialStageHandler\000"
 7815      494E4B5F 
 7815      50617274 
 7815      69616C53 
 7815      74616765 
 7816              	.LASF44:
 7817 0aa9 5644445F 		.ascii	"VDD_INTR\000"
 7817      494E5452 
 7817      00
 7818              	.LASF166:
 7819 0ab2 43595F42 		.ascii	"CY_BLE_EVT_RANDOM_NUM_GEN_COMPLETE\000"
 7819      4C455F45 
 7819      56545F52 
 7819      414E444F 
 7819      4D5F4E55 
 7820              	.LASF247:
 7821 0ad5 43595F42 		.ascii	"CY_BLE_ADV_STATE_ADVERTISING\000"
 7821      4C455F41 
 7821      44565F53 
 7821      54415445 
 7821      5F414456 
 7822              	.LASF196:
 7823 0af2 43595F42 		.ascii	"CY_BLE_EVT_GAP_SMP_NEGOTIATED_AUTH_INFO\000"
 7823      4C455F45 
ARM GAS  C:\Users\User\AppData\Local\Temp\ccsn8eRz.s 			page 178


 7823      56545F47 
 7823      41505F53 
 7823      4D505F4E 
 7824              	.LASF139:
 7825 0b1a 43595F42 		.ascii	"CY_BLE_EVT_SET_DATA_LENGTH_COMPLETE\000"
 7825      4C455F45 
 7825      56545F53 
 7825      45545F44 
 7825      4154415F 
 7826              	.LASF218:
 7827 0b3e 43595F42 		.ascii	"CY_BLE_EVT_GATTC_WRITE_RSP\000"
 7827      4C455F45 
 7827      56545F47 
 7827      41545443 
 7827      5F575249 
 7828              	.LASF182:
 7829 0b59 43595F42 		.ascii	"CY_BLE_EVT_GAP_AUTH_COMPLETE\000"
 7829      4C455F45 
 7829      56545F47 
 7829      41505F41 
 7829      5554485F 
 7830              	.LASF266:
 7831 0b76 70765F65 		.ascii	"pv_eink_status_t\000"
 7831      696E6B5F 
 7831      73746174 
 7831      75735F74 
 7831      00
 7832              	.LASF84:
 7833 0b87 43595F53 		.ascii	"CY_SCB_EZI2C_STATE_TX_DATA\000"
 7833      43425F45 
 7833      5A493243 
 7833      5F535441 
 7833      54455F54 
 7834              	.LASF75:
 7835 0ba2 43595F53 		.ascii	"CY_SCB_EZI2C_SUB_ADDR8_BITS\000"
 7835      43425F45 
 7835      5A493243 
 7835      5F535542 
 7835      5F414444 
 7836              	.LASF274:
 7837 0bbe 6576656E 		.ascii	"even\000"
 7837      00
 7838              	.LASF95:
 7839 0bc3 61646472 		.ascii	"addr1Active\000"
 7839      31416374 
 7839      69766500 
 7840              	.LASF96:
 7841 0bcf 63757242 		.ascii	"curBuf\000"
 7841      756600
 7842              	.LASF27:
 7843 0bd6 494E5452 		.ascii	"INTR\000"
 7843      00
 7844              	.LASF38:
 7845 0bdb 4750494F 		.ascii	"GPIO_PRT_Type\000"
 7845      5F505254 
 7845      5F547970 
 7845      6500
ARM GAS  C:\Users\User\AppData\Local\Temp\ccsn8eRz.s 			page 179


 7846              	.LASF136:
 7847 0be9 43595F42 		.ascii	"CY_BLE_EVT_GET_CHANNEL_MAP_COMPLETE\000"
 7847      4C455F45 
 7847      56545F47 
 7847      45545F43 
 7847      48414E4E 
 7848              	.LASF278:
 7849 0c0d 64726976 		.ascii	"driver_data_packet_t\000"
 7849      65725F64 
 7849      6174615F 
 7849      7061636B 
 7849      65745F74 
 7850              	.LASF82:
 7851 0c22 43595F53 		.ascii	"CY_SCB_EZI2C_STATE_RX_DATA0\000"
 7851      43425F45 
 7851      5A493243 
 7851      5F535441 
 7851      54455F52 
 7852              	.LASF28:
 7853 0c3e 494E5452 		.ascii	"INTR_MASK\000"
 7853      5F4D4153 
 7853      4B00
 7854              	.LASF130:
 7855 0c48 43595F42 		.ascii	"CY_BLE_EVT_MEMORY_REQUEST\000"
 7855      4C455F45 
 7855      56545F4D 
 7855      454D4F52 
 7855      595F5245 
 7856              	.LASF326:
 7857 0c62 7363616E 		.ascii	"scanTable\000"
 7857      5461626C 
 7857      6500
 7858              	.LASF177:
 7859 0c6c 43595F42 		.ascii	"CY_BLE_EVT_SET_CONN_PRIORITY_COMPLETE\000"
 7859      4C455F45 
 7859      56545F53 
 7859      45545F43 
 7859      4F4E4E5F 
 7860              	.LASF323:
 7861 0c92 55617274 		.ascii	"Uart_Printf_context\000"
 7861      5F507269 
 7861      6E74665F 
 7861      636F6E74 
 7861      65787400 
 7862              	.LASF185:
 7863 0ca6 43595F42 		.ascii	"CY_BLE_EVT_GAP_DEVICE_CONNECTED\000"
 7863      4C455F45 
 7863      56545F47 
 7863      41505F44 
 7863      45564943 
 7864              	.LASF308:
 7865 0cc6 50765F45 		.ascii	"Pv_EINK_DummyLine\000"
 7865      494E4B5F 
 7865      44756D6D 
 7865      794C696E 
 7865      6500
 7866              	.LASF248:
ARM GAS  C:\Users\User\AppData\Local\Temp\ccsn8eRz.s 			page 180


 7867 0cd8 43595F42 		.ascii	"CY_BLE_ADV_STATE_STOP_INITIATED\000"
 7867      4C455F41 
 7867      44565F53 
 7867      54415445 
 7867      5F53544F 
 7868              	.LASF290:
 7869 0cf8 64617461 		.ascii	"dataRead\000"
 7869      52656164 
 7869      00
 7870              	.LASF85:
 7871 0d01 63795F65 		.ascii	"cy_en_scb_ezi2c_state_t\000"
 7871      6E5F7363 
 7871      625F657A 
 7871      6932635F 
 7871      73746174 
 7872              	.LASF255:
 7873 0d19 43595F42 		.ascii	"CY_BLE_CONN_STATE_CLIENT_CHAR_DISCOVERING\000"
 7873      4C455F43 
 7873      4F4E4E5F 
 7873      53544154 
 7873      455F434C 
 7874              	.LASF65:
 7875 0d43 63617074 		.ascii	"captureInput\000"
 7875      75726549 
 7875      6E707574 
 7875      00
 7876              	.LASF17:
 7877 0d50 63686172 		.ascii	"char\000"
 7877      00
 7878              	.LASF168:
 7879 0d55 43595F42 		.ascii	"CY_BLE_EVT_AES_CCM_ENCRYPT_COMPLETE\000"
 7879      4C455F45 
 7879      56545F41 
 7879      45535F43 
 7879      434D5F45 
 7880              	.LASF189:
 7881 0d79 43595F42 		.ascii	"CY_BLE_EVT_GAPC_SCAN_START_STOP\000"
 7881      4C455F45 
 7881      56545F47 
 7881      4150435F 
 7881      5343414E 
 7882              	.LASF193:
 7883 0d99 43595F42 		.ascii	"CY_BLE_EVT_GAP_OOB_GENERATED_NOTIFICATION\000"
 7883      4C455F45 
 7883      56545F47 
 7883      41505F4F 
 7883      4F425F47 
 7884              	.LASF123:
 7885 0dc3 72785269 		.ascii	"rxRingBufTail\000"
 7885      6E674275 
 7885      66546169 
 7885      6C00
 7886              	.LASF322:
 7887 0dd1 43595F45 		.ascii	"CY_EINK_Timer_config\000"
 7887      494E4B5F 
 7887      54696D65 
 7887      725F636F 
ARM GAS  C:\Users\User\AppData\Local\Temp\ccsn8eRz.s 			page 181


 7887      6E666967 
 7888              	.LASF313:
 7889 0de6 70617274 		.ascii	"partialUpdateTime\000"
 7889      69616C55 
 7889      70646174 
 7889      6554696D 
 7889      6500
 7890              	.LASF211:
 7891 0df8 43595F42 		.ascii	"CY_BLE_EVT_GATTC_READ_BY_TYPE_RSP\000"
 7891      4C455F45 
 7891      56545F47 
 7891      41545443 
 7891      5F524541 
 7892              	.LASF56:
 7893 0e1a 636C6F63 		.ascii	"clockPrescaler\000"
 7893      6B507265 
 7893      7363616C 
 7893      657200
 7894              	.LASF333:
 7895 0e29 43795F45 		.ascii	"Cy_EINK_IsBusy\000"
 7895      494E4B5F 
 7895      49734275 
 7895      737900
 7896              	.LASF147:
 7897 0e38 43595F42 		.ascii	"CY_BLE_EVT_SET_HOST_CHANNEL_COMPLETE\000"
 7897      4C455F45 
 7897      56545F53 
 7897      45545F48 
 7897      4F53545F 
 7898              	.LASF283:
 7899 0e5d 64617461 		.ascii	"data\000"
 7899      00
 7900              	.LASF137:
 7901 0e62 43595F42 		.ascii	"CY_BLE_EVT_LE_SET_EVENT_MASK_COMPLETE\000"
 7901      4C455F45 
 7901      56545F4C 
 7901      455F5345 
 7901      545F4556 
 7902              	.LASF109:
 7903 0e88 72784275 		.ascii	"rxBufIdx\000"
 7903      66496478 
 7903      00
 7904              	.LASF191:
 7905 0e91 43595F42 		.ascii	"CY_BLE_EVT_GAP_NUMERIC_COMPARISON_REQUEST\000"
 7905      4C455F45 
 7905      56545F47 
 7905      41505F4E 
 7905      554D4552 
 7906              	.LASF114:
 7907 0ebb 696E6974 		.ascii	"initKey\000"
 7907      4B657900 
 7908              	.LASF19:
 7909 0ec3 75696E74 		.ascii	"uint8_t\000"
 7909      385F7400 
 7910              	.LASF89:
 7911 0ecb 73746174 		.ascii	"status\000"
 7911      757300
ARM GAS  C:\Users\User\AppData\Local\Temp\ccsn8eRz.s 			page 182


 7912              	.LASF170:
 7913 0ed2 43595F42 		.ascii	"CY_BLE_EVT_SET_SLAVE_LATENCY_MODE_COMPLETE\000"
 7913      4C455F45 
 7913      56545F53 
 7913      45545F53 
 7913      4C415645 
 7914              	.LASF277:
 7915 0efd 6C696E65 		.ascii	"lineBuffer\000"
 7915      42756666 
 7915      657200
 7916              	.LASF39:
 7917 0f08 494E5452 		.ascii	"INTR_CAUSE0\000"
 7917      5F434155 
 7917      53453000 
 7918              	.LASF103:
 7919 0f14 62756632 		.ascii	"buf2rwBondary\000"
 7919      7277426F 
 7919      6E646172 
 7919      7900
 7920              	.LASF41:
 7921 0f22 494E5452 		.ascii	"INTR_CAUSE2\000"
 7921      5F434155 
 7921      53453200 
 7922              	.LASF42:
 7923 0f2e 494E5452 		.ascii	"INTR_CAUSE3\000"
 7923      5F434155 
 7923      53453300 
 7924              	.LASF336:
 7925 0f3a 43795F45 		.ascii	"Cy_EINK_AttachSPI\000"
 7925      494E4B5F 
 7925      41747461 
 7925      63685350 
 7925      4900
 7926              	.LASF311:
 7927 0f4c 64726976 		.ascii	"driverPacket\000"
 7927      65725061 
 7927      636B6574 
 7927      00
 7928              	.LASF153:
 7929 0f59 43595F42 		.ascii	"CY_BLE_EVT_SET_DEFAULT_PHY_COMPLETE\000"
 7929      4C455F45 
 7929      56545F53 
 7929      45545F44 
 7929      45464155 
 7930              	.LASF318:
 7931 0f7d 63795F62 		.ascii	"cy_ble_advState\000"
 7931      6C655F61 
 7931      64765374 
 7931      61746500 
 7932              	.LASF116:
 7933 0f8d 63795F63 		.ascii	"cy_cb_scb_uart_handle_events_t\000"
 7933      625F7363 
 7933      625F7561 
 7933      72745F68 
 7933      616E646C 
 7934              	.LASF258:
 7935 0fac 63795F65 		.ascii	"cy_en_ble_conn_state_t\000"
ARM GAS  C:\Users\User\AppData\Local\Temp\ccsn8eRz.s 			page 183


 7935      6E5F626C 
 7935      655F636F 
 7935      6E6E5F73 
 7935      74617465 
 7936              	.LASF176:
 7937 0fc3 43595F42 		.ascii	"CY_BLE_EVT_SET_CE_LENGTH_COMPLETE\000"
 7937      4C455F45 
 7937      56545F53 
 7937      45545F43 
 7937      455F4C45 
 7938              	.LASF175:
 7939 0fe5 43595F42 		.ascii	"CY_BLE_EVT_SET_EVENT_MASK_COMPLETE\000"
 7939      4C455F45 
 7939      56545F53 
 7939      45545F45 
 7939      56454E54 
 7940              	.LASF1:
 7941 1008 6C6F6E67 		.ascii	"long long int\000"
 7941      206C6F6E 
 7941      6720696E 
 7941      7400
 7942              	.LASF307:
 7943 1016 62797465 		.ascii	"byteCounter\000"
 7943      436F756E 
 7943      74657200 
 7944              	.LASF149:
 7945 1022 43595F42 		.ascii	"CY_BLE_EVT_REMOVE_DEVICE_FROM_RPA_LIST_COMPLETE\000"
 7945      4C455F45 
 7945      56545F52 
 7945      454D4F56 
 7945      455F4445 
 7946              	.LASF138:
 7947 1052 43595F42 		.ascii	"CY_BLE_EVT_LE_PING_AUTH_TIMEOUT\000"
 7947      4C455F45 
 7947      56545F4C 
 7947      455F5049 
 7947      4E475F41 
 7948              	.LASF7:
 7949 1072 5F5F696E 		.ascii	"__int16_t\000"
 7949      7431365F 
 7949      7400
 7950              	.LASF288:
 7951 107c 50765F45 		.ascii	"Pv_EINK_ReadByte\000"
 7951      494E4B5F 
 7951      52656164 
 7951      42797465 
 7951      00
 7952              	.LASF76:
 7953 108d 43595F53 		.ascii	"CY_SCB_EZI2C_SUB_ADDR16_BITS\000"
 7953      43425F45 
 7953      5A493243 
 7953      5F535542 
 7953      5F414444 
 7954              	.LASF165:
 7955 10aa 43595F42 		.ascii	"CY_BLE_EVT_SET_CLK_CONFIG_COMPLETE\000"
 7955      4C455F45 
 7955      56545F53 
ARM GAS  C:\Users\User\AppData\Local\Temp\ccsn8eRz.s 			page 184


 7955      45545F43 
 7955      4C4B5F43 
 7956              	.LASF46:
 7957 10cd 5644445F 		.ascii	"VDD_INTR_MASKED\000"
 7957      494E5452 
 7957      5F4D4153 
 7957      4B454400 
 7958              	.LASF229:
 7959 10dd 43595F42 		.ascii	"CY_BLE_EVT_GATTC_LONG_PROCEDURE_END\000"
 7959      4C455F45 
 7959      56545F47 
 7959      41545443 
 7959      5F4C4F4E 
 7960              	.LASF325:
 7961 1101 62756C6B 		.ascii	"bulkDriverPacket\000"
 7961      44726976 
 7961      65725061 
 7961      636B6574 
 7961      00
 7962              	.LASF342:
 7963 1112 6D656D73 		.ascii	"memset\000"
 7963      657400
 7964              	.LASF275:
 7965 1119 7363616E 		.ascii	"scan\000"
 7965      00
 7966              	.LASF115:
 7967 111e 63795F73 		.ascii	"cy_stc_scb_spi_context_t\000"
 7967      74635F73 
 7967      63625F73 
 7967      70695F63 
 7967      6F6E7465 
 7968              	.LASF122:
 7969 1137 72785269 		.ascii	"rxRingBufHead\000"
 7969      6E674275 
 7969      66486561 
 7969      6400
 7970              	.LASF66:
 7971 1145 72656C6F 		.ascii	"reloadInputMode\000"
 7971      6164496E 
 7971      7075744D 
 7971      6F646500 
 7972              	.LASF142:
 7973 1155 43595F42 		.ascii	"CY_BLE_EVT_DATA_LENGTH_CHANGE\000"
 7973      4C455F45 
 7973      56545F44 
 7973      4154415F 
 7973      4C454E47 
 7974              	.LASF190:
 7975 1173 43595F42 		.ascii	"CY_BLE_EVT_GAP_KEYINFO_EXCHNGE_CMPLT\000"
 7975      4C455F45 
 7975      56545F47 
 7975      41505F4B 
 7975      4559494E 
 7976              	.LASF150:
 7977 1198 43595F42 		.ascii	"CY_BLE_EVT_ADD_DEVICE_TO_WHITE_LIST_COMPLETE\000"
 7977      4C455F45 
 7977      56545F41 
ARM GAS  C:\Users\User\AppData\Local\Temp\ccsn8eRz.s 			page 185


 7977      44445F44 
 7977      45564943 
 7978              	.LASF111:
 7979 11c5 74784275 		.ascii	"txBufSize\000"
 7979      6653697A 
 7979      6500
 7980              	.LASF204:
 7981 11cf 43595F42 		.ascii	"CY_BLE_EVT_GAP_ADV_TX\000"
 7981      4C455F45 
 7981      56545F47 
 7981      41505F41 
 7981      44565F54 
 7982              	.LASF240:
 7983 11e5 43595F42 		.ascii	"CY_BLE_EVT_L2CAP_CBFC_DATA_WRITE_IND\000"
 7983      4C455F45 
 7983      56545F4C 
 7983      32434150 
 7983      5F434246 
 7984              	.LASF287:
 7985 120a 50765F45 		.ascii	"Pv_EINK_Init\000"
 7985      494E4B5F 
 7985      496E6974 
 7985      00
 7986              	.LASF259:
 7987 1217 70765F65 		.ascii	"pv_eink_frame_data_t\000"
 7987      696E6B5F 
 7987      6672616D 
 7987      655F6461 
 7987      74615F74 
 7988              	.LASF178:
 7989 122c 43595F42 		.ascii	"CY_BLE_EVT_GAPC_SCAN_PROGRESS_RESULT\000"
 7989      4C455F45 
 7989      56545F47 
 7989      4150435F 
 7989      5343414E 
 7990              	.LASF233:
 7991 1251 43595F42 		.ascii	"CY_BLE_EVT_L2CAP_CBFC_CONN_IND\000"
 7991      4C455F45 
 7991      56545F4C 
 7991      32434150 
 7991      5F434246 
 7992              	.LASF289:
 7993 1270 50765F45 		.ascii	"Pv_EINK_InitDriver\000"
 7993      494E4B5F 
 7993      496E6974 
 7993      44726976 
 7993      657200
 7994              	.LASF198:
 7995 1283 43595F42 		.ascii	"CY_BLE_EVT_GAP_KEYS_GEN_COMPLETE\000"
 7995      4C455F45 
 7995      56545F47 
 7995      41505F4B 
 7995      4559535F 
 7996              	.LASF92:
 7997 12a4 73756241 		.ascii	"subAddrSize\000"
 7997      64647253 
 7997      697A6500 
ARM GAS  C:\Users\User\AppData\Local\Temp\ccsn8eRz.s 			page 186


 7998              	.LASF192:
 7999 12b0 43595F42 		.ascii	"CY_BLE_EVT_GAP_KEYPRESS_NOTIFICATION\000"
 7999      4C455F45 
 7999      56545F47 
 7999      41505F4B 
 7999      45595052 
 8000              	.LASF256:
 8001 12d5 43595F42 		.ascii	"CY_BLE_CONN_STATE_CLIENT_DESCR_DISCOVERING\000"
 8001      4C455F43 
 8001      4F4E4E5F 
 8001      53544154 
 8001      455F434C 
 8002              	.LASF252:
 8003 1300 43595F42 		.ascii	"CY_BLE_CONN_STATE_CONNECTED\000"
 8003      4C455F43 
 8003      4F4E4E5F 
 8003      53544154 
 8003      455F434F 
 8004              	.LASF110:
 8005 131c 74784275 		.ascii	"txBuf\000"
 8005      6600
 8006              	.LASF299:
 8007 1322 74656D70 		.ascii	"tempByte\000"
 8007      42797465 
 8007      00
 8008              	.LASF4:
 8009 132b 5F5F696E 		.ascii	"__int8_t\000"
 8009      74385F74 
 8009      00
 8010              	.LASF120:
 8011 1334 72785269 		.ascii	"rxRingBuf\000"
 8011      6E674275 
 8011      6600
 8012              	.LASF2:
 8013 133e 6C6F6E67 		.ascii	"long double\000"
 8013      20646F75 
 8013      626C6500 
 8014              	.LASF135:
 8015 134a 43595F42 		.ascii	"CY_BLE_EVT_READ_AUTH_PAYLOAD_TO_COMPLETE\000"
 8015      4C455F45 
 8015      56545F52 
 8015      4541445F 
 8015      41555448 
 8016              	.LASF21:
 8017 1373 75696E74 		.ascii	"uint16_t\000"
 8017      31365F74 
 8017      00
 8018              	.LASF47:
 8019 137c 5644445F 		.ascii	"VDD_INTR_SET\000"
 8019      494E5452 
 8019      5F534554 
 8019      00
 8020              	.LASF57:
 8021 1389 72756E4D 		.ascii	"runMode\000"
 8021      6F646500 
 8022              	.LASF254:
 8023 1391 43595F42 		.ascii	"CY_BLE_CONN_STATE_CLIENT_INCL_DISCOVERING\000"
ARM GAS  C:\Users\User\AppData\Local\Temp\ccsn8eRz.s 			page 187


 8023      4C455F43 
 8023      4F4E4E5F 
 8023      53544154 
 8023      455F434C 
 8024              	.LASF145:
 8025 13bb 43595F42 		.ascii	"CY_BLE_EVT_SET_RPA_TO_COMPLETE\000"
 8025      4C455F45 
 8025      56545F53 
 8025      45545F52 
 8025      50415F54 
 8026              	.LASF80:
 8027 13da 43595F53 		.ascii	"CY_SCB_EZI2C_STATE_RX_OFFSET_MSB\000"
 8027      43425F45 
 8027      5A493243 
 8027      5F535441 
 8027      54455F52 
 8028              	.LASF104:
 8029 13fb 63795F73 		.ascii	"cy_stc_scb_ezi2c_context_t\000"
 8029      74635F73 
 8029      63625F65 
 8029      7A693263 
 8029      5F636F6E 
 8030              	.LASF133:
 8031 1416 43595F42 		.ascii	"CY_BLE_EVT_HARDWARE_ERROR\000"
 8031      4C455F45 
 8031      56545F48 
 8031      41524457 
 8031      4152455F 
 8032              	.LASF74:
 8033 1430 63795F73 		.ascii	"cy_stc_tcpwm_counter_config_t\000"
 8033      74635F74 
 8033      6370776D 
 8033      5F636F75 
 8033      6E746572 
 8034              	.LASF224:
 8035 144e 43595F42 		.ascii	"CY_BLE_EVT_GATTC_HANDLE_VALUE_IND\000"
 8035      4C455F45 
 8035      56545F47 
 8035      41545443 
 8035      5F48414E 
 8036              	.LASF205:
 8037 1470 43595F42 		.ascii	"CY_BLE_EVT_GATTC_ERROR_RSP\000"
 8037      4C455F45 
 8037      56545F47 
 8037      41545443 
 8037      5F455252 
 8038              	.LASF210:
 8039 148b 43595F42 		.ascii	"CY_BLE_EVT_GATTC_READ_BY_GROUP_TYPE_RSP\000"
 8039      4C455F45 
 8039      56545F47 
 8039      41545443 
 8039      5F524541 
 8040              	.LASF148:
 8041 14b3 43595F42 		.ascii	"CY_BLE_EVT_ADD_DEVICE_TO_RPA_LIST_COMPLETE\000"
 8041      4C455F45 
 8041      56545F41 
 8041      44445F44 
ARM GAS  C:\Users\User\AppData\Local\Temp\ccsn8eRz.s 			page 188


 8041      45564943 
 8042              	.LASF217:
 8043 14de 43595F42 		.ascii	"CY_BLE_EVT_GATTS_WRITE_REQ\000"
 8043      4C455F45 
 8043      56545F47 
 8043      41545453 
 8043      5F575249 
 8044              	.LASF171:
 8045 14f9 43595F42 		.ascii	"CY_BLE_EVT_STACK_SHUTDOWN_COMPLETE\000"
 8045      4C455F45 
 8045      56545F53 
 8045      5441434B 
 8045      5F534855 
 8046              	.LASF244:
 8047 151c 63795F73 		.ascii	"cy_stc_ble_conn_handle_t\000"
 8047      74635F62 
 8047      6C655F63 
 8047      6F6E6E5F 
 8047      68616E64 
 8048              	.LASF59:
 8049 1535 636F6D70 		.ascii	"compareOrCapture\000"
 8049      6172654F 
 8049      72436170 
 8049      74757265 
 8049      00
 8050              	.LASF37:
 8051 1546 52455345 		.ascii	"RESERVED1\000"
 8051      52564544 
 8051      3100
 8052              	.LASF304:
 8053 1550 6F6C6442 		.ascii	"oldByte\000"
 8053      79746500 
 8054              	.LASF203:
 8055 1558 43595F42 		.ascii	"CY_BLE_EVT_GAPP_UPDATE_ADV_SCAN_DATA_COMPLETE\000"
 8055      4C455F45 
 8055      56545F47 
 8055      4150505F 
 8055      55504441 
 8056              	.LASF8:
 8057 1586 73686F72 		.ascii	"short int\000"
 8057      7420696E 
 8057      7400
 8058              	.LASF306:
 8059 1590 50765F45 		.ascii	"Pv_EINK_NothingFrame\000"
 8059      494E4B5F 
 8059      4E6F7468 
 8059      696E6746 
 8059      72616D65 
 8060              	.LASF286:
 8061 15a5 50765F45 		.ascii	"Pv_EINK_SendByte\000"
 8061      494E4B5F 
 8061      53656E64 
 8061      42797465 
 8061      00
 8062              	.LASF126:
 8063 15b6 43595F42 		.ascii	"CY_BLE_EVT_INVALID\000"
 8063      4C455F45 
ARM GAS  C:\Users\User\AppData\Local\Temp\ccsn8eRz.s 			page 189


 8063      56545F49 
 8063      4E56414C 
 8063      494400
 8064              	.LASF62:
 8065 15c9 656E6162 		.ascii	"enableCompareSwap\000"
 8065      6C65436F 
 8065      6D706172 
 8065      65537761 
 8065      7000
 8066              	.LASF12:
 8067 15db 6C6F6E67 		.ascii	"long int\000"
 8067      20696E74 
 8067      00
 8068              	.LASF331:
 8069 15e4 43795F45 		.ascii	"Cy_EINK_TimerInit\000"
 8069      494E4B5F 
 8069      54696D65 
 8069      72496E69 
 8069      7400
 8070              	.LASF317:
 8071 15f6 49544D5F 		.ascii	"ITM_RxBuffer\000"
 8071      52784275 
 8071      66666572 
 8071      00
 8072              	.LASF72:
 8073 1603 636F756E 		.ascii	"countInputMode\000"
 8073      74496E70 
 8073      75744D6F 
 8073      646500
 8074              	.LASF174:
 8075 1612 43595F42 		.ascii	"CY_BLE_EVT_AES_CMAC_GEN_COMPLETE\000"
 8075      4C455F45 
 8075      56545F41 
 8075      45535F43 
 8075      4D41435F 
 8076              	.LASF90:
 8077 1633 61646472 		.ascii	"address1\000"
 8077      65737331 
 8077      00
 8078              	.LASF91:
 8079 163c 61646472 		.ascii	"address2\000"
 8079      65737332 
 8079      00
 8080              	.LASF58:
 8081 1645 636F756E 		.ascii	"countDirection\000"
 8081      74446972 
 8081      65637469 
 8081      6F6E00
 8082              	.LASF314:
 8083 1654 64617461 		.ascii	"dataLineEven\000"
 8083      4C696E65 
 8083      4576656E 
 8083      00
 8084              	.LASF49:
 8085 1661 63686172 		.ascii	"char_t\000"
 8085      5F7400
 8086              	.LASF197:
ARM GAS  C:\Users\User\AppData\Local\Temp\ccsn8eRz.s 			page 190


 8087 1668 43595F42 		.ascii	"CY_BLE_EVT_GAP_DEVICE_ADDR_GEN_COMPLETE\000"
 8087      4C455F45 
 8087      56545F47 
 8087      41505F44 
 8087      45564943 
 8088              	.LASF327:
 8089 1690 6368616E 		.ascii	"channelSelect\000"
 8089      6E656C53 
 8089      656C6563 
 8089      7400
 8090              	.LASF36:
 8091 169e 4346475F 		.ascii	"CFG_IN_GPIO5V\000"
 8091      494E5F47 
 8091      50494F35 
 8091      5600
 8092              	.LASF330:
 8093 16ac 43795F45 		.ascii	"Cy_EINK_InitSPI\000"
 8093      494E4B5F 
 8093      496E6974 
 8093      53504900 
 8094              	.LASF235:
 8095 16bc 43595F42 		.ascii	"CY_BLE_EVT_L2CAP_CBFC_DISCONN_IND\000"
 8095      4C455F45 
 8095      56545F4C 
 8095      32434150 
 8095      5F434246 
 8096              	.LASF124:
 8097 16de 74784C65 		.ascii	"txLeftToTransmit\000"
 8097      6674546F 
 8097      5472616E 
 8097      736D6974 
 8097      00
 8098              	.LASF221:
 8099 16ef 43595F42 		.ascii	"CY_BLE_EVT_GATTS_EXEC_WRITE_REQ\000"
 8099      4C455F45 
 8099      56545F47 
 8099      41545453 
 8099      5F455845 
 8100              	.LASF134:
 8101 170f 43595F42 		.ascii	"CY_BLE_EVT_WRITE_AUTH_PAYLOAD_TO_COMPLETE\000"
 8101      4C455F45 
 8101      56545F57 
 8101      52495445 
 8101      5F415554 
 8102              	.LASF173:
 8103 1739 43595F42 		.ascii	"CY_BLE_EVT_RADIO_VOLTAGE_LEVEL\000"
 8103      4C455F45 
 8103      56545F52 
 8103      4144494F 
 8103      5F564F4C 
 8104              	.LASF26:
 8105 1758 4F55545F 		.ascii	"OUT_INV\000"
 8105      494E5600 
 8106              	.LASF5:
 8107 1760 5F5F7569 		.ascii	"__uint8_t\000"
 8107      6E74385F 
 8107      7400
ARM GAS  C:\Users\User\AppData\Local\Temp\ccsn8eRz.s 			page 191


 8108              	.LASF302:
 8109 176a 70726576 		.ascii	"previousImagePtr\000"
 8109      696F7573 
 8109      496D6167 
 8109      65507472 
 8109      00
 8110              	.LASF140:
 8111 177b 43595F42 		.ascii	"CY_BLE_EVT_SET_SUGGESTED_DATA_LENGTH_COMPLETE\000"
 8111      4C455F45 
 8111      56545F53 
 8111      45545F53 
 8111      55474745 
 8112              	.LASF160:
 8113 17a9 43595F42 		.ascii	"CY_BLE_EVT_GET_DEVICE_ADDR_COMPLETE\000"
 8113      4C455F45 
 8113      56545F47 
 8113      45545F44 
 8113      45564943 
 8114              	.LASF167:
 8115 17cd 43595F42 		.ascii	"CY_BLE_EVT_AES_ENCRYPT_COMPLETE\000"
 8115      4C455F45 
 8115      56545F41 
 8115      45535F45 
 8115      4E435259 
 8116              	.LASF162:
 8117 17ed 43595F42 		.ascii	"CY_BLE_EVT_GET_TX_PWR_COMPLETE\000"
 8117      4C455F45 
 8117      56545F47 
 8117      45545F54 
 8117      585F5057 
 8118              	.LASF29:
 8119 180c 494E5452 		.ascii	"INTR_MASKED\000"
 8119      5F4D4153 
 8119      4B454400 
 8120              	.LASF169:
 8121 1818 43595F42 		.ascii	"CY_BLE_EVT_AES_CCM_DECRYPT_COMPLETE\000"
 8121      4C455F45 
 8121      56545F41 
 8121      45535F43 
 8121      434D5F44 
 8122              	.LASF303:
 8123 183c 6E657749 		.ascii	"newImagePtr\000"
 8123      6D616765 
 8123      50747200 
 8124              	.LASF128:
 8125 1848 43595F42 		.ascii	"CY_BLE_EVT_TIMEOUT\000"
 8125      4C455F45 
 8125      56545F54 
 8125      494D454F 
 8125      555400
 8126              	.LASF87:
 8127 185b 63795F73 		.ascii	"cy_stc_scb_ezi2c_context\000"
 8127      74635F73 
 8127      63625F65 
 8127      7A693263 
 8127      5F636F6E 
 8128              	.LASF265:
ARM GAS  C:\Users\User\AppData\Local\Temp\ccsn8eRz.s 			page 192


 8129 1874 50565F45 		.ascii	"PV_EINK_ERROR_CHARGEPUMP\000"
 8129      494E4B5F 
 8129      4552524F 
 8129      525F4348 
 8129      41524745 
 8130              	.LASF16:
 8131 188d 73697A65 		.ascii	"sizetype\000"
 8131      74797065 
 8131      00
 8132              	.LASF14:
 8133 1896 6C6F6E67 		.ascii	"long unsigned int\000"
 8133      20756E73 
 8133      69676E65 
 8133      6420696E 
 8133      7400
 8134              	.LASF83:
 8135 18a8 43595F53 		.ascii	"CY_SCB_EZI2C_STATE_RX_DATA1\000"
 8135      43425F45 
 8135      5A493243 
 8135      5F535441 
 8135      54455F52 
 8136              	.LASF50:
 8137 18c4 666C6F61 		.ascii	"float\000"
 8137      7400
 8138              	.LASF22:
 8139 18ca 696E7433 		.ascii	"int32_t\000"
 8139      325F7400 
 8140              	.LASF172:
 8141 18d2 43595F42 		.ascii	"CY_BLE_EVT_RADIO_TEMPERATURE\000"
 8141      4C455F45 
 8141      56545F52 
 8141      4144494F 
 8141      5F54454D 
 8142              	.LASF280:
 8143 18ef 70696E4E 		.ascii	"pinNum\000"
 8143      756D00
 8144              	.LASF232:
 8145 18f6 43595F42 		.ascii	"CY_BLE_EVT_L2CAP_COMMAND_REJ\000"
 8145      4C455F45 
 8145      56545F4C 
 8145      32434150 
 8145      5F434F4D 
 8146              	.LASF181:
 8147 1913 43595F42 		.ascii	"CY_BLE_EVT_GAP_PASSKEY_DISPLAY_REQUEST\000"
 8147      4C455F45 
 8147      56545F47 
 8147      41505F50 
 8147      4153534B 
 8148              	.LASF337:
 8149 193a 43795F45 		.ascii	"Cy_EINK_DetachSPI\000"
 8149      494E4B5F 
 8149      44657461 
 8149      63685350 
 8149      4900
 8150              	.LASF6:
 8151 194c 756E7369 		.ascii	"unsigned char\000"
 8151      676E6564 
ARM GAS  C:\Users\User\AppData\Local\Temp\ccsn8eRz.s 			page 193


 8151      20636861 
 8151      7200
 8152              	.LASF226:
 8153 195a 43595F42 		.ascii	"CY_BLE_EVT_GATTS_DATA_SIGNED_CMD_REQ\000"
 8153      4C455F45 
 8153      56545F47 
 8153      41545453 
 8153      5F444154 
 8154              	.LASF13:
 8155 197f 5F5F7569 		.ascii	"__uint32_t\000"
 8155      6E743332 
 8155      5F7400
 8156              	.LASF48:
 8157 198a 4750494F 		.ascii	"GPIO_Type\000"
 8157      5F547970 
 8157      6500
 8158              	.LASF324:
 8159 1994 4932435F 		.ascii	"I2C_context\000"
 8159      636F6E74 
 8159      65787400 
 8160              	.LASF73:
 8161 19a0 636F756E 		.ascii	"countInput\000"
 8161      74496E70 
 8161      757400
 8162              	.LASF31:
 8163 19ab 494E5452 		.ascii	"INTR_CFG\000"
 8163      5F434647 
 8163      00
 8164              	.LASF151:
 8165 19b4 43595F42 		.ascii	"CY_BLE_EVT_REMOVE_DEVICE_FROM_WHITE_LIST_COMPLETE\000"
 8165      4C455F45 
 8165      56545F52 
 8165      454D4F56 
 8165      455F4445 
 8166              	.LASF309:
 8167 19e6 50765F45 		.ascii	"Pv_EINK_HardwarePowerOn\000"
 8167      494E4B5F 
 8167      48617264 
 8167      77617265 
 8167      506F7765 
 8168              	.LASF141:
 8169 19fe 43595F42 		.ascii	"CY_BLE_EVT_GET_DATA_LENGTH_COMPLETE\000"
 8169      4C455F45 
 8169      56545F47 
 8169      45545F44 
 8169      4154415F 
 8170              	.LASF294:
 8171 1a22 75706461 		.ascii	"updateTime\000"
 8171      74655469 
 8171      6D6500
 8172              	.LASF106:
 8173 1a2d 63795F73 		.ascii	"cy_stc_scb_spi_context\000"
 8173      74635F73 
 8173      63625F73 
 8173      70695F63 
 8173      6F6E7465 
 8174              	.LASF231:
ARM GAS  C:\Users\User\AppData\Local\Temp\ccsn8eRz.s 			page 194


 8175 1a44 43595F42 		.ascii	"CY_BLE_EVT_L2CAP_CONN_PARAM_UPDATE_RSP\000"
 8175      4C455F45 
 8175      56545F4C 
 8175      32434150 
 8175      5F434F4E 
 8176              	.LASF284:
 8177 1a6b 64617461 		.ascii	"dataLength\000"
 8177      4C656E67 
 8177      746800
 8178              	.LASF88:
 8179 1a76 73746174 		.ascii	"state\000"
 8179      6500
 8180              	.LASF297:
 8181 1a7c 73746167 		.ascii	"stageNumber\000"
 8181      654E756D 
 8181      62657200 
 8182              	.LASF93:
 8183 1a88 62617365 		.ascii	"baseAddr1\000"
 8183      41646472 
 8183      3100
 8184              	.LASF94:
 8185 1a92 62617365 		.ascii	"baseAddr2\000"
 8185      41646472 
 8185      3200
 8186              	.LASF291:
 8187 1a9c 6C6F6F70 		.ascii	"loopCounter\000"
 8187      436F756E 
 8187      74657200 
 8188              	.LASF222:
 8189 1aa8 43595F42 		.ascii	"CY_BLE_EVT_GATTC_EXEC_WRITE_RSP\000"
 8189      4C455F45 
 8189      56545F47 
 8189      41545443 
 8189      5F455845 
 8190              	.LASF208:
 8191 1ac8 43595F42 		.ascii	"CY_BLE_EVT_GATTS_XCNHG_MTU_REQ\000"
 8191      4C455F45 
 8191      56545F47 
 8191      41545453 
 8191      5F58434E 
 8192              	.LASF227:
 8193 1ae7 43595F42 		.ascii	"CY_BLE_EVT_GATTC_STOP_CMD_COMPLETE\000"
 8193      4C455F45 
 8193      56545F47 
 8193      41545443 
 8193      5F53544F 
 8194              	.LASF180:
 8195 1b0a 43595F42 		.ascii	"CY_BLE_EVT_GAP_PASSKEY_ENTRY_REQUEST\000"
 8195      4C455F45 
 8195      56545F47 
 8195      41505F50 
 8195      4153534B 
 8196              	.LASF242:
 8197 1b2f 62644861 		.ascii	"bdHandle\000"
 8197      6E646C65 
 8197      00
 8198              	.LASF195:
ARM GAS  C:\Users\User\AppData\Local\Temp\ccsn8eRz.s 			page 195


 8199 1b38 43595F42 		.ascii	"CY_BLE_EVT_GAPC_DIRECT_ADV_REPORT\000"
 8199      4C455F45 
 8199      56545F47 
 8199      4150435F 
 8199      44495245 
 8200              	.LASF45:
 8201 1b5a 5644445F 		.ascii	"VDD_INTR_MASK\000"
 8201      494E5452 
 8201      5F4D4153 
 8201      4B00
 8202              	.LASF261:
 8203 1b68 50565F45 		.ascii	"PV_EINK_ERROR_BUSY\000"
 8203      494E4B5F 
 8203      4552524F 
 8203      525F4255 
 8203      535900
 8204              	.LASF55:
 8205 1b7b 70657269 		.ascii	"period\000"
 8205      6F6400
 8206              	.LASF10:
 8207 1b82 73686F72 		.ascii	"short unsigned int\000"
 8207      7420756E 
 8207      7369676E 
 8207      65642069 
 8207      6E7400
 8208              	.LASF86:
 8209 1b95 63795F73 		.ascii	"cy_stc_tcpwm_counter_config\000"
 8209      74635F74 
 8209      6370776D 
 8209      5F636F75 
 8209      6E746572 
 8210              	.LASF179:
 8211 1bb1 43595F42 		.ascii	"CY_BLE_EVT_GAP_AUTH_REQ\000"
 8211      4C455F45 
 8211      56545F47 
 8211      41505F41 
 8211      5554485F 
 8212              	.LASF219:
 8213 1bc9 43595F42 		.ascii	"CY_BLE_EVT_GATTS_WRITE_CMD_REQ\000"
 8213      4C455F45 
 8213      56545F47 
 8213      41545453 
 8213      5F575249 
 8214              	.LASF164:
 8215 1be8 43595F42 		.ascii	"CY_BLE_EVT_GET_CLK_CONFIG_COMPLETE\000"
 8215      4C455F45 
 8215      56545F47 
 8215      45545F43 
 8215      4C4B5F43 
 8216              	.LASF43:
 8217 1c0b 5644445F 		.ascii	"VDD_ACTIVE\000"
 8217      41435449 
 8217      564500
 8218              	.LASF79:
 8219 1c16 43595F53 		.ascii	"CY_SCB_EZI2C_STATE_ADDR\000"
 8219      43425F45 
 8219      5A493243 
ARM GAS  C:\Users\User\AppData\Local\Temp\ccsn8eRz.s 			page 196


 8219      5F535441 
 8219      54455F41 
 8220              	.LASF329:
 8221 1c2e 43795F45 		.ascii	"Cy_EINK_ReadSPI\000"
 8221      494E4B5F 
 8221      52656164 
 8221      53504900 
 8222              	.LASF264:
 8223 1c3e 50565F45 		.ascii	"PV_EINK_ERROR_DC\000"
 8223      494E4B5F 
 8223      4552524F 
 8223      525F4443 
 8223      00
 8224              	.LASF296:
 8225 1c4f 696D6167 		.ascii	"imagePtr\000"
 8225      65507472 
 8225      00
 8226              	.LASF230:
 8227 1c58 43595F42 		.ascii	"CY_BLE_EVT_L2CAP_CONN_PARAM_UPDATE_REQ\000"
 8227      4C455F45 
 8227      56545F4C 
 8227      32434150 
 8227      5F434F4E 
 8228              	.LASF99:
 8229 1c7f 62756631 		.ascii	"buf1Size\000"
 8229      53697A65 
 8229      00
 8230              	.LASF51:
 8231 1c88 646F7562 		.ascii	"double\000"
 8231      6C6500
 8232              	.LASF34:
 8233 1c8f 4346475F 		.ascii	"CFG_SIO\000"
 8233      53494F00 
 8234              	.LASF267:
 8235 1c97 50565F45 		.ascii	"PV_EINK_STAGE1\000"
 8235      494E4B5F 
 8235      53544147 
 8235      453100
 8236              	.LASF268:
 8237 1ca6 50565F45 		.ascii	"PV_EINK_STAGE2\000"
 8237      494E4B5F 
 8237      53544147 
 8237      453200
 8238              	.LASF269:
 8239 1cb5 50565F45 		.ascii	"PV_EINK_STAGE3\000"
 8239      494E4B5F 
 8239      53544147 
 8239      453300
 8240              	.LASF270:
 8241 1cc4 50565F45 		.ascii	"PV_EINK_STAGE4\000"
 8241      494E4B5F 
 8241      53544147 
 8241      453400
 8242              	.LASF132:
 8243 1cd3 43595F42 		.ascii	"CY_BLE_EVT_FLASH_CORRUPT\000"
 8243      4C455F45 
 8243      56545F46 
ARM GAS  C:\Users\User\AppData\Local\Temp\ccsn8eRz.s 			page 197


 8243      4C415348 
 8243      5F434F52 
 8244              	.LASF200:
 8245 1cec 43595F42 		.ascii	"CY_BLE_EVT_GAP_GEN_SET_LOCAL_P256_KEYS_COMPLETE\000"
 8245      4C455F45 
 8245      56545F47 
 8245      41505F47 
 8245      454E5F53 
 8246              	.LASF183:
 8247 1d1c 43595F42 		.ascii	"CY_BLE_EVT_GAP_AUTH_FAILED\000"
 8247      4C455F45 
 8247      56545F47 
 8247      41505F41 
 8247      5554485F 
 8248              	.LASF250:
 8249 1d37 43595F42 		.ascii	"CY_BLE_CONN_STATE_DISCONNECTED\000"
 8249      4C455F43 
 8249      4F4E4E5F 
 8249      53544154 
 8249      455F4449 
 8250              	.LASF316:
 8251 1d56 64617461 		.ascii	"dataLineScan\000"
 8251      4C696E65 
 8251      5363616E 
 8251      00
 8252              	.LASF144:
 8253 1d63 43595F42 		.ascii	"CY_BLE_EVT_GET_LOCAL_RPA_COMPLETE\000"
 8253      4C455F45 
 8253      56545F47 
 8253      45545F4C 
 8253      4F43414C 
 8254              	.LASF253:
 8255 1d85 43595F42 		.ascii	"CY_BLE_CONN_STATE_CLIENT_SRVC_DISCOVERING\000"
 8255      4C455F43 
 8255      4F4E4E5F 
 8255      53544154 
 8255      455F434C 
 8256              	.LASF108:
 8257 1daf 72784275 		.ascii	"rxBufSize\000"
 8257      6653697A 
 8257      6500
 8258              	.LASF188:
 8259 1db9 43595F42 		.ascii	"CY_BLE_EVT_GAP_CONNECTION_UPDATE_COMPLETE\000"
 8259      4C455F45 
 8259      56545F47 
 8259      41505F43 
 8259      4F4E4E45 
 8260              		.ident	"GCC: (GNU Tools for ARM Embedded Processors) 5.4.1 20160609 (release) [ARM/embedded-5-bran
